
zephyr.elf:     file format elf32-xtensa-le


Disassembly of section .iram0.vectors:

40080000 <_WindowOverflow4>:
40080000:	49c500        	s32e	a0, a5, -16
40080003:	49d510        	s32e	a1, a5, -12
40080006:	49e520        	s32e	a2, a5, -8
40080009:	49f530        	s32e	a3, a5, -4
4008000c:	003400        	rfwo
	...

40080040 <_WindowUnderflow4>:
40080040:	09c500        	l32e	a0, a5, -16
40080043:	09d510        	l32e	a1, a5, -12
40080046:	09e520        	l32e	a2, a5, -8
40080049:	09f530        	l32e	a3, a5, -4
4008004c:	003500        	rfwu
	...

40080050 <_xt_alloca_exc>:
40080050:	034800        	rsr.windowbase	a0
40080053:	4080f0        	rotw	-1
40080056:	03e620        	rsr.ps	a2
40080059:	343820        	extui	a3, a2, 8, 4
4008005c:	303340        	xor	a3, a3, a4
4008005f:	03f440        	rsr.misc0	a4
40080062:	113380        	slli	a3, a3, 8
40080065:	302230        	xor	a2, a2, a3
40080068:	13e620        	wsr.ps	a2
4008006b:	002010        	rsync
4008006e:	ce74f7        	bbci	a4, 31, 40080040 <_WindowUnderflow4>
40080071:	4080f0        	rotw	-1
40080074:	4878e7        	bbci	a8, 30, 400800c0 <_WindowUnderflow8>
40080077:	4080f0        	rotw	-1
4008007a:	003086        	j	40080140 <_WindowUnderflow12>
4008007d:	000000        	ill

40080080 <_WindowOverflow8>:
40080080:	49c900        	s32e	a0, a9, -16
40080083:	09d100        	l32e	a0, a1, -12
40080086:	49d910        	s32e	a1, a9, -12
40080089:	49e920        	s32e	a2, a9, -8
4008008c:	49f930        	s32e	a3, a9, -4
4008008f:	498040        	s32e	a4, a0, -32
40080092:	499050        	s32e	a5, a0, -28
40080095:	49a060        	s32e	a6, a0, -24
40080098:	49b070        	s32e	a7, a0, -20
4008009b:	003400        	rfwo
	...

400800c0 <_WindowUnderflow8>:
400800c0:	09c900        	l32e	a0, a9, -16
400800c3:	09d910        	l32e	a1, a9, -12
400800c6:	09e920        	l32e	a2, a9, -8
400800c9:	09d170        	l32e	a7, a1, -12
400800cc:	09f930        	l32e	a3, a9, -4
400800cf:	098740        	l32e	a4, a7, -32
400800d2:	099750        	l32e	a5, a7, -28
400800d5:	09a760        	l32e	a6, a7, -24
400800d8:	09b770        	l32e	a7, a7, -20
400800db:	003500        	rfwu
	...

40080100 <_WindowOverflow12>:
40080100:	49cd00        	s32e	a0, a13, -16
40080103:	09d100        	l32e	a0, a1, -12
40080106:	49dd10        	s32e	a1, a13, -12
40080109:	49ed20        	s32e	a2, a13, -8
4008010c:	49fd30        	s32e	a3, a13, -4
4008010f:	494040        	s32e	a4, a0, -48
40080112:	495050        	s32e	a5, a0, -44
40080115:	496060        	s32e	a6, a0, -40
40080118:	497070        	s32e	a7, a0, -36
4008011b:	498080        	s32e	a8, a0, -32
4008011e:	499090        	s32e	a9, a0, -28
40080121:	49a0a0        	s32e	a10, a0, -24
40080124:	49b0b0        	s32e	a11, a0, -20
40080127:	003400        	rfwo
	...

40080140 <_WindowUnderflow12>:
40080140:	09cd00        	l32e	a0, a13, -16
40080143:	09dd10        	l32e	a1, a13, -12
40080146:	09ed20        	l32e	a2, a13, -8
40080149:	09d1b0        	l32e	a11, a1, -12
4008014c:	09fd30        	l32e	a3, a13, -4
4008014f:	094b40        	l32e	a4, a11, -48
40080152:	095b50        	l32e	a5, a11, -44
40080155:	096b60        	l32e	a6, a11, -40
40080158:	097b70        	l32e	a7, a11, -36
4008015b:	098b80        	l32e	a8, a11, -32
4008015e:	099b90        	l32e	a9, a11, -28
40080161:	09aba0        	l32e	a10, a11, -24
40080164:	09bbb0        	l32e	a11, a11, -20
40080167:	003500        	rfwu
	...

40080180 <_Level2Vector>:
40080180:	c0c112        	addi	a1, a1, -64
40080183:	8109      	s32i.n	a0, a1, 32
40080185:	a129      	s32i.n	a2, a1, 40
40080187:	b139      	s32i.n	a3, a1, 44
40080189:	03c200        	rsr.eps2	a0
4008018c:	6109      	s32i.n	a0, a1, 24
4008018e:	03b200        	rsr.epc2	a0
40080191:	7109      	s32i.n	a0, a1, 28
40080193:	000246        	j	400801a0 <_after_imms2>
	...

40080198 <_handle_excint_imm2>:
40080198:	0f98      	l32i.n	a9, a15, 0
4008019a:	4008      	l32i.n	a0, a0, 16

4008019c <_c_handler_imm2>:
4008019c:	10e8      	l32i.n	a14, a0, 4
4008019e:	4008      	l32i.n	a0, a0, 16

400801a0 <_after_imms2>:
400801a0:	ffff21        	l32r	a2, 4008019c <_c_handler_imm2>
400801a3:	fffd01        	l32r	a0, 40080198 <_handle_excint_imm2>
400801a6:	0000a0        	jx	a0
	...

400801c0 <_Level3Vector>:
400801c0:	c0c112        	addi	a1, a1, -64
400801c3:	8109      	s32i.n	a0, a1, 32
400801c5:	a129      	s32i.n	a2, a1, 40
400801c7:	b139      	s32i.n	a3, a1, 44
400801c9:	03c300        	rsr.eps3	a0
400801cc:	6109      	s32i.n	a0, a1, 24
400801ce:	03b300        	rsr.epc3	a0
400801d1:	7109      	s32i.n	a0, a1, 28
400801d3:	000146        	j	400801dc <_after_imms3>
	...

400801d8 <_c_handler_imm3>:
400801d8:	113c      	movi.n	a1, 49
400801da:	4008      	l32i.n	a0, a0, 16

400801dc <_after_imms3>:
400801dc:	ffff21        	l32r	a2, 400801d8 <_c_handler_imm3>
400801df:	ffee01        	l32r	a0, 40080198 <_handle_excint_imm2>
400801e2:	0000a0        	jx	a0
	...

40080200 <_Level4Vector>:
40080200:	c0c112        	addi	a1, a1, -64
40080203:	8109      	s32i.n	a0, a1, 32
40080205:	a129      	s32i.n	a2, a1, 40
40080207:	b139      	s32i.n	a3, a1, 44
40080209:	03c400        	rsr.eps4	a0
4008020c:	6109      	s32i.n	a0, a1, 24
4008020e:	03b400        	rsr.epc4	a0
40080211:	7109      	s32i.n	a0, a1, 28
40080213:	000146        	j	4008021c <_after_imms4>
	...

40080218 <_c_handler_imm4>:
40080218:	11b8      	l32i.n	a11, a1, 4
4008021a:	4008      	l32i.n	a0, a0, 16

4008021c <_after_imms4>:
4008021c:	ffff21        	l32r	a2, 40080218 <_c_handler_imm4>
4008021f:	ffde01        	l32r	a0, 40080198 <_handle_excint_imm2>
40080222:	0000a0        	jx	a0
	...

40080240 <_Level5Vector>:
40080240:	c0c112        	addi	a1, a1, -64
40080243:	8109      	s32i.n	a0, a1, 32
40080245:	a129      	s32i.n	a2, a1, 40
40080247:	b139      	s32i.n	a3, a1, 44
40080249:	03c500        	rsr.eps5	a0
4008024c:	6109      	s32i.n	a0, a1, 24
4008024e:	03b500        	rsr.epc5	a0
40080251:	7109      	s32i.n	a0, a1, 28
40080253:	000146        	j	4008025c <_after_imms5>
	...

40080258 <_c_handler_imm5>:
40080258:	121c      	movi.n	a2, 17
4008025a:	4008      	l32i.n	a0, a0, 16

4008025c <_after_imms5>:
4008025c:	ffff21        	l32r	a2, 40080258 <_c_handler_imm5>
4008025f:	ffce01        	l32r	a0, 40080198 <_handle_excint_imm2>
40080262:	0000a0        	jx	a0
	...

40080280 <_Level6Vector>:
40080280:	c0c112        	addi	a1, a1, -64
40080283:	8109      	s32i.n	a0, a1, 32
40080285:	a129      	s32i.n	a2, a1, 40
40080287:	b139      	s32i.n	a3, a1, 44
40080289:	03c600        	rsr.eps6	a0
4008028c:	6109      	s32i.n	a0, a1, 24
4008028e:	03b600        	rsr.epc6	a0
40080291:	7109      	s32i.n	a0, a1, 28
40080293:	000146        	j	4008029c <_after_imms6>
	...

40080298 <_c_handler_imm6>:
40080298:	081274        	lsi	f7, a2, 32
4008029b:	40          	.byte 0x40

4008029c <_after_imms6>:
4008029c:	ffff21        	l32r	a2, 40080298 <_c_handler_imm6>
4008029f:	ffbe01        	l32r	a0, 40080198 <_handle_excint_imm2>
400802a2:	0000a0        	jx	a0
	...

400802c0 <_Level7Vector>:
400802c0:	c0c112        	addi	a1, a1, -64
400802c3:	8109      	s32i.n	a0, a1, 32
400802c5:	a129      	s32i.n	a2, a1, 40
400802c7:	b139      	s32i.n	a3, a1, 44
400802c9:	03c700        	rsr.eps7	a0
400802cc:	6109      	s32i.n	a0, a1, 24
400802ce:	03b700        	rsr.epc7	a0
400802d1:	7109      	s32i.n	a0, a1, 28
400802d3:	000146        	j	400802dc <_after_imms7>
	...

400802d8 <_c_handler_imm7>:
400802d8:	128c      	beqz.n	a2, 400802dd <_after_imms7+0x1>
400802da:	4008      	l32i.n	a0, a0, 16

400802dc <_after_imms7>:
400802dc:	ffff21        	l32r	a2, 400802d8 <_c_handler_imm7>
400802df:	ffae01        	l32r	a0, 40080198 <_handle_excint_imm2>
400802e2:	0000a0        	jx	a0
	...

40080300 <_KernelExceptionVector>:
40080300:	02c106        	j	40080e08 <_Level1Vector>
	...

40080340 <_Level1RealVector>:
40080340:	13f400        	wsr.misc0	a0
40080343:	03e800        	rsr.exccause	a0
40080346:	025066        	bnei	a0, 5, 4008034c <_not_alloca>
40080349:	ff40c6        	j	40080050 <_xt_alloca_exc>

4008034c <_not_alloca>:
4008034c:	03f400        	rsr.misc0	a0
4008034f:	02ad46        	j	40080e08 <_Level1Vector>
	...

400803c0 <_DoubleExceptionVector>:
400803c0:	004140        	break	1, 4
400803c3:	fffe46        	j	400803c0 <_DoubleExceptionVector>
	...

Disassembly of section text:

40080400 <__esp_platform_start-0x1ec>:
40080400:	080000        	lsx	f0, a0, a0
40080403:	060840        	lsi	f4, a8, 24
40080406:	3ffb      	addi.n	a3, a15, 15
40080408:	fb03b0        	f64addc	a11, a3, 0, 0
4008040b:	3f          	.byte 0x3f
4008040c:	040023        	lsi	f2, a0, 16
4008040f:	05ac00        	extui	a10, a0, 28, 1
40080412:	3ffb      	addi.n	a3, a15, 15
40080414:	f480a4        	lsi	f10, a0, 0x3d0
40080417:	3f          	.byte 0x3f
40080418:	d83aa1        	l32r	a10, 40076500 <__udivmoddi4+0x1190c>
4008041b:	808c50        	add	a8, a12, a5
4008041e:	ff3ff4        	lsi	f15, a15, 0x3fc
40080421:	ff          	.byte 0xff
40080422:	ff          	.byte 0xff
40080423:	7f          	.byte 0x7f
40080424:	009200        	all4	b0, b0:b1:b2:b3
40080427:	01e040        	slli	a14, a0, 28
4008042a:	fe          	.byte 0xfe
4008042b:	3f          	.byte 0x3f
4008042c:	f30000        	lsi	f0, a0, 0x3cc
4008042f:	bf          	.byte 0xbf
40080430:	ff          	.byte 0xff
40080431:	ff          	.byte 0xff
40080432:	000032        	l8ui	a3, a0, 0
40080435:	c00000        	sub	a0, a0, a0
40080438:	ff          	.byte 0xff
40080439:	4e          	.byte 0x4e
4008043a:	000006        	j	4008043e <_init_end+0x3e>
4008043d:	bff880        	f64cmph	a15, a8, a8, 11
40080440:	ff          	.byte 0xff
40080441:	7f          	.byte 0x7f
40080442:	000002        	l8ui	a0, a0, 0
40080445:	bff400        	f64cmph	a15, a4, a0, 11
40080448:	ff          	.byte 0xff
40080449:	1f          	.byte 0x1f
4008044a:	1c0000        	lsi	f0, a0, 112
4008044d:	0068      	l32i.n	a6, a0, 0
4008044f:	020c40        	andb	b0, b12, b4
40080452:	3ffb      	addi.n	a3, a15, 15
40080454:	fb01f4        	lsi	f15, a1, 0x3ec
40080457:	3f          	.byte 0x3f
40080458:	0818      	l32i.n	a1, a8, 0
4008045a:	4008      	l32i.n	a0, a0, 16
4008045c:	020006        	j	40080c60 <i2c_esp32_transfer+0x1c8>
4008045f:	000600        	lsi	f0, a6, 0
40080462:	ff0003        	lsi	f0, a0, 0x3fc
40080465:	3f          	.byte 0x3f
40080466:	340000        	extui	a0, a0, 0, 4
40080469:	400085        	call0	400c0474 <_iram_end+0x3d238>
4008046c:	1388      	l32i.n	a8, a3, 4
4008046e:	000000        	ill
40080471:	000000        	ill
40080474:	ff          	.byte 0xff
40080475:	ffffc7        	bbsi	a15, 28, 40080478 <_init_end+0x78>
40080478:	001000        	movsp	a0, a0
4008047b:	140100        	extui	a0, a0, 1, 2
4008047e:	000000        	ill
40080481:	0018      	l32i.n	a1, a0, 0
40080483:	200000        	or	a0, a0, a0
40080486:	ff0000        	f64cmph	a0, a0, a0, 15
40080489:	ffff00        	f64cmph	a15, a15, a0, 15
4008048c:	ff          	.byte 0xff
4008048d:	ff          	.byte 0xff
4008048e:	ff          	.byte 0xff
4008048f:	ff          	.byte 0xff
40080490:	080f94        	lsi	f9, a15, 32
40080493:	039040        	rsr.dbreaka0	a4
40080496:	400d      	lsi	f0, a0, 0
40080498:	050020        	extui	a0, a2, 16, 1
4008049b:	000000        	ill
4008049e:	0008      	l32i.n	a0, a0, 0
400804a0:	100000        	and	a0, a0, a0
400804a3:	000000        	ill
400804a6:	800020        	add	a0, a0, a2
400804a9:	3ffb02        	s32ri	a0, a11, 252
400804ac:	000000        	ill
400804af:	0008      	l32i.n	a0, a0, 0
400804b1:	0008      	l32i.n	a0, a0, 0
400804b3:	800000        	add	a0, a0, a0
400804b6:	000000        	ill
400804b9:	004000        	break	0, 0
400804bc:	800000        	add	a0, a0, a0
400804bf:	000000        	ill
400804c2:	002000        	isync
400804c5:	4088      	l32i.n	a8, a0, 16
400804c7:	000000        	ill
400804ca:	000100        	lsi	f0, a1, 0
400804cd:	020000        	andb	b0, b0, b0
400804d0:	000000        	ill
400804d3:	000010        	lsi	f1, a0, 0
400804d6:	004000        	break	0, 0
400804d9:	030000        	rsr.lbeg	a0
400804dc:	010000        	slli	a0, a0, 32
400804df:	000000        	ill
400804e2:	000400        	lsi	f0, a4, 0
400804e5:	800000        	add	a0, a0, a0
400804e8:	004000        	break	0, 0
400804eb:	000000        	ill
400804ee:	000002        	l8ui	a0, a0, 0
400804f1:	000400        	lsi	f0, a4, 0
400804f4:	003000        	rfe
400804f7:	ffff00        	f64cmph	a15, a15, a0, 15
400804fa:	ff          	.byte 0xff
400804fb:	3f          	.byte 0x3f
400804fc:	fb0470        	f64addc	a7, a4, 0, 0
400804ff:	3f          	.byte 0x3f
40080500:	fb0474        	lsi	f7, a4, 0x3ec
40080503:	3f          	.byte 0x3f
40080504:	051ff0        	extui	a1, a15, 31, 1
40080507:	1fe0c0        	f64cmph	a14, a0, a12, 1
4008050a:	900005        	call0	4001050c <__umoddi3+0x328c>
4008050d:	3ffb00        	f64cmph	a15, a11, a0, 3
40080510:	9f          	.byte 0x9f
40080511:	3ffb00        	f64cmph	a15, a11, a0, 3
40080514:	ae          	.byte 0xae
40080515:	3ffb00        	f64cmph	a15, a11, a0, 3
40080518:	00bc      	beqz.n	a0, 4008054c <_init_end+0x14c>
4008051a:	3ffb      	addi.n	a3, a15, 15
4008051c:	00ca      	add.n	a0, a0, a12
4008051e:	3ffb      	addi.n	a3, a15, 15
40080520:	400a44        	lsi	f4, a10, 0x100
40080523:	3f          	.byte 0x3f
40080524:	fb01c4        	lsi	f12, a1, 0x3ec
40080527:	3f          	.byte 0x3f
40080528:	fb0254        	lsi	f5, a2, 0x3ec
4008052b:	3f          	.byte 0x3f
4008052c:	fb0600        	f64addc	a0, a6, 0, 0
4008052f:	3f          	.byte 0x3f
40080530:	0408      	l32i.n	a0, a4, 0
40080532:	3ffb      	addi.n	a3, a15, 15
40080534:	fb03b0        	f64addc	a11, a3, 0, 0
40080537:	3f          	.byte 0x3f
40080538:	18ec      	bnez.n	a8, 4008055d <_init_end+0x15d>
4008053a:	4008      	l32i.n	a0, a0, 16
4008053c:	fe5230        	f64iter	a5, a2, a3, 3, 1
4008053f:	3f          	.byte 0x3f
40080540:	fe5e30        	f64iter	a5, a14, a3, 3, 1
40080543:	3f          	.byte 0x3f
40080544:	162c      	movi.n	a6, 33
40080546:	4008      	l32i.n	a0, a0, 16
40080548:	fe5630        	f64iter	a5, a6, a3, 3, 1
4008054b:	3f          	.byte 0x3f
4008054c:	cf          	.byte 0xcf
4008054d:	3ffb00        	f64cmph	a15, a11, a0, 3
40080550:	0398      	l32i.n	a9, a3, 0
40080552:	3ffb      	addi.n	a3, a15, 15
40080554:	03ac      	beqz.n	a3, 40080578 <_init_end+0x178>
40080556:	3ffb      	addi.n	a3, a15, 15
40080558:	0398      	l32i.n	a9, a3, 0
4008055a:	3ffb      	addi.n	a3, a15, 15
4008055c:	1cf8      	l32i.n	a15, a12, 4
4008055e:	4008      	l32i.n	a0, a0, 16
40080560:	fb0601        	l32r	a0, 4007f178 <__udivmoddi4+0x1a584>
40080563:	3f          	.byte 0x3f
40080564:	fb05d4        	lsi	f13, a5, 0x3ec
40080567:	3f          	.byte 0x3f
40080568:	fb0601        	l32r	a0, 4007f180 <__udivmoddi4+0x1a58c>
4008056b:	3f          	.byte 0x3f
4008056c:	fb05d0        	f64addc	a13, a5, 0, 0
4008056f:	3f          	.byte 0x3f
40080570:	05c8      	l32i.n	a12, a5, 0
40080572:	3ffb      	addi.n	a3, a15, 15
40080574:	000a      	add.n	a0, a0, a0
40080576:	f80000        	lsi	f0, a0, 0x3e0
40080579:	cf          	.byte 0xcf
4008057a:	d84000        	lsi	f0, a0, 0x360
4008057d:	3ffb05        	call0	400c0530 <_iram_end+0x3d2f4>
40080580:	0088      	l32i.n	a8, a0, 0
40080582:	3ffb      	addi.n	a3, a15, 15
40080584:	fb0460        	f64addc	a6, a4, 0, 0
40080587:	3f          	.byte 0x3f
40080588:	400d62        	l8ui	a6, a13, 64
4008058b:	3f          	.byte 0x3f
4008058c:	7e          	.byte 0x7e
4008058d:	400d      	lsi	f0, a0, 0
4008058f:	3f          	.byte 0x3f
40080590:	9f          	.byte 0x9f
40080591:	400d      	lsi	f0, a0, 0
40080593:	3f          	.byte 0x3f
40080594:	fbfff0        	f64subc	a15, a15, 3, 1
40080597:	ff          	.byte 0xff
40080598:	05a8      	l32i.n	a10, a5, 0
4008059a:	3ffb      	addi.n	a3, a15, 15
4008059c:	7619f1        	l32r	a15, 4005de00 <__umoddi3+0x50b80>
4008059f:	5dc005        	call0	400de1a0 <_text_end+0xace0>
400805a2:	0b0000        	lsi	f0, a0, 44
400805a5:	02bb      	addi.n	a0, a2, 11
400805a7:	5dbf00        	lsi	f0, a15, 0x174
400805aa:	800000        	add	a0, a0, a0
400805ad:	4000d2        	l8ui	a13, a0, 64
400805b0:	fb0121        	l32r	a2, 4007f1b4 <__udivmoddi4+0x1a5c0>
400805b3:	3f          	.byte 0x3f
400805b4:	011c      	movi.n	a1, 16
400805b6:	3ffb      	addi.n	a3, a15, 15
400805b8:	ff          	.byte 0xff
400805b9:	ffff87        	bbsi	a15, 24, 400805bc <_init_end+0x1bc>
400805bc:	002800        	lsi	f0, a8, 0
400805bf:	380000        	lsi	f0, a0, 224
400805c2:	fd0000        	lsi	f0, a0, 0x3f4
400805c5:	ffff87        	bbsi	a15, 24, 400805c8 <_init_end+0x1c8>
400805c8:	004002        	s8i	a0, a0, 0
400805cb:	780000        	lsi	f0, a0, 0x1e0
400805ce:	d40000        	extui	a0, a0, 0, 14
400805d1:	3ffb00        	f64cmph	a15, a11, a0, 3
400805d4:	00e8      	l32i.n	a14, a0, 0
400805d6:	3ffb      	addi.n	a3, a15, 15
400805d8:	007810        	lsi	f1, a8, 0
400805db:	00fc00        	lsi	f0, a12, 0
400805de:	3ffb      	addi.n	a3, a15, 15
400805e0:	fb0000        	f64addc	a0, a0, 0, 0
400805e3:	3f          	.byte 0x3f
400805e4:	083114        	lsi	f1, a1, 32
400805e7:	058440        	extui	a8, a4, 20, 1
400805ea:	3ffb      	addi.n	a3, a15, 15

400805ec <__esp_platform_start>:
400805ec:	004136        	entry	a1, 32
400805ef:	ff8481        	l32r	a8, 40080400 <_init_end>
400805f2:	13e780        	wsr.vecbase	a8
400805f5:	ff84a1        	l32r	a10, 40080408 <_init_end+0x8>
400805f8:	ff83c1        	l32r	a12, 40080404 <_init_end+0x4>
400805fb:	00a0b2        	movi	a11, 0
400805fe:	c0cca0        	sub	a12, a12, a10
40080601:	02be25        	call8	400831e4 <memset>
40080604:	ff8281        	l32r	a8, 4008040c <_init_end+0xc>
40080607:	13e680        	wsr.ps	a8
4008060a:	ff8181        	l32r	a8, 40080410 <_init_end+0x10>
4008060d:	13f480        	wsr.misc0	a8
40080610:	002010        	rsync
40080613:	ff8091        	l32r	a9, 40080414 <_init_end+0x14>
40080616:	ff8081        	l32r	a8, 40080418 <_init_end+0x18>
40080619:	ff80a1        	l32r	a10, 4008041c <_init_end+0x1c>
4008061c:	0020c0        	memw
4008061f:	0989      	s32i.n	a8, a9, 0
40080621:	0020c0        	memw
40080624:	0a88      	l32i.n	a8, a10, 0
40080626:	ff7eb1        	l32r	a11, 40080420 <_init_end+0x20>
40080629:	1088b0        	and	a8, a8, a11
4008062c:	0020c0        	memw
4008062f:	0a89      	s32i.n	a8, a10, 0
40080631:	080c      	movi.n	a8, 0
40080633:	0020c0        	memw
40080636:	0989      	s32i.n	a8, a9, 0
40080638:	51b425        	call8	400d217c <esp_intr_initialize>
4008063b:	0108a5        	call8	400816c4 <z_cstart>
	...

40080640 <arch_printk_char_out>:
40080640:	004136        	entry	a1, 32
40080643:	079266        	bnei	a2, 10, 4008064e <arch_printk_char_out+0xe>
40080646:	da0c      	movi.n	a10, 13
40080648:	ff7781        	l32r	a8, 40080424 <_init_end+0x24>
4008064b:	0008e0        	callx8	a8
4008064e:	74a020        	extui	a10, a2, 0, 8
40080651:	ff7481        	l32r	a8, 40080424 <_init_end+0x24>
40080654:	0008e0        	callx8	a8
40080657:	020c      	movi.n	a2, 0
40080659:	f01d      	retw.n
	...

4008065c <ets_update_cpu_frequency>:
4008065c:	004136        	entry	a1, 32
4008065f:	ff7281        	l32r	a8, 40080428 <_init_end+0x28>
40080662:	0829      	s32i.n	a2, a8, 0
40080664:	f01d      	retw.n
	...

40080668 <esp_ptr_executable>:
40080668:	004136        	entry	a1, 32
4008066b:	ff7091        	l32r	a9, 4008042c <_init_end+0x2c>
4008066e:	ff70a1        	l32r	a10, 40080430 <_init_end+0x30>
40080671:	929a      	add.n	a9, a2, a9
40080673:	180c      	movi.n	a8, 1
40080675:	23ba97        	bgeu	a10, a9, 4008069c <esp_ptr_executable+0x34>
40080678:	ff6f91        	l32r	a9, 40080434 <_init_end+0x34>
4008067b:	ff6fa1        	l32r	a10, 40080438 <_init_end+0x38>
4008067e:	929a      	add.n	a9, a2, a9
40080680:	18ba97        	bgeu	a10, a9, 4008069c <esp_ptr_executable+0x34>
40080683:	ff6e91        	l32r	a9, 4008043c <_init_end+0x3c>
40080686:	ff6ea1        	l32r	a10, 40080440 <_init_end+0x40>
40080689:	929a      	add.n	a9, a2, a9
4008068b:	0dba97        	bgeu	a10, a9, 4008069c <esp_ptr_executable+0x34>
4008068e:	ff6d91        	l32r	a9, 40080444 <_init_end+0x44>
40080691:	229a      	add.n	a2, a2, a9
40080693:	ff6d91        	l32r	a9, 40080448 <_init_end+0x48>
40080696:	02b927        	bgeu	a9, a2, 4008069c <esp_ptr_executable+0x34>
40080699:	00a082        	movi	a8, 0
4008069c:	042080        	extui	a2, a8, 0, 1
4008069f:	f01d      	retw.n
400806a1:	000000        	ill

400806a4 <z_xtensa_backtrace_get_start>:
400806a4:	004136        	entry	a1, 32
400806a7:	01f1a5        	call8	400825c0 <xthal_window_spill>
400806aa:	002562        	l32i	a6, a5, 0
400806ad:	072672        	l32i	a7, a6, 28
400806b0:	006272        	s32i	a7, a2, 0
400806b3:	8678      	l32i.n	a7, a6, 32
400806b5:	0479      	s32i.n	a7, a4, 0
400806b7:	40c662        	addi	a6, a6, 64
400806ba:	0369      	s32i.n	a6, a3, 0
400806bc:	f01d      	retw.n
	...

400806c0 <shared_intr_isr>:
400806c0:	004136        	entry	a1, 32
400806c3:	1228      	l32i.n	a2, a2, 4
400806c5:	518f65        	call8	400d1fbc <esp_intr_lock>
400806c8:	0007c6        	j	400806eb <shared_intr_isr+0x2b>
400806cb:	128200        	andbc	b8, b2, b0
400806ce:	e80700        	lsi	f0, a7, 0x3a0
400806d1:	128816        	beqz	a8, 400807fd <i2c_esp32_write_addr+0x45>
400806d4:	a88c      	beqz.n	a8, 400806e2 <shared_intr_isr+0x22>
400806d6:	0020c0        	memw
400806d9:	002892        	l32i	a9, a8, 0
400806dc:	022282        	l32i	a8, a2, 8
400806df:	060987        	bnone	a9, a8, 400806e9 <shared_intr_isr+0x29>
400806e2:	3288      	l32i.n	a8, a2, 12
400806e4:	42a8      	l32i.n	a10, a2, 16
400806e6:	0008e0        	callx8	a8
400806e9:	5228      	l32i.n	a2, a2, 20
400806eb:	fdd256        	bnez	a2, 400806cc <shared_intr_isr+0xc>
400806ee:	518de5        	call8	400d1fcc <esp_intr_unlock>
400806f1:	f01d      	retw.n
	...

400806f4 <esp_intr_disable>:
400806f4:	004136        	entry	a1, 32
400806f7:	eaaf82        	movi	a8, -22
400806fa:	0a2216        	beqz	a2, 400807a0 <esp_intr_disable+0xac>
400806fd:	518be5        	call8	400d1fbc <esp_intr_lock>
40080700:	012282        	l32i	a8, a2, 4
40080703:	032816        	beqz	a8, 40080739 <esp_intr_disable+0x45>
40080706:	001892        	l16ui	a9, a8, 0
40080709:	1a0c      	movi.n	a10, 1
4008070b:	2099a0        	or	a9, a9, a10
4008070e:	005892        	s16i	a9, a8, 0
40080711:	08b8      	l32i.n	a11, a8, 0
40080713:	0288      	l32i.n	a8, a2, 0
40080715:	74b1b0        	extui	a11, a11, 1, 8
40080718:	23bb00        	sext	a11, a11, 7
4008071b:	1888      	l32i.n	a8, a8, 4
4008071d:	000486        	j	40080733 <esp_intr_disable+0x3f>
40080720:	0898      	l32i.n	a9, a8, 0
40080722:	019990        	slli	a9, a9, 23
40080725:	319890        	srai	a9, a9, 24
40080728:	0599b7        	bne	a9, a11, 40080731 <esp_intr_disable+0x3d>
4008072b:	001892        	l16ui	a9, a8, 0
4008072e:	626907        	bbci	a9, 0, 40080794 <esp_intr_disable+0xa0>
40080731:	5888      	l32i.n	a8, a8, 20
40080733:	fe9856        	bnez	a8, 40080720 <esp_intr_disable+0x2c>
40080736:	001806        	j	4008079a <esp_intr_disable+0xa6>
40080739:	0288      	l32i.n	a8, a2, 0
4008073b:	08b8      	l32i.n	a11, a8, 0
4008073d:	11bbe0        	slli	a11, a11, 2
40080740:	31b8b0        	srai	a11, a11, 24
40080743:	0014c6        	j	4008079a <esp_intr_disable+0xa6>
40080746:	0228      	l32i.n	a2, a2, 0
40080748:	6c0c      	movi.n	a12, 6
4008074a:	02a8      	l32i.n	a10, a2, 0
4008074c:	05a0a0        	extui	a10, a10, 16, 1
4008074f:	ff3f81        	l32r	a8, 4008044c <_init_end+0x4c>
40080752:	0008e0        	callx8	a8
40080755:	000cc6        	j	4008078c <esp_intr_disable+0x98>
40080758:	002222        	l32i	a2, a2, 0
4008075b:	03f580        	rsr.misc1	a8
4008075e:	002222        	l32i	a2, a2, 0
40080761:	140882        	l8ui	a8, a8, 20
40080764:	059020        	extui	a9, a2, 16, 1
40080767:	0a1987        	beq	a9, a8, 40080775 <esp_intr_disable+0x81>
4008076a:	518625        	call8	400d1fcc <esp_intr_unlock>
4008076d:	eaaf82        	movi	a8, -22
40080770:	000b06        	j	400807a0 <esp_intr_disable+0xac>
40080773:	900000        	addx2	a0, a0, a0
40080776:	2003e4        	lsi	f14, a3, 128
40080779:	7c4581        	l32r	a8, 4005f890 <__umoddi3+0x52610>
4008077c:	1800e2        	l8ui	a14, a0, 24
4008077f:	222040        	orb	b2, b0, b4
40080782:	229081        	l32r	a8, 400491c4 <__umoddi3+0x3bf44>
40080785:	e42010        	extui	a2, a1, 0, 15
40080788:	201013        	lsi	f1, a0, 128
4008078b:	83e500        	moveqz	a14, a5, a0
4008078e:	080c51        	l32r	a5, 400427c0 <__umoddi3+0x35540>
40080791:	0002c6        	j	400807a0 <esp_intr_disable+0xac>
40080794:	ff4bd6        	bgez	a11, 4008078c <esp_intr_disable+0x98>
40080797:	ffef46        	j	40080758 <esp_intr_disable+0x64>
4008079a:	fbab96        	bltz	a11, 40080758 <esp_intr_disable+0x64>
4008079d:	ffe946        	j	40080746 <esp_intr_disable+0x52>
400807a0:	082d      	mov.n	a2, a8
400807a2:	f01d      	retw.n

400807a4 <gpio_esp32_isr>:
400807a4:	004136        	entry	a1, 32
400807a7:	ff2aa1        	l32r	a10, 40080450 <_init_end+0x50>
400807aa:	005c25        	call8	40080d6c <gpio_esp32_fire_callbacks>
400807ad:	ff29a1        	l32r	a10, 40080454 <_init_end+0x54>
400807b0:	005ba5        	call8	40080d6c <gpio_esp32_fire_callbacks>
400807b3:	f01d      	retw.n
400807b5:	000000        	ill

400807b8 <i2c_esp32_write_addr>:
400807b8:	006136        	entry	a1, 48
400807bb:	042222        	l32i	a2, a2, 16
400807be:	004132        	s8i	a3, a1, 0
400807c1:	0c2282        	l32i	a8, a2, 48
400807c4:	02a8      	l32i.n	a10, a2, 0
400807c6:	981b      	addi.n	a9, a8, 1
400807c8:	14c882        	addi	a8, a8, 20
400807cb:	1188e0        	slli	a8, a8, 2
400807ce:	c299      	s32i.n	a9, a2, 48
400807d0:	8a8a      	add.n	a8, a10, a8
400807d2:	090c      	movi.n	a9, 0
400807d4:	0020c0        	memw
400807d7:	2899      	s32i.n	a9, a8, 8
400807d9:	1c0c      	movi.n	a12, 1
400807db:	01bd      	mov.n	a11, a1
400807dd:	522165        	call8	400d29f4 <i2c_ll_write_txfifo>
400807e0:	b288      	l32i.n	a8, a2, 44
400807e2:	1c0c      	movi.n	a12, 1
400807e4:	0e6807        	bbci	a8, 0, 400807f6 <i2c_esp32_write_addr+0x3e>
400807e7:	413830        	srli	a3, a3, 8
400807ea:	004132        	s8i	a3, a1, 0
400807ed:	02a8      	l32i.n	a10, a2, 0
400807ef:	01bd      	mov.n	a11, a1
400807f1:	522025        	call8	400d29f4 <i2c_ll_write_txfifo>
400807f4:	2c0c      	movi.n	a12, 2
400807f6:	c288      	l32i.n	a8, a2, 48
400807f8:	0238      	l32i.n	a3, a2, 0
400807fa:	981b      	addi.n	a9, a8, 1
400807fc:	c299      	s32i.n	a9, a2, 48
400807fe:	14c882        	addi	a8, a8, 20
40080801:	920c      	movi.n	a2, 9
40080803:	112280        	slli	a2, a2, 8
40080806:	1188e0        	slli	a8, a8, 2
40080809:	20cc20        	or	a12, a12, a2
4008080c:	838a      	add.n	a8, a3, a8
4008080e:	0020c0        	memw
40080811:	28c9      	s32i.n	a12, a8, 8
40080813:	f01d      	retw.n
40080815:	000000        	ill

40080818 <i2c_esp32_isr>:
40080818:	006136        	entry	a1, 48
4008081b:	4228      	l32i.n	a2, a2, 16
4008081d:	080c      	movi.n	a8, 0
4008081f:	0189      	s32i.n	a8, a1, 0
40080821:	0020c0        	memw
40080824:	a288      	l32i.n	a8, a2, 40
40080826:	0a1866        	bnei	a8, 1, 40080834 <i2c_esp32_isr+0x1c>
40080829:	01bd      	mov.n	a11, a1
4008082b:	02ad      	mov.n	a10, a2
4008082d:	5030a5        	call8	400d0b38 <i2c_hal_master_handle_tx_event>
40080830:	000446        	j	40080845 <i2c_esp32_isr+0x2d>
40080833:	20c000        	or	a12, a0, a0
40080836:	228200        	orb	b8, b2, b0
40080839:	560a      	add.n	a5, a6, a0
4008083b:	0078      	l32i.n	a7, a0, 0
4008083d:	20b110        	or	a11, a1, a1
40080840:	02ad      	mov.n	a10, a2
40080842:	503325        	call8	400d0b74 <i2c_hal_master_handle_rx_event>
40080845:	0188      	l32i.n	a8, a1, 0
40080847:	042866        	bnei	a8, 2, 4008084f <i2c_esp32_isr+0x37>
4008084a:	380c      	movi.n	a8, 3
4008084c:	000486        	j	40080862 <i2c_esp32_isr+0x4a>
4008084f:	023866        	bnei	a8, 3, 40080855 <i2c_esp32_isr+0x3d>
40080852:	000086        	j	40080858 <i2c_esp32_isr+0x40>
40080855:	041866        	bnei	a8, 1, 4008085d <i2c_esp32_isr+0x45>
40080858:	580c      	movi.n	a8, 5
4008085a:	000106        	j	40080862 <i2c_esp32_isr+0x4a>
4008085d:	065866        	bnei	a8, 5, 40080867 <i2c_esp32_isr+0x4f>
40080860:	480c      	movi.n	a8, 4
40080862:	0020c0        	memw
40080865:	a289      	s32i.n	a8, a2, 40
40080867:	a28b      	addi.n	a10, a2, 8
40080869:	0108e5        	call8	400818f8 <z_impl_k_sem_give>
4008086c:	f01d      	retw.n
	...

40080870 <i2c_esp32_init>:
40080870:	004136        	entry	a1, 32
40080873:	1238      	l32i.n	a3, a2, 4
40080875:	4248      	l32i.n	a4, a2, 16
40080877:	23a8      	l32i.n	a10, a3, 8
40080879:	005a56        	bnez	a10, 40080882 <i2c_esp32_init+0x12>
4008087c:	a26c      	movi.n	a2, -22
4008087e:	001006        	j	400808c2 <i2c_esp32_init+0x52>
40080881:	238200        	sext	a8, a2, 7
40080884:	381606        	j	4008e8e0 <_iram_end+0xb6a4>
40080887:	ff          	.byte 0xff
40080888:	00d165        	call8	400815a0 <z_impl_device_get_binding>
4008088b:	0e64a2        	s32i	a10, a4, 56
4008088e:	feaa16        	beqz	a10, 4008087c <i2c_esp32_init+0xc>
40080891:	63a8      	l32i.n	a10, a3, 24
40080893:	00d0e5        	call8	400815a0 <z_impl_device_get_binding>
40080896:	f4a9      	s32i.n	a10, a4, 60
40080898:	fe0a16        	beqz	a10, 4008087c <i2c_esp32_init+0xc>
4008089b:	20a220        	or	a10, a2, a2
4008089e:	521f65        	call8	400d2a94 <i2c_esp32_config_pin>
400808a1:	fd7a96        	bltz	a10, 4008087c <i2c_esp32_init+0xc>
400808a4:	a3b8      	l32i.n	a11, a3, 40
400808a6:	13a8      	l32i.n	a10, a3, 4
400808a8:	521ca5        	call8	400d2a74 <clock_control_on>
400808ab:	0e0c      	movi.n	a14, 0
400808ad:	feeac1        	l32r	a12, 40080458 <_init_end+0x58>
400808b0:	c3a8      	l32i.n	a10, a3, 48
400808b2:	02dd      	mov.n	a13, a2
400808b4:	0ebd      	mov.n	a11, a14
400808b6:	51c5a5        	call8	400d2510 <esp_intr_alloc>
400808b9:	d3b8      	l32i.n	a11, a3, 52
400808bb:	02ad      	mov.n	a10, a2
400808bd:	5215e5        	call8	400d2a1c <i2c_esp32_configure>
400808c0:	0a2d      	mov.n	a2, a10
400808c2:	f01d      	retw.n

400808c4 <i2c_hw_fsm_reset>:
400808c4:	00c136        	entry	a1, 96
400808c7:	042232        	l32i	a3, a2, 16
400808ca:	24c1c2        	addi	a12, a1, 36
400808cd:	20c1b2        	addi	a11, a1, 32
400808d0:	03ad      	mov.n	a10, a3
400808d2:	1258      	l32i.n	a5, a2, 4
400808d4:	527aa5        	call8	400d3080 <i2c_hal_get_scl_timing>
400808d7:	1cc1c2        	addi	a12, a1, 28
400808da:	18c1b2        	addi	a11, a1, 24
400808dd:	20a330        	or	a10, a3, a3
400808e0:	5275e5        	call8	400d3040 <i2c_hal_get_start_timing>
400808e3:	14c1c2        	addi	a12, a1, 20
400808e6:	10c1b2        	addi	a11, a1, 16
400808e9:	03ad      	mov.n	a10, a3
400808eb:	527765        	call8	400d3060 <i2c_hal_get_stop_timing>
400808ee:	c1cb      	addi.n	a12, a1, 12
400808f0:	b18b      	addi.n	a11, a1, 8
400808f2:	03ad      	mov.n	a10, a3
400808f4:	5272e5        	call8	400d3024 <i2c_hal_get_sda_timing>
400808f7:	b14b      	addi.n	a11, a1, 4
400808f9:	20a330        	or	a10, a3, a3
400808fc:	5038a5        	call8	400d0c88 <i2c_hal_get_tout>
400808ff:	28c1b2        	addi	a11, a1, 40
40080902:	03ad      	mov.n	a10, a3
40080904:	5266e5        	call8	400d2f74 <i2c_hal_get_filter>
40080907:	1548      	l32i.n	a4, a5, 4
40080909:	a578      	l32i.n	a7, a5, 40
4008090b:	04ad      	mov.n	a10, a4
4008090d:	01b4e5        	call8	4008245c <z_device_is_ready>
40080910:	9a8c      	beqz.n	a10, 4008091d <i2c_hw_fsm_reset+0x59>
40080912:	2468      	l32i.n	a6, a4, 8
40080914:	07bd      	mov.n	a11, a7
40080916:	1668      	l32i.n	a6, a6, 4
40080918:	04ad      	mov.n	a10, a4
4008091a:	0006e0        	callx8	a6
4008091d:	1278      	l32i.n	a7, a2, 4
4008091f:	4248      	l32i.n	a4, a2, 16
40080921:	240762        	l8ui	a6, a7, 36
40080924:	e4a8      	l32i.n	a10, a4, 56
40080926:	140772        	l8ui	a7, a7, 20
40080929:	feccc1        	l32r	a12, 4008045c <_init_end+0x5c>
4008092c:	07bd      	mov.n	a11, a7
4008092e:	52b025        	call8	400d3430 <z_impl_gpio_pin_configure>
40080931:	f4a8      	l32i.n	a10, a4, 60
40080933:	fecbc1        	l32r	a12, 40080460 <_init_end+0x60>
40080936:	06bd      	mov.n	a11, a6
40080938:	52af65        	call8	400d3430 <z_impl_gpio_pin_configure>
4008093b:	e4a8      	l32i.n	a10, a4, 56
4008093d:	0c0c      	movi.n	a12, 0
4008093f:	07bd      	mov.n	a11, a7
40080941:	52b165        	call8	400d3458 <gpio_pin_set>
40080944:	f4a8      	l32i.n	a10, a4, 60
40080946:	1c0c      	movi.n	a12, 1
40080948:	06bd      	mov.n	a11, a6
4008094a:	52b0e5        	call8	400d3458 <gpio_pin_set>
4008094d:	5a0c      	movi.n	a10, 5
4008094f:	fec681        	l32r	a8, 40080468 <_init_end+0x68>
40080952:	0008e0        	callx8	a8
40080955:	180c      	movi.n	a8, 1
40080957:	401600        	ssl	a6
4008095a:	a19800        	sll	a9, a8
4008095d:	c199      	s32i.n	a9, a1, 48
4008095f:	a90c      	movi.n	a9, 10
40080961:	000ac6        	j	40080990 <i2c_hw_fsm_reset+0xcc>
40080964:	0e24a2        	l32i	a10, a4, 56
40080967:	01a0c2        	movi	a12, 1
4008096a:	07bd      	mov.n	a11, a7
4008096c:	e199      	s32i.n	a9, a1, 56
4008096e:	d189      	s32i.n	a8, a1, 52
40080970:	52ae65        	call8	400d3458 <gpio_pin_set>
40080973:	5a0c      	movi.n	a10, 5
40080975:	febc81        	l32r	a8, 40080468 <_init_end+0x68>
40080978:	0008e0        	callx8	a8
4008097b:	d188      	l32i.n	a8, a1, 52
4008097d:	e4a8      	l32i.n	a10, a4, 56
4008097f:	08cd      	mov.n	a12, a8
40080981:	07bd      	mov.n	a11, a7
40080983:	52ad65        	call8	400d3458 <gpio_pin_set>
40080986:	5a0c      	movi.n	a10, 5
40080988:	feb881        	l32r	a8, 40080468 <_init_end+0x68>
4008098b:	0008e0        	callx8	a8
4008098e:	e198      	l32i.n	a9, a1, 56
40080990:	f4a8      	l32i.n	a10, a4, 60
40080992:	4a88      	l32i.n	a8, a10, 16
40080994:	2ab8      	l32i.n	a11, a10, 8
40080996:	1bc8      	l32i.n	a12, a11, 4
40080998:	d189      	s32i.n	a8, a1, 52
4008099a:	e199      	s32i.n	a9, a1, 56
4008099c:	01bd      	mov.n	a11, a1
4008099e:	000ce0        	callx8	a12
400809a1:	d188      	l32i.n	a8, a1, 52
400809a3:	e198      	l32i.n	a9, a1, 56
400809a5:	1adc      	bnez.n	a10, 400809ba <i2c_hw_fsm_reset+0xf6>
400809a7:	08a8      	l32i.n	a10, a8, 0
400809a9:	0188      	l32i.n	a8, a1, 0
400809ab:	3088a0        	xor	a8, a8, a10
400809ae:	c1a8      	l32i.n	a10, a1, 48
400809b0:	1088a0        	and	a8, a8, a10
400809b3:	38cc      	bnez.n	a8, 400809ba <i2c_hw_fsm_reset+0xf6>
400809b5:	990b      	addi.n	a9, a9, -1
400809b7:	fa9956        	bnez	a9, 40080964 <i2c_hw_fsm_reset+0xa0>
400809ba:	f4a8      	l32i.n	a10, a4, 60
400809bc:	06bd      	mov.n	a11, a6
400809be:	0c0c      	movi.n	a12, 0
400809c0:	52a965        	call8	400d3458 <gpio_pin_set>
400809c3:	e4a8      	l32i.n	a10, a4, 56
400809c5:	07bd      	mov.n	a11, a7
400809c7:	1c0c      	movi.n	a12, 1
400809c9:	52a8e5        	call8	400d3458 <gpio_pin_set>
400809cc:	5a0c      	movi.n	a10, 5
400809ce:	fea681        	l32r	a8, 40080468 <_init_end+0x68>
400809d1:	0008e0        	callx8	a8
400809d4:	f4a8      	l32i.n	a10, a4, 60
400809d6:	1c0c      	movi.n	a12, 1
400809d8:	06bd      	mov.n	a11, a6
400809da:	52a7e5        	call8	400d3458 <gpio_pin_set>
400809dd:	02ad      	mov.n	a10, a2
400809df:	520b65        	call8	400d2a94 <i2c_esp32_config_pin>
400809e2:	04ad      	mov.n	a10, a4
400809e4:	526b65        	call8	400d309c <i2c_hal_update_config>
400809e7:	a5b8      	l32i.n	a11, a5, 40
400809e9:	15a8      	l32i.n	a10, a5, 4
400809eb:	5208a5        	call8	400d2a74 <clock_control_on>
400809ee:	05b8      	l32i.n	a11, a5, 0
400809f0:	03ad      	mov.n	a10, a3
400809f2:	5037e5        	call8	400d0d70 <i2c_hal_master_init>
400809f5:	fe9b21        	l32r	a2, 40080464 <_init_end+0x64>
400809f8:	03ad      	mov.n	a10, a3
400809fa:	20b220        	or	a11, a2, a2
400809fd:	525965        	call8	400d2f94 <i2c_hal_disable_intr_mask>
40080a00:	02bd      	mov.n	a11, a2
40080a02:	03ad      	mov.n	a10, a3
40080a04:	525825        	call8	400d2f88 <i2c_hal_clr_intsts_mask>
40080a07:	91c8      	l32i.n	a12, a1, 36
40080a09:	81b8      	l32i.n	a11, a1, 32
40080a0b:	03ad      	mov.n	a10, a3
40080a0d:	501f25        	call8	400d0c00 <i2c_hal_set_scl_timing>
40080a10:	71c8      	l32i.n	a12, a1, 28
40080a12:	61b8      	l32i.n	a11, a1, 24
40080a14:	03ad      	mov.n	a10, a3
40080a16:	5259a5        	call8	400d2fb0 <i2c_hal_set_start_timing>
40080a19:	51c8      	l32i.n	a12, a1, 20
40080a1b:	41b8      	l32i.n	a11, a1, 16
40080a1d:	03ad      	mov.n	a10, a3
40080a1f:	502325        	call8	400d0c50 <i2c_hal_set_stop_timing>
40080a22:	31c8      	l32i.n	a12, a1, 12
40080a24:	21b8      	l32i.n	a11, a1, 8
40080a26:	03ad      	mov.n	a10, a3
40080a28:	525ba5        	call8	400d2fe4 <i2c_hal_set_sda_timing>
40080a2b:	11b8      	l32i.n	a11, a1, 4
40080a2d:	20a330        	or	a10, a3, a3
40080a30:	501fe5        	call8	400d0c30 <i2c_hal_set_tout>
40080a33:	2801b2        	l8ui	a11, a1, 40
40080a36:	03ad      	mov.n	a10, a3
40080a38:	524c65        	call8	400d2f00 <i2c_hal_set_filter>
40080a3b:	03ad      	mov.n	a10, a3
40080a3d:	5265e5        	call8	400d309c <i2c_hal_update_config>
40080a40:	f01d      	retw.n
	...

40080a44 <i2c_esp32_transmit>:
40080a44:	004136        	entry	a1, 32
40080a47:	042232        	l32i	a3, a2, 16
40080a4a:	20a330        	or	a10, a3, a3
40080a4d:	5264e5        	call8	400d309c <i2c_hal_update_config>
40080a50:	0398      	l32i.n	a9, a3, 0
40080a52:	0a2c      	movi.n	a10, 32
40080a54:	0020c0        	memw
40080a57:	1988      	l32i.n	a8, a9, 4
40080a59:	2088a0        	or	a8, a8, a10
40080a5c:	0020c0        	memw
40080a5f:	1989      	s32i.n	a8, a9, 4
40080a61:	fe82c1        	l32r	a12, 4008046c <_init_end+0x6c>
40080a64:	fe83d1        	l32r	a13, 40080470 <_init_end+0x70>
40080a67:	a38b      	addi.n	a10, a3, 8
40080a69:	00eca5        	call8	40081934 <z_impl_k_sem_take>
40080a6c:	ca8c      	beqz.n	a10, 40080a7c <i2c_esp32_transmit+0x38>
40080a6e:	02ad      	mov.n	a10, a2
40080a70:	ffe525        	call8	400808c4 <i2c_hw_fsm_reset>
40080a73:	8cafa2        	movi	a10, -116
40080a76:	0005c6        	j	40080a91 <i2c_esp32_transmit+0x4d>
40080a79:	000000        	ill
40080a7c:	0020c0        	memw
40080a7f:	a388      	l32i.n	a8, a3, 40
40080a81:	e95826        	beqi	a8, 5, 40080a6e <i2c_esp32_transmit+0x2a>
40080a84:	0020c0        	memw
40080a87:	a338      	l32i.n	a3, a3, 40
40080a89:	227c      	movi.n	a2, -14
40080a8b:	fdc332        	addi	a3, a3, -3
40080a8e:	83a230        	moveqz	a10, a2, a3
40080a91:	0a2d      	mov.n	a2, a10
40080a93:	f01d      	retw.n
40080a95:	000000        	ill

40080a98 <i2c_esp32_transfer>:
40080a98:	00a136        	entry	a1, 80
40080a9b:	744040        	extui	a4, a4, 0, 8
40080a9e:	0b0c      	movi.n	a11, 0
40080aa0:	036d      	mov.n	a6, a3
40080aa2:	f45050        	extui	a5, a5, 0, 16
40080aa5:	0294b7        	bne	a4, a11, 40080aab <i2c_esp32_transfer+0x13>
40080aa8:	00ae86        	j	40080d66 <i2c_esp32_transfer+0x2ce>
40080aab:	4238      	l32i.n	a3, a2, 16
40080aad:	470c      	movi.n	a7, 4
40080aaf:	4139      	s32i.n	a3, a1, 16
40080ab1:	080632        	l8ui	a3, a6, 8
40080ab4:	190c      	movi.n	a9, 1
40080ab6:	203370        	or	a3, a3, a7
40080ab9:	084632        	s8i	a3, a6, 8
40080abc:	2b0c      	movi.n	a11, 2
40080abe:	063d      	mov.n	a3, a6
40080ac0:	07ad      	mov.n	a10, a7
40080ac2:	000906        	j	40080aea <i2c_esp32_transfer+0x52>
40080ac5:	080372        	l8ui	a7, a3, 8
40080ac8:	14a947        	bge	a9, a4, 40080ae0 <i2c_esp32_transfer+0x48>
40080acb:	1403c2        	l8ui	a12, a3, 20
40080ace:	30dc70        	xor	a13, a12, a7
40080ad1:	056d07        	bbci	a13, 0, 40080ada <i2c_esp32_transfer+0x42>
40080ad4:	028ca7        	bany	a12, a10, 40080ada <i2c_esp32_transfer+0x42>
40080ad7:	009386        	j	40080d29 <i2c_esp32_transfer+0x291>
40080ada:	0807b7        	bnone	a7, a11, 40080ae6 <i2c_esp32_transfer+0x4e>
40080add:	009206        	j	40080d29 <i2c_esp32_transfer+0x291>
40080ae0:	2077b0        	or	a7, a7, a11
40080ae3:	084372        	s8i	a7, a3, 8
40080ae6:	33cb      	addi.n	a3, a3, 12
40080ae8:	991b      	addi.n	a9, a9, 1
40080aea:	d7a497        	bge	a4, a9, 40080ac5 <i2c_esp32_transfer+0x2d>
40080aed:	008f86        	j	40080d2f <i2c_esp32_transfer+0x297>
40080af0:	4138      	l32i.n	a3, a1, 16
40080af2:	0020c0        	memw
40080af5:	a358      	l32i.n	a5, a3, 40
40080af7:	0a5566        	bnei	a5, 5, 40080b05 <i2c_esp32_transfer+0x6d>
40080afa:	02ad      	mov.n	a10, a2
40080afc:	ffdc65        	call8	400808c4 <i2c_hw_fsm_reset>
40080aff:	0002c6        	j	40080b0e <i2c_esp32_transfer+0x76>
40080b02:	000000        	ill
40080b05:	0421a2        	l32i	a10, a1, 16
40080b08:	5250a5        	call8	400d3014 <i2c_hal_is_bus_busy>
40080b0b:	feba56        	bnez	a10, 40080afa <i2c_esp32_transfer+0x62>
40080b0e:	042252        	l32i	a5, a2, 16
40080b11:	05ad      	mov.n	a10, a5
40080b13:	5009e5        	call8	400d0bb0 <i2c_hal_txfifo_rst>
40080b16:	05ad      	mov.n	a10, a5
40080b18:	500be5        	call8	400d0bd8 <i2c_hal_rxfifo_rst>
40080b1b:	fe52b1        	l32r	a11, 40080464 <_init_end+0x64>
40080b1e:	41a8      	l32i.n	a10, a1, 16
40080b20:	524725        	call8	400d2f94 <i2c_hal_disable_intr_mask>
40080b23:	41a8      	l32i.n	a10, a1, 16
40080b25:	fe4fb1        	l32r	a11, 40080464 <_init_end+0x64>
40080b28:	5245e5        	call8	400d2f88 <i2c_hal_clr_intsts_mask>
40080b2b:	0806a2        	l8ui	a10, a6, 8
40080b2e:	4258      	l32i.n	a5, a2, 16
40080b30:	0490a0        	extui	a9, a10, 0, 1
40080b33:	0f5916        	beqz	a9, 40080c2c <i2c_esp32_transfer+0x194>
40080b36:	070c      	movi.n	a7, 0
40080b38:	c579      	s32i.n	a7, a5, 48
40080b3a:	0020c0        	memw
40080b3d:	a579      	s32i.n	a7, a5, 40
40080b3f:	066a27        	bbci	a10, 2, 40080b49 <i2c_esp32_transfer+0xb1>
40080b42:	71b8      	l32i.n	a11, a1, 28
40080b44:	02ad      	mov.n	a10, a2
40080b46:	ffc725        	call8	400807b8 <i2c_esp32_write_addr>
40080b49:	132c      	movi.n	a3, 33
40080b4b:	003546        	j	40080c24 <i2c_esp32_transfer+0x18c>
40080b4e:	300000        	xor	a0, a0, a0
40080b51:	63db      	addi.n	a6, a3, 13
40080b53:	74d0d0        	extui	a13, a13, 0, 8
40080b56:	9d0b      	addi.n	a9, a13, -1
40080b58:	749090        	extui	a9, a9, 0, 8
40080b5b:	c0bb90        	sub	a11, a11, a9
40080b5e:	16b9      	s32i.n	a11, a6, 4
40080b60:	05c8      	l32i.n	a12, a5, 0
40080b62:	799c      	beqz.n	a9, 40080b7d <i2c_esp32_transfer+0xe5>
40080b64:	c5a8      	l32i.n	a10, a5, 48
40080b66:	fa1b      	addi.n	a15, a10, 1
40080b68:	c5f9      	s32i.n	a15, a5, 48
40080b6a:	14caa2        	addi	a10, a10, 20
40080b6d:	fe42f1        	l32r	a15, 40080478 <_init_end+0x78>
40080b70:	11aae0        	slli	a10, a10, 2
40080b73:	20f9f0        	or	a15, a9, a15
40080b76:	acaa      	add.n	a10, a12, a10
40080b78:	0020c0        	memw
40080b7b:	2af9      	s32i.n	a15, a10, 8
40080b7d:	1f1b66        	bnei	a11, 1, 40080ba0 <i2c_esp32_transfer+0x108>
40080b80:	c598      	l32i.n	a9, a5, 48
40080b82:	0a0c      	movi.n	a10, 0
40080b84:	16a9      	s32i.n	a10, a6, 4
40080b86:	a91b      	addi.n	a10, a9, 1
40080b88:	14c992        	addi	a9, a9, 20
40080b8b:	c5a9      	s32i.n	a10, a5, 48
40080b8d:	1199e0        	slli	a9, a9, 2
40080b90:	fe3ba1        	l32r	a10, 4008047c <_init_end+0x7c>
40080b93:	9c9a      	add.n	a9, a12, a9
40080b95:	0020c0        	memw
40080b98:	29a9      	s32i.n	a10, a9, 8
40080b9a:	0d9d      	mov.n	a9, a13
40080b9c:	0000c6        	j	40080ba3 <i2c_esp32_transfer+0x10b>
40080b9f:	7b5600        	ule.s	b5, f6, f0
40080ba2:	25a201        	l32r	a0, 4004a22c <__umoddi3+0x3cfac>
40080ba5:	b20c      	movi.n	a2, 11
40080ba7:	01ca      	add.n	a0, a1, a12
40080ba9:	14caa2        	addi	a10, a10, 20
40080bac:	c5b9      	s32i.n	a11, a5, 48
40080bae:	11aae0        	slli	a10, a10, 2
40080bb1:	fe33b1        	l32r	a11, 40080480 <_init_end+0x80>
40080bb4:	acaa      	add.n	a10, a12, a10
40080bb6:	0020c0        	memw
40080bb9:	2ab9      	s32i.n	a11, a10, 8
40080bbb:	c5a8      	l32i.n	a10, a5, 48
40080bbd:	ba1b      	addi.n	a11, a10, 1
40080bbf:	c5b9      	s32i.n	a11, a5, 48
40080bc1:	fe2cb1        	l32r	a11, 40080474 <_init_end+0x74>
40080bc4:	14caa2        	addi	a10, a10, 20
40080bc7:	1077b0        	and	a7, a7, a11
40080bca:	fe2eb1        	l32r	a11, 40080484 <_init_end+0x84>
40080bcd:	11aae0        	slli	a10, a10, 2
40080bd0:	2077b0        	or	a7, a7, a11
40080bd3:	acaa      	add.n	a10, a12, a10
40080bd5:	0020c0        	memw
40080bd8:	2a79      	s32i.n	a7, a10, 8
40080bda:	fa7c      	movi.n	a10, -1
40080bdc:	0020c0        	memw
40080bdf:	9ca9      	s32i.n	a10, a12, 36
40080be1:	a8a1a2        	movi	a10, 0x1a8
40080be4:	0020c0        	memw
40080be7:	aca9      	s32i.n	a10, a12, 40
40080be9:	02ad      	mov.n	a10, a2
40080beb:	8199      	s32i.n	a9, a1, 32
40080bed:	ffe565        	call8	40080a44 <i2c_esp32_transmit>
40080bf0:	0abd      	mov.n	a11, a10
40080bf2:	8198      	l32i.n	a9, a1, 32
40080bf4:	125a96        	bltz	a10, 40080d1d <i2c_esp32_transfer+0x285>
40080bf7:	05b8      	l32i.n	a11, a5, 0
40080bf9:	06c8      	l32i.n	a12, a6, 0
40080bfb:	0a0c      	movi.n	a10, 0
40080bfd:	000586        	j	40080c17 <i2c_esp32_transfer+0x17f>
40080c00:	0020c0        	memw
40080c03:	7bd8      	l32i.n	a13, a11, 28
40080c05:	0020c0        	memw
40080c08:	01d9      	s32i.n	a13, a1, 0
40080c0a:	0020c0        	memw
40080c0d:	0001f2        	l8ui	a15, a1, 0
40080c10:	dcaa      	add.n	a13, a12, a10
40080c12:	004df2        	s8i	a15, a13, 0
40080c15:	aa1b      	addi.n	a10, a10, 1
40080c17:	e52a97        	blt	a10, a9, 40080c00 <i2c_esp32_transfer+0x168>
40080c1a:	06a8      	l32i.n	a10, a6, 0
40080c1c:	9a9a      	add.n	a9, a10, a9
40080c1e:	0699      	s32i.n	a9, a6, 0
40080c20:	090c      	movi.n	a9, 0
40080c22:	c599      	s32i.n	a9, a5, 48
40080c24:	16b8      	l32i.n	a11, a6, 4
40080c26:	f26b56        	bnez	a11, 40080b50 <i2c_esp32_transfer+0xb8>
40080c29:	003906        	j	40080d11 <i2c_esp32_transfer+0x279>
40080c2c:	01a072        	movi	a7, 1
40080c2f:	0020c0        	memw
40080c32:	0a6572        	s32i	a7, a5, 40
40080c35:	0c6592        	s32i	a9, a5, 48
40080c38:	093d      	mov.n	a3, a9
40080c3a:	097d      	mov.n	a7, a9
40080c3c:	066a27        	bbci	a10, 2, 40080c46 <i2c_esp32_transfer+0x1ae>
40080c3f:	61b8      	l32i.n	a11, a1, 24
40080c41:	02ad      	mov.n	a10, a2
40080c43:	ffb765        	call8	400807b8 <i2c_esp32_write_addr>
40080c46:	0d2c      	movi.n	a13, 32
40080c48:	16a8      	l32i.n	a10, a6, 4
40080c4a:	06b8      	l32i.n	a11, a6, 0
40080c4c:	63ead0        	minu	a14, a10, a13
40080c4f:	cbea      	add.n	a12, a11, a14
40080c51:	06c9      	s32i.n	a12, a6, 0
40080c53:	c0cae0        	sub	a12, a10, a14
40080c56:	16c9      	s32i.n	a12, a6, 4
40080c58:	07aa16        	beqz	a10, 40080cd6 <i2c_esp32_transfer+0x23e>
40080c5b:	05a8      	l32i.n	a10, a5, 0
40080c5d:	0ecd      	mov.n	a12, a14
40080c5f:	91d9      	s32i.n	a13, a1, 36
40080c61:	81e9      	s32i.n	a14, a1, 32
40080c63:	51d925        	call8	400d29f4 <i2c_ll_write_txfifo>
40080c66:	81e8      	l32i.n	a14, a1, 32
40080c68:	00afa2        	movi	a10, 0xffffff00
40080c6b:	1093a0        	and	a9, a3, a10
40080c6e:	74e0e0        	extui	a14, a14, 0, 8
40080c71:	2039e0        	or	a3, a9, a14
40080c74:	74a830        	extui	a10, a3, 8, 8
40080c77:	c6afe2        	movi	a14, -58
40080c7a:	10aae0        	and	a10, a10, a14
40080c7d:	9e0c      	movi.n	a14, 9
40080c7f:	20aae0        	or	a10, a10, a14
40080c82:	fe01e1        	l32r	a14, 40080488 <_init_end+0x88>
40080c85:	c5b8      	l32i.n	a11, a5, 48
40080c87:	74a0a0        	extui	a10, a10, 0, 8
40080c8a:	05c8      	l32i.n	a12, a5, 0
40080c8c:	11aa80        	slli	a10, a10, 8
40080c8f:	1093e0        	and	a9, a3, a14
40080c92:	2039a0        	or	a3, a9, a10
40080c95:	11abe0        	slli	a10, a11, 2
40080c98:	acaa      	add.n	a10, a12, a10
40080c9a:	0020c0        	memw
40080c9d:	166a32        	s32i	a3, a10, 88
40080ca0:	bb2b      	addi.n	a11, a11, 2
40080ca2:	c5b9      	s32i.n	a11, a5, 48
40080ca4:	fdf4b1        	l32r	a11, 40080474 <_init_end+0x74>
40080ca7:	1077b0        	and	a7, a7, a11
40080caa:	fdf6b1        	l32r	a11, 40080484 <_init_end+0x84>
40080cad:	2077b0        	or	a7, a7, a11
40080cb0:	0020c0        	memw
40080cb3:	176a72        	s32i	a7, a10, 92
40080cb6:	fa7c      	movi.n	a10, -1
40080cb8:	0020c0        	memw
40080cbb:	9ca9      	s32i.n	a10, a12, 36
40080cbd:	a8a5a2        	movi	a10, 0x5a8
40080cc0:	0020c0        	memw
40080cc3:	aca9      	s32i.n	a10, a12, 40
40080cc5:	02ad      	mov.n	a10, a2
40080cc7:	ffd7e5        	call8	40080a44 <i2c_esp32_transmit>
40080cca:	0abd      	mov.n	a11, a10
40080ccc:	91d8      	l32i.n	a13, a1, 36
40080cce:	04ba96        	bltz	a10, 40080d1d <i2c_esp32_transfer+0x285>
40080cd1:	0a0c      	movi.n	a10, 0
40080cd3:	0c65a2        	s32i	a10, a5, 48
40080cd6:	0126a2        	l32i	a10, a6, 4
40080cd9:	f6ba56        	bnez	a10, 40080c48 <i2c_esp32_transfer+0x1b0>
40080cdc:	080672        	l8ui	a7, a6, 8
40080cdf:	2e6717        	bbci	a7, 1, 40080d11 <i2c_esp32_transfer+0x279>
40080ce2:	002572        	l32i	a7, a5, 0
40080ce5:	c558      	l32i.n	a5, a5, 48
40080ce7:	fde691        	l32r	a9, 40080480 <_init_end+0x80>
40080cea:	14c552        	addi	a5, a5, 20
40080ced:	1155e0        	slli	a5, a5, 2
40080cf0:	575a      	add.n	a5, a7, a5
40080cf2:	0020c0        	memw
40080cf5:	2599      	s32i.n	a9, a5, 8
40080cf7:	f57c      	movi.n	a5, -1
40080cf9:	0020c0        	memw
40080cfc:	9759      	s32i.n	a5, a7, 36
40080cfe:	a8a552        	movi	a5, 0x5a8
40080d01:	0020c0        	memw
40080d04:	a759      	s32i.n	a5, a7, 40
40080d06:	02ad      	mov.n	a10, a2
40080d08:	ffd3a5        	call8	40080a44 <i2c_esp32_transmit>
40080d0b:	20baa0        	or	a11, a10, a10
40080d0e:	00ba96        	bltz	a10, 40080d1d <i2c_esp32_transfer+0x285>
40080d11:	440b      	addi.n	a4, a4, -1
40080d13:	744040        	extui	a4, a4, 0, 8
40080d16:	66cb      	addi.n	a6, a6, 12
40080d18:	dd4456        	bnez	a4, 40080af0 <i2c_esp32_transfer+0x58>
40080d1b:	04bd      	mov.n	a11, a4
40080d1d:	51a8      	l32i.n	a10, a1, 20
40080d1f:	81b9      	s32i.n	a11, a1, 32
40080d21:	00bd65        	call8	400818f8 <z_impl_k_sem_give>
40080d24:	81b8      	l32i.n	a11, a1, 32
40080d26:	000f06        	j	40080d66 <i2c_esp32_transfer+0x2ce>
40080d29:	ab6c      	movi.n	a11, -22
40080d2b:	000dc6        	j	40080d66 <i2c_esp32_transfer+0x2ce>
40080d2e:	213200        	srai	a3, a0, 2
40080d31:	c33204        	lsi	f0, a2, 0x30c
40080d34:	3218      	l32i.n	a1, a2, 12
40080d36:	c10561        	l32r	a6, 4007114c <__udivmoddi4+0xc558>
40080d39:	d1fdd5        	call4	40052d18 <__umoddi3+0x45a98>
40080d3c:	a2fdd4        	lsi	f13, a13, 0x288
40080d3f:	250521        	l32r	a2, 4004a154 <__umoddi3+0x3ced4>
40080d42:	bf          	.byte 0xbf
40080d43:	413800        	srli	a3, a0, 8
40080d46:	ffa3a2        	movi	a10, 0x3ff
40080d49:	b378      	l32i.n	a7, a3, 44
40080d4b:	7fa092        	movi	a9, 127
40080d4e:	047070        	extui	a7, a7, 0, 1
40080d51:	939a70        	movnez	a9, a10, a7
40080d54:	107950        	and	a7, a9, a5
40080d57:	1137f0        	slli	a3, a7, 1
40080d5a:	150c      	movi.n	a5, 1
40080d5c:	205350        	or	a5, a3, a5
40080d5f:	6139      	s32i.n	a3, a1, 24
40080d61:	7159      	s32i.n	a5, a1, 28
40080d63:	ff6246        	j	40080af0 <i2c_esp32_transfer+0x58>
40080d66:	0b2d      	mov.n	a2, a11
40080d68:	f01d      	retw.n
	...

40080d6c <gpio_esp32_fire_callbacks>:
40080d6c:	006136        	entry	a1, 48
40080d6f:	1248      	l32i.n	a4, a2, 4
40080d71:	4298      	l32i.n	a9, a2, 16
40080d73:	03f530        	rsr.misc1	a3
40080d76:	1488      	l32i.n	a8, a4, 4
40080d78:	3448      	l32i.n	a4, a4, 12
40080d7a:	140332        	l8ui	a3, a3, 20
40080d7d:	b4dc      	bnez.n	a4, 40080d9c <gpio_esp32_fire_callbacks+0x30>
40080d7f:	93cc      	bnez.n	a3, 40080d8c <gpio_esp32_fire_callbacks+0x20>
40080d81:	0020c0        	memw
40080d84:	1a2832        	l32i	a3, a8, 104
40080d87:	0001c6        	j	40080d92 <gpio_esp32_fire_callbacks+0x26>
40080d8a:	c00000        	sub	a0, a0, a0
40080d8d:	320020        	orbc	b0, b0, b2
40080d90:	1828      	l32i.n	a2, a8, 4
40080d92:	0020c0        	memw
40080d95:	136832        	s32i	a3, a8, 76
40080d98:	0012c6        	j	40080de7 <gpio_esp32_fire_callbacks+0x7b>
40080d9b:	43dc00        	min	a13, a12, a0
40080d9e:	0020c0        	memw
40080da1:	1f2832        	l32i	a3, a8, 124
40080da4:	0020c0        	memw
40080da7:	1139      	s32i.n	a3, a1, 4
40080da9:	0020c0        	memw
40080dac:	040132        	l8ui	a3, a1, 4
40080daf:	000486        	j	40080dc5 <gpio_esp32_fire_callbacks+0x59>
40080db2:	c00000        	sub	a0, a0, a0
40080db5:	320020        	orbc	b0, b0, b2
40080db8:	1d28      	l32i.n	a2, a13, 4
40080dba:	0020c0        	memw
40080dbd:	0139      	s32i.n	a3, a1, 0
40080dbf:	0020c0        	memw
40080dc2:	000132        	l8ui	a3, a1, 0
40080dc5:	0020c0        	memw
40080dc8:	162842        	l32i	a4, a8, 88
40080dcb:	743030        	extui	a3, a3, 0, 8
40080dce:	0020c0        	memw
40080dd1:	2149      	s32i.n	a4, a1, 8
40080dd3:	744030        	extui	a4, a3, 0, 8
40080dd6:	0020c0        	memw
40080dd9:	084142        	s8i	a4, a1, 8
40080ddc:	0020c0        	memw
40080ddf:	2148      	l32i.n	a4, a1, 8
40080de1:	0020c0        	memw
40080de4:	166842        	s32i	a4, a8, 88
40080de7:	b39c      	beqz.n	a3, 40080e06 <gpio_esp32_fire_callbacks+0x9a>
40080de9:	29b8      	l32i.n	a11, a9, 8
40080deb:	7b9c      	beqz.n	a11, 40080e06 <gpio_esp32_fire_callbacks+0x9a>
40080ded:	0b48      	l32i.n	a4, a11, 0
40080def:	2bc8      	l32i.n	a12, a11, 8
40080df1:	10c3c0        	and	a12, a3, a12
40080df4:	5c8c      	beqz.n	a12, 40080dfd <gpio_esp32_fire_callbacks+0x91>
40080df6:	1b88      	l32i.n	a8, a11, 4
40080df8:	02ad      	mov.n	a10, a2
40080dfa:	0008e0        	callx8	a8
40080dfd:	548c      	beqz.n	a4, 40080e06 <gpio_esp32_fire_callbacks+0x9a>
40080dff:	04bd      	mov.n	a11, a4
40080e01:	0448      	l32i.n	a4, a4, 0
40080e03:	fffa06        	j	40080def <gpio_esp32_fire_callbacks+0x83>
40080e06:	f01d      	retw.n

40080e08 <_Level1Vector>:
40080e08:	c0c112        	addi	a1, a1, -64
40080e0b:	8109      	s32i.n	a0, a1, 32
40080e0d:	a129      	s32i.n	a2, a1, 40
40080e0f:	b139      	s32i.n	a3, a1, 44
40080e11:	03e600        	rsr.ps	a0
40080e14:	026c      	movi.n	a2, -32
40080e16:	100020        	and	a0, a0, a2
40080e19:	6109      	s32i.n	a0, a1, 24
40080e1b:	03b100        	rsr.epc1	a0
40080e1e:	7109      	s32i.n	a0, a1, 28
40080e20:	000206        	j	40080e2c <_after_imms1>
	...

40080e24 <_handle_excint_imm1>:
40080e24:	0f98      	l32i.n	a9, a15, 0
40080e26:	4008      	l32i.n	a0, a0, 16

40080e28 <_c_handler_imm1>:
40080e28:	0812c0        	lsx	f1, a2, a12
40080e2b:	40          	.byte 0x40

40080e2c <_after_imms1>:
40080e2c:	ffff21        	l32r	a2, 40080e28 <_c_handler_imm1>
40080e2f:	fffd01        	l32r	a0, 40080e24 <_handle_excint_imm1>
40080e32:	0000a0        	jx	a0
40080e35:	000000        	ill

40080e38 <arch_cpu_idle>:
40080e38:	004136        	entry	a1, 32
40080e3b:	520225        	call8	400d2e5c <sys_trace_idle>
40080e3e:	007000        	waiti	0
40080e41:	f01d      	retw.n
	...

40080e44 <z_xtensa_fatal_error>:
40080e44:	004136        	entry	a1, 32
40080e47:	338c      	beqz.n	a3, 40080e4e <z_xtensa_fatal_error+0xa>
40080e49:	03ad      	mov.n	a10, a3
40080e4b:	007065        	call8	40081550 <z_xtensa_dump_stack>
40080e4e:	03bd      	mov.n	a11, a3
40080e50:	64a0a2        	movi	a10, 100
40080e53:	006225        	call8	40081474 <z_xtensa_backtrace_print>
40080e56:	20b330        	or	a11, a3, a3
40080e59:	02ad      	mov.n	a10, a2
40080e5b:	007b25        	call8	4008160c <z_fatal_error>
40080e5e:	f01d      	retw.n

40080e60 <xtensa_spill_reg_windows>:
40080e60:	10ccc0        	and	a12, a12, a12
40080e63:	408030        	rotw	3
40080e66:	10ccc0        	and	a12, a12, a12
40080e69:	408030        	rotw	3
40080e6c:	10ccc0        	and	a12, a12, a12
40080e6f:	408030        	rotw	3
40080e72:	10ccc0        	and	a12, a12, a12
40080e75:	408030        	rotw	3
40080e78:	10ccc0        	and	a12, a12, a12
40080e7b:	408040        	rotw	4
40080e7e:	f00d      	ret.n

40080e80 <xtensa_save_high_regs>:
40080e80:	034920        	rsr.windowstart	a2
40080e83:	113200        	slli	a3, a2, 16
40080e86:	202230        	or	a2, a2, a3
40080e89:	034830        	rsr.windowbase	a3
40080e8c:	400300        	ssr	a3
40080e8f:	912020        	srl	a2, a2
40080e92:	013d      	mov.n	a3, a1
40080e94:	28e217        	bbsi	a2, 1, 40080ec0 <_high_gpr_spill_done>
40080e97:	f0c112        	addi	a1, a1, -16
40080e9a:	0149      	s32i.n	a4, a1, 0
40080e9c:	1159      	s32i.n	a5, a1, 4
40080e9e:	2169      	s32i.n	a6, a1, 8
40080ea0:	3179      	s32i.n	a7, a1, 12
40080ea2:	1ae227        	bbsi	a2, 2, 40080ec0 <_high_gpr_spill_done>
40080ea5:	f0c112        	addi	a1, a1, -16
40080ea8:	0189      	s32i.n	a8, a1, 0
40080eaa:	1199      	s32i.n	a9, a1, 4
40080eac:	21a9      	s32i.n	a10, a1, 8
40080eae:	31b9      	s32i.n	a11, a1, 12
40080eb0:	0ce237        	bbsi	a2, 3, 40080ec0 <_high_gpr_spill_done>
40080eb3:	f0c112        	addi	a1, a1, -16
40080eb6:	01c9      	s32i.n	a12, a1, 0
40080eb8:	11d9      	s32i.n	a13, a1, 4
40080eba:	0261e2        	s32i	a14, a1, 8
40080ebd:	0361f2        	s32i	a15, a1, 12

40080ec0 <_high_gpr_spill_done>:
40080ec0:	fcc112        	addi	a1, a1, -4
40080ec3:	0139      	s32i.n	a3, a1, 0
40080ec5:	f00d      	ret.n
	...

40080ec8 <xtensa_restore_high_regs>:
40080ec8:	0128      	l32i.n	a2, a1, 0
40080eca:	114b      	addi.n	a1, a1, 4
40080ecc:	023d      	mov.n	a3, a2
40080ece:	261127        	beq	a1, a2, 40080ef8 <_high_restore_done>
40080ed1:	f0c222        	addi	a2, a2, -16
40080ed4:	0248      	l32i.n	a4, a2, 0
40080ed6:	1258      	l32i.n	a5, a2, 4
40080ed8:	2268      	l32i.n	a6, a2, 8
40080eda:	3278      	l32i.n	a7, a2, 12
40080edc:	181127        	beq	a1, a2, 40080ef8 <_high_restore_done>
40080edf:	f0c222        	addi	a2, a2, -16
40080ee2:	0288      	l32i.n	a8, a2, 0
40080ee4:	1298      	l32i.n	a9, a2, 4
40080ee6:	22a8      	l32i.n	a10, a2, 8
40080ee8:	32b8      	l32i.n	a11, a2, 12
40080eea:	0a1127        	beq	a1, a2, 40080ef8 <_high_restore_done>
40080eed:	f0c222        	addi	a2, a2, -16
40080ef0:	02c8      	l32i.n	a12, a2, 0
40080ef2:	12d8      	l32i.n	a13, a2, 4
40080ef4:	22e8      	l32i.n	a14, a2, 8
40080ef6:	32f8      	l32i.n	a15, a2, 12

40080ef8 <_high_restore_done>:
40080ef8:	031d      	mov.n	a1, a3
40080efa:	f00d      	ret.n
	...

40080efd <_restore_context>:
40080efd:	fffc85        	call0	40080ec8 <xtensa_restore_high_regs>
40080f00:	7108      	l32i.n	a0, a1, 28
40080f02:	13b500        	wsr.epc5	a0
40080f05:	6108      	l32i.n	a0, a1, 24
40080f07:	13c500        	wsr.eps5	a0
40080f0a:	5108      	l32i.n	a0, a1, 20
40080f0c:	130300        	wsr.sar	a0
40080f0f:	4108      	l32i.n	a0, a1, 16
40080f11:	130000        	wsr.lbeg	a0
40080f14:	3108      	l32i.n	a0, a1, 12
40080f16:	130100        	wsr.lend	a0
40080f19:	2108      	l32i.n	a0, a1, 8
40080f1b:	130200        	wsr.lcount	a0
40080f1e:	0108      	l32i.n	a0, a1, 0
40080f20:	130c00        	wsr.scompare1	a0
40080f23:	002010        	rsync
40080f26:	8108      	l32i.n	a0, a1, 32
40080f28:	a128      	l32i.n	a2, a1, 40
40080f2a:	b138      	l32i.n	a3, a1, 44
40080f2c:	40c112        	addi	a1, a1, 64
40080f2f:	003510        	rfi	5
	...

40080f34 <xtensa_switch>:
40080f34:	002136        	entry	a1, 16
40080f37:	10ccc0        	and	a12, a12, a12
40080f3a:	408030        	rotw	3
40080f3d:	10ccc0        	and	a12, a12, a12
40080f40:	408030        	rotw	3
40080f43:	10ccc0        	and	a12, a12, a12
40080f46:	408030        	rotw	3
40080f49:	10ccc0        	and	a12, a12, a12
40080f4c:	408030        	rotw	3
40080f4f:	10ccc0        	and	a12, a12, a12
40080f52:	408040        	rotw	4
40080f55:	c0c112        	addi	a1, a1, -64
40080f58:	8109      	s32i.n	a0, a1, 32
40080f5a:	a129      	s32i.n	a2, a1, 40
40080f5c:	b139      	s32i.n	a3, a1, 44
40080f5e:	030300        	rsr.sar	a0
40080f61:	5109      	s32i.n	a0, a1, 20
40080f63:	030000        	rsr.lbeg	a0
40080f66:	4109      	s32i.n	a0, a1, 16
40080f68:	030100        	rsr.lend	a0
40080f6b:	3109      	s32i.n	a0, a1, 12
40080f6d:	030200        	rsr.lcount	a0
40080f70:	2109      	s32i.n	a0, a1, 8
40080f72:	03e800        	rsr.exccause	a0
40080f75:	1109      	s32i.n	a0, a1, 4
40080f77:	030c00        	rsr.scompare1	a0
40080f7a:	0109      	s32i.n	a0, a1, 0
40080f7c:	03e600        	rsr.ps	a0
40080f7f:	6109      	s32i.n	a0, a1, 24
40080f81:	fd4301        	l32r	a0, 40080490 <_init_end+0x90>
40080f84:	7109      	s32i.n	a0, a1, 28
40080f86:	ffef85        	call0	40080e80 <xtensa_save_high_regs>
40080f89:	0128      	l32i.n	a2, a1, 0
40080f8b:	b238      	l32i.n	a3, a2, 44
40080f8d:	0319      	s32i.n	a1, a3, 0
40080f8f:	a218      	l32i.n	a1, a2, 40
40080f91:	ffda06        	j	40080efd <_restore_context>

40080f94 <_switch_restore_pc>:
40080f94:	f01d      	retw.n
	...

40080f98 <_handle_excint>:
40080f98:	9129      	s32i.n	a2, a1, 36
40080f9a:	030300        	rsr.sar	a0
40080f9d:	5109      	s32i.n	a0, a1, 20
40080f9f:	030000        	rsr.lbeg	a0
40080fa2:	4109      	s32i.n	a0, a1, 16
40080fa4:	030100        	rsr.lend	a0
40080fa7:	3109      	s32i.n	a0, a1, 12
40080fa9:	030200        	rsr.lcount	a0
40080fac:	026102        	s32i	a0, a1, 8
40080faf:	03e800        	rsr.exccause	a0
40080fb2:	016102        	s32i	a0, a1, 4
40080fb5:	030c00        	rsr.scompare1	a0
40080fb8:	0109      	s32i.n	a0, a1, 0
40080fba:	ffec45        	call0	40080e80 <xtensa_save_high_regs>
40080fbd:	0128      	l32i.n	a2, a1, 0
40080fbf:	9228      	l32i.n	a2, a2, 36
40080fc1:	03e600        	rsr.ps	a0
40080fc4:	f30c      	movi.n	a3, 15
40080fc6:	100030        	and	a0, a0, a3
40080fc9:	00b056        	bnez	a0, 40080fd8 <_not_l1>
40080fcc:	03e600        	rsr.ps	a0
40080fcf:	01a032        	movi	a3, 1
40080fd2:	200030        	or	a0, a0, a3
40080fd5:	13e600        	wsr.ps	a0

40080fd8 <_not_l1>:
40080fd8:	03e600        	rsr.ps	a0
40080fdb:	f36c      	movi.n	a3, -17
40080fdd:	100030        	and	a0, a0, a3
40080fe0:	13e600        	wsr.ps	a0
40080fe3:	002010        	rsync
40080fe6:	03f530        	rsr.misc1	a3
40080fe9:	0308      	l32i.n	a0, a3, 0
40080feb:	708c      	beqz.n	a0, 40080ff6 <_switch_stacks_3>
40080fed:	001b      	addi.n	a0, a0, 1
40080fef:	0309      	s32i.n	a0, a3, 0
40080ff1:	013d      	mov.n	a3, a1
40080ff3:	000206        	j	40080fff <_do_call_3>

40080ff6 <_switch_stacks_3>:
40080ff6:	01c002        	addi	a0, a0, 1
40080ff9:	006302        	s32i	a0, a3, 0
40080ffc:	012332        	l32i	a3, a3, 4

40080fff <_do_call_3>:
40080fff:	036d      	mov.n	a6, a3
40081001:	01ad      	mov.n	a10, a1
40081003:	013d      	mov.n	a3, a1
40081005:	02bd      	mov.n	a11, a2
40081007:	0118      	l32i.n	a1, a1, 0
40081009:	8108      	l32i.n	a0, a1, 32
4008100b:	40c112        	addi	a1, a1, 64
4008100e:	000095        	call4	40081018 <_xstack_call0_5>
40081011:	031d      	mov.n	a1, a3
40081013:	062d      	mov.n	a2, a6
40081015:	000386        	j	40081027 <_xstack_returned_5>

40081018 <_xstack_call0_5>:
40081018:	002136        	entry	a1, 16
4008101b:	021d      	mov.n	a1, a2
4008101d:	000055        	call4	40081024 <_xstack_call1_5>
40081020:	062d      	mov.n	a2, a6
40081022:	f01d      	retw.n

40081024 <_xstack_call1_5>:
40081024:	0007a0        	jx	a7

40081027 <_xstack_returned_5>:
40081027:	006700        	rsil	a0, 7
4008102a:	03f530        	rsr.misc1	a3
4008102d:	0308      	l32i.n	a0, a3, 0
4008102f:	000b      	addi.n	a0, a0, -1
40081031:	0309      	s32i.n	a0, a3, 0
40081033:	261617        	beq	a6, a1, 4008105d <_restore_3>
40081036:	0118      	l32i.n	a1, a1, 0
40081038:	8108      	l32i.n	a0, a1, 32
4008103a:	40c112        	addi	a1, a1, 64
4008103d:	10ccc0        	and	a12, a12, a12
40081040:	408030        	rotw	3
40081043:	10ccc0        	and	a12, a12, a12
40081046:	408030        	rotw	3
40081049:	10ccc0        	and	a12, a12, a12
4008104c:	408030        	rotw	3
4008104f:	10ccc0        	and	a12, a12, a12
40081052:	408030        	rotw	3
40081055:	10ccc0        	and	a12, a12, a12
40081058:	408040        	rotw	4
4008105b:	061d      	mov.n	a1, a6

4008105d <_restore_3>:
4008105d:	ffa706        	j	40080efd <_restore_context>

40081060 <xtensa_init_stack>:
40081060:	006136        	entry	a1, 48
40081063:	078d      	mov.n	a8, a7
40081065:	d0c372        	addi	a7, a3, -48
40081068:	0c3c      	movi.n	a12, 48
4008106a:	0b0c      	movi.n	a11, 0
4008106c:	07ad      	mov.n	a10, a7
4008106e:	006182        	s32i	a8, a1, 0
40081071:	021725        	call8	400831e4 <memset>
40081074:	fd0891        	l32r	a9, 40080494 <_init_end+0x94>
40081077:	ecc322        	addi	a2, a3, -20
4008107a:	0299      	s32i.n	a9, a2, 0
4008107c:	fd0791        	l32r	a9, 40080498 <_init_end+0x98>
4008107f:	e8c322        	addi	a2, a3, -24
40081082:	0299      	s32i.n	a9, a2, 0
40081084:	ccc322        	addi	a2, a3, -52
40081087:	0259      	s32i.n	a5, a2, 0
40081089:	c8c322        	addi	a2, a3, -56
4008108c:	0249      	s32i.n	a4, a2, 0
4008108e:	c4c392        	addi	a9, a3, -60
40081091:	020c      	movi.n	a2, 0
40081093:	0929      	s32i.n	a2, a9, 0
40081095:	c0c392        	addi	a9, a3, -64
40081098:	0929      	s32i.n	a2, a9, 0
4008109a:	bcc392        	addi	a9, a3, -68
4008109d:	0929      	s32i.n	a2, a9, 0
4008109f:	0188      	l32i.n	a8, a1, 0
400810a1:	b8c392        	addi	a9, a3, -72
400810a4:	0929      	s32i.n	a2, a9, 0
400810a6:	b4c322        	addi	a2, a3, -76
400810a9:	0289      	s32i.n	a8, a2, 0
400810ab:	b0c322        	addi	a2, a3, -80
400810ae:	0269      	s32i.n	a6, a2, 0
400810b0:	acc322        	addi	a2, a3, -84
400810b3:	0279      	s32i.n	a7, a2, 0
400810b5:	f01d      	retw.n
	...

400810b8 <arch_new_thread>:
400810b8:	004136        	entry	a1, 32
400810bb:	0821f2        	l32i	a15, a1, 32
400810be:	20e770        	or	a14, a7, a7
400810c1:	20d660        	or	a13, a6, a6
400810c4:	05cd      	mov.n	a12, a5
400810c6:	04bd      	mov.n	a11, a4
400810c8:	02ad      	mov.n	a10, a2
400810ca:	fff965        	call8	40081060 <xtensa_init_stack>
400810cd:	1262a2        	s32i	a10, a2, 72
400810d0:	f01d      	retw.n
	...

400810d4 <z_irq_spurious>:
400810d4:	004136        	entry	a1, 32
400810d7:	03e280        	rsr.interrupt	a8
400810da:	03e480        	rsr.intenable	a8
400810dd:	0b0c      	movi.n	a11, 0
400810df:	1a0c      	movi.n	a10, 1
400810e1:	ffd625        	call8	40080e44 <z_xtensa_fatal_error>
400810e4:	f01d      	retw.n
	...

400810e8 <xtensa_int2_c>:
400810e8:	004136        	entry	a1, 32
400810eb:	03e240        	rsr.interrupt	a4
400810ee:	03e430        	rsr.intenable	a3
400810f1:	fcea51        	l32r	a5, 4008049c <_init_end+0x9c>
400810f4:	104430        	and	a4, a4, a3
400810f7:	0e8457        	bany	a4, a5, 40081109 <xtensa_int2_c+0x21>
400810fa:	fce931        	l32r	a3, 400804a0 <_init_end+0xa0>
400810fd:	0f8437        	bany	a4, a3, 40081110 <xtensa_int2_c+0x28>
40081100:	fce931        	l32r	a3, 400804a4 <_init_end+0xa4>
40081103:	0e8437        	bany	a4, a3, 40081115 <xtensa_int2_c+0x2d>
40081106:	000986        	j	40081130 <xtensa_int2_c+0x48>
40081109:	381c      	movi.n	a8, 19
4008110b:	053d      	mov.n	a3, a5
4008110d:	000186        	j	40081117 <xtensa_int2_c+0x2f>
40081110:	481c      	movi.n	a8, 20
40081112:	000046        	j	40081117 <xtensa_int2_c+0x2f>
40081115:	581c      	movi.n	a8, 21
40081117:	fce491        	l32r	a9, 400804a8 <_init_end+0xa8>
4008111a:	1188d0        	slli	a8, a8, 3
4008111d:	898a      	add.n	a8, a9, a8
4008111f:	1898      	l32i.n	a9, a8, 4
40081121:	08a8      	l32i.n	a10, a8, 0
40081123:	304430        	xor	a4, a4, a3
40081126:	0009e0        	callx8	a9
40081129:	13e330        	wsr.intclear	a3
4008112c:	fff1c6        	j	400810f7 <xtensa_int2_c+0xf>
4008112f:	a22000        	muluh	a2, a0, a0
40081132:	9c6520        	lsi	f2, a5, 0x270
40081135:	2aa000        	mul.s	f10, f0, f0
40081138:	009020        	all4	b2, b0:b1:b2:b3
	...

4008113c <xtensa_int3_c>:
4008113c:	004136        	entry	a1, 32
4008113f:	03e240        	rsr.interrupt	a4
40081142:	03e430        	rsr.intenable	a3
40081145:	104430        	and	a4, a4, a3
40081148:	fcdf31        	l32r	a3, 400804c4 <_init_end+0xc4>
4008114b:	150437        	bnone	a4, a3, 40081164 <xtensa_int3_c+0x28>
4008114e:	fcd831        	l32r	a3, 400804b0 <_init_end+0xb0>
40081151:	268437        	bany	a4, a3, 4008117b <xtensa_int3_c+0x3f>
40081154:	fcd831        	l32r	a3, 400804b4 <_init_end+0xb4>
40081157:	258437        	bany	a4, a3, 40081180 <xtensa_int3_c+0x44>
4008115a:	fcd731        	l32r	a3, 400804b8 <_init_end+0xb8>
4008115d:	490437        	bnone	a4, a3, 400811aa <xtensa_int3_c+0x6e>
40081160:	000846        	j	40081185 <xtensa_int3_c+0x49>
40081163:	d63100        	lsi	f0, a1, 0x358
40081166:	37fc      	bnez.n	a7, 4008119d <xtensa_int3_c+0x61>
40081168:	311f84        	lsi	f8, a15, 196
4008116b:	37fcd0        	lsi	f13, a12, 220
4008116e:	311f84        	lsi	f8, a15, 196
40081171:	37fcd4        	lsi	f13, a12, 220
40081174:	1c3304        	lsi	f0, a3, 112
40081177:	86d8      	l32i.n	a13, a6, 32
40081179:	0c0005        	call0	4008d17c <_iram_end+0x9f40>
4008117c:	46b8      	l32i.n	a11, a6, 16
4008117e:	0c0004        	lsi	f0, a0, 48
40081181:	06f8      	l32i.n	a15, a6, 0
40081183:	1c0003        	lsi	f0, a0, 112
40081186:	c668      	l32i.n	a6, a6, 48
40081188:	1c0001        	l32r	a0, 40048188 <__umoddi3+0x3af08>
4008118b:	8678      	l32i.n	a7, a6, 32
4008118d:	000000        	ill
40081190:	b81c      	movi.n	a8, 27
40081192:	fcc591        	l32r	a9, 400804a8 <_init_end+0xa8>
40081195:	1188d0        	slli	a8, a8, 3
40081198:	898a      	add.n	a8, a9, a8
4008119a:	1898      	l32i.n	a9, a8, 4
4008119c:	08a8      	l32i.n	a10, a8, 0
4008119e:	304430        	xor	a4, a4, a3
400811a1:	0009e0        	callx8	a9
400811a4:	13e330        	wsr.intclear	a3
400811a7:	ffe746        	j	40081148 <xtensa_int3_c+0xc>
400811aa:	20a220        	or	a10, a2, a2
400811ad:	0094a5        	call8	40081af8 <z_get_next_switch_handle>
400811b0:	202aa0        	or	a2, a10, a10
400811b3:	000090        	retw
	...

400811b8 <xtensa_int4_c>:
400811b8:	004136        	entry	a1, 32
400811bb:	03e240        	rsr.interrupt	a4
400811be:	03e430        	rsr.intenable	a3
400811c1:	104430        	and	a4, a4, a3
400811c4:	fcc531        	l32r	a3, 400804d8 <_init_end+0xd8>
400811c7:	0e0437        	bnone	a4, a3, 400811d9 <xtensa_int4_c+0x21>
400811ca:	fcbf31        	l32r	a3, 400804c8 <_init_end+0xc8>
400811cd:	198437        	bany	a4, a3, 400811ea <xtensa_int4_c+0x32>
400811d0:	fcbf31        	l32r	a3, 400804cc <_init_end+0xcc>
400811d3:	370437        	bnone	a4, a3, 4008120e <xtensa_int4_c+0x56>
400811d6:	000546        	j	400811ef <xtensa_int4_c+0x37>
400811d9:	fcbd31        	l32r	a3, 400804d0 <_init_end+0xd0>
400811dc:	148437        	bany	a4, a3, 400811f4 <xtensa_int4_c+0x3c>
400811df:	fcbd31        	l32r	a3, 400804d4 <_init_end+0xd4>
400811e2:	280437        	bnone	a4, a3, 4008120e <xtensa_int4_c+0x56>
400811e5:	e81c      	movi.n	a8, 30
400811e7:	0002c6        	j	400811f6 <xtensa_int4_c+0x3e>
400811ea:	881c      	movi.n	a8, 24
400811ec:	000186        	j	400811f6 <xtensa_int4_c+0x3e>
400811ef:	981c      	movi.n	a8, 25
400811f1:	000046        	j	400811f6 <xtensa_int4_c+0x3e>
400811f4:	c81c      	movi.n	a8, 28
400811f6:	fcac91        	l32r	a9, 400804a8 <_init_end+0xa8>
400811f9:	1188d0        	slli	a8, a8, 3
400811fc:	898a      	add.n	a8, a9, a8
400811fe:	1898      	l32i.n	a9, a8, 4
40081200:	08a8      	l32i.n	a10, a8, 0
40081202:	304430        	xor	a4, a4, a3
40081205:	0009e0        	callx8	a9
40081208:	13e330        	wsr.intclear	a3
4008120b:	ffed46        	j	400811c4 <xtensa_int4_c+0xc>
4008120e:	20a220        	or	a10, a2, a2
40081211:	008e65        	call8	40081af8 <z_get_next_switch_handle>
40081214:	202aa0        	or	a2, a10, a10
40081217:	000090        	retw
	...

4008121c <xtensa_int5_c>:
4008121c:	004136        	entry	a1, 32
4008121f:	03e240        	rsr.interrupt	a4
40081222:	03e430        	rsr.intenable	a3
40081225:	fcad51        	l32r	a5, 400804dc <_init_end+0xdc>
40081228:	104430        	and	a4, a4, a3
4008122b:	0001c6        	j	40081236 <xtensa_int5_c+0x1a>
4008122e:	300000        	xor	a0, a0, a0
40081231:	303044        	lsi	f4, a0, 192
40081234:	5713e3        	lsi	f14, a3, 0x15c
40081237:	311084        	lsi	f8, a0, 196
4008123a:	fca9      	s32i.n	a10, a12, 60
4008123c:	118437        	bany	a4, a3, 40081251 <xtensa_int5_c+0x35>
4008123f:	0254d6        	bgez	a4, 40081268 <xtensa_int5_c+0x4c>
40081242:	f81c      	movi.n	a8, 31
40081244:	fca831        	l32r	a3, 400804e4 <_init_end+0xe4>
40081247:	000206        	j	40081253 <xtensa_int5_c+0x37>
4008124a:	081c      	movi.n	a8, 16
4008124c:	053d      	mov.n	a3, a5
4008124e:	000046        	j	40081253 <xtensa_int5_c+0x37>
40081251:	a81c      	movi.n	a8, 26
40081253:	fc9591        	l32r	a9, 400804a8 <_init_end+0xa8>
40081256:	1188d0        	slli	a8, a8, 3
40081259:	808980        	add	a8, a9, a8
4008125c:	012892        	l32i	a9, a8, 4
4008125f:	0028a2        	l32i	a10, a8, 0
40081262:	0009e0        	callx8	a9
40081265:	fc7356        	bnez	a3, 40081230 <xtensa_int5_c+0x14>
40081268:	20a220        	or	a10, a2, a2
4008126b:	0088e5        	call8	40081af8 <z_get_next_switch_handle>
4008126e:	202aa0        	or	a2, a10, a10
40081271:	000090        	retw

40081274 <xtensa_int6_c>:
40081274:	004136        	entry	a1, 32
40081277:	20a220        	or	a10, a2, a2
4008127a:	03e280        	rsr.interrupt	a8
4008127d:	03e480        	rsr.intenable	a8
40081280:	008765        	call8	40081af8 <z_get_next_switch_handle>
40081283:	202aa0        	or	a2, a10, a10
40081286:	000090        	retw
40081289:	000000        	ill

4008128c <xtensa_int7_c>:
4008128c:	004136        	entry	a1, 32
4008128f:	03e230        	rsr.interrupt	a3
40081292:	03e440        	rsr.intenable	a4
40081295:	103340        	and	a3, a3, a4
40081298:	fc9441        	l32r	a4, 400804e8 <_init_end+0xe8>
4008129b:	150347        	bnone	a3, a4, 400812b4 <xtensa_int7_c+0x28>
4008129e:	fc8281        	l32r	a8, 400804a8 <_init_end+0xa8>
400812a1:	303340        	xor	a3, a3, a4
400812a4:	1d2892        	l32i	a9, a8, 116
400812a7:	1c28a2        	l32i	a10, a8, 112
400812aa:	0009e0        	callx8	a9
400812ad:	13e340        	wsr.intclear	a4
400812b0:	fff9c6        	j	4008129b <xtensa_int7_c+0xf>
400812b3:	a22000        	muluh	a2, a0, a0
400812b6:	842520        	extui	a2, a2, 5, 9
400812b9:	2aa000        	mul.s	f10, f0, f0
400812bc:	009020        	all4	b2, b0:b1:b2:b3
	...

400812c0 <xtensa_excint1_c>:
400812c0:	004136        	entry	a1, 32
400812c3:	03e850        	rsr.exccause	a5
400812c6:	024526        	beqi	a5, 4, 400812cc <xtensa_excint1_c+0xc>
400812c9:	0045c6        	j	400813e4 <xtensa_excint1_c+0x124>
400812cc:	03e240        	rsr.interrupt	a4
400812cf:	03e430        	rsr.intenable	a3
400812d2:	80a762        	movi	a6, 0x780
400812d5:	104430        	and	a4, a4, a3
400812d8:	643040        	extui	a3, a4, 0, 7
400812db:	048316        	beqz	a3, 40081327 <xtensa_excint1_c+0x67>
400812de:	243040        	extui	a3, a4, 0, 3
400812e1:	739c      	beqz.n	a3, 400812fc <xtensa_excint1_c+0x3c>
400812e3:	043040        	extui	a3, a4, 0, 1
400812e6:	09a356        	bnez	a3, 40081384 <xtensa_excint1_c+0xc4>
400812e9:	290c      	movi.n	a9, 2
400812eb:	020497        	bnone	a4, a9, 400812f1 <xtensa_excint1_c+0x31>
400812ee:	0025c6        	j	40081389 <xtensa_excint1_c+0xc9>
400812f1:	430c      	movi.n	a3, 4
400812f3:	028437        	bany	a4, a3, 400812f9 <xtensa_excint1_c+0x39>
400812f6:	004186        	j	40081400 <xtensa_excint1_c+0x140>
400812f9:	0024c6        	j	40081390 <xtensa_excint1_c+0xd0>
400812fc:	831c      	movi.n	a3, 24
400812fe:	120437        	bnone	a4, a3, 40081314 <xtensa_excint1_c+0x54>
40081301:	830c      	movi.n	a3, 8
40081303:	020437        	bnone	a4, a3, 40081309 <xtensa_excint1_c+0x49>
40081306:	0022c6        	j	40081395 <xtensa_excint1_c+0xd5>
40081309:	031c      	movi.n	a3, 16
4008130b:	028437        	bany	a4, a3, 40081311 <xtensa_excint1_c+0x51>
4008130e:	003b86        	j	40081400 <xtensa_excint1_c+0x140>
40081311:	002186        	j	4008139b <xtensa_excint1_c+0xdb>
40081314:	032c      	movi.n	a3, 32
40081316:	020437        	bnone	a4, a3, 4008131c <xtensa_excint1_c+0x5c>
40081319:	0020c6        	j	400813a0 <xtensa_excint1_c+0xe0>
4008131c:	034c      	movi.n	a3, 64
4008131e:	028437        	bany	a4, a3, 40081324 <xtensa_excint1_c+0x64>
40081321:	0036c6        	j	40081400 <xtensa_excint1_c+0x140>
40081324:	001f46        	j	400813a5 <xtensa_excint1_c+0xe5>
40081327:	2d0467        	bnone	a4, a6, 40081358 <xtensa_excint1_c+0x98>
4008132a:	80a132        	movi	a3, 0x180
4008132d:	130437        	bnone	a4, a3, 40081344 <xtensa_excint1_c+0x84>
40081330:	80a032        	movi	a3, 128
40081333:	738437        	bany	a4, a3, 400813aa <xtensa_excint1_c+0xea>
40081336:	00a132        	movi	a3, 0x100
40081339:	028437        	bany	a4, a3, 4008133f <xtensa_excint1_c+0x7f>
4008133c:	003006        	j	40081400 <xtensa_excint1_c+0x140>
4008133f:	001b06        	j	400813af <xtensa_excint1_c+0xef>
40081342:	320000        	orbc	b0, b0, b0
40081345:	3700a2        	l8ui	a10, a0, 55
40081348:	326984        	lsi	f8, a9, 200
4008134b:	3700a4        	lsi	f10, a0, 220
4008134e:	060284        	lsi	f8, a2, 24
40081351:	002b      	addi.n	a0, a0, 2
40081353:	001886        	j	400813b9 <xtensa_excint1_c+0xf9>
40081356:	310000        	srai	a0, a0, 16
40081359:	37fc67        	bbsi	a12, 22, 40081394 <xtensa_excint1_c+0xd4>
4008135c:	311104        	lsi	f0, a1, 196
4008135f:	37fc46        	j	4008f354 <_iram_end+0xc118>
40081362:	315984        	lsi	f8, a9, 196
40081365:	fc48      	l32i.n	a4, a12, 60
40081367:	028437        	bany	a4, a3, 4008136d <xtensa_excint1_c+0xad>
4008136a:	002486        	j	40081400 <xtensa_excint1_c+0x140>
4008136d:	001486        	j	400813c3 <xtensa_excint1_c+0x103>
40081370:	fc5f31        	l32r	a3, 400804ec <_init_end+0xec>
40081373:	518437        	bany	a4, a3, 400813c8 <xtensa_excint1_c+0x108>
40081376:	fc5e31        	l32r	a3, 400804f0 <_init_end+0xf0>
40081379:	028437        	bany	a4, a3, 4008137f <xtensa_excint1_c+0xbf>
4008137c:	002006        	j	40081400 <xtensa_excint1_c+0x140>
4008137f:	281c      	movi.n	a8, 18
40081381:	001146        	j	400813ca <xtensa_excint1_c+0x10a>
40081384:	080c      	movi.n	a8, 0
40081386:	001006        	j	400813ca <xtensa_excint1_c+0x10a>
40081389:	180c      	movi.n	a8, 1
4008138b:	093d      	mov.n	a3, a9
4008138d:	000e46        	j	400813ca <xtensa_excint1_c+0x10a>
40081390:	098d      	mov.n	a8, a9
40081392:	000d06        	j	400813ca <xtensa_excint1_c+0x10a>
40081395:	380c      	movi.n	a8, 3
40081397:	000bc6        	j	400813ca <xtensa_excint1_c+0x10a>
4008139a:	058d00        	extui	a8, a0, 29, 1
4008139d:	000a46        	j	400813ca <xtensa_excint1_c+0x10a>
400813a0:	580c      	movi.n	a8, 5
400813a2:	000906        	j	400813ca <xtensa_excint1_c+0x10a>
400813a5:	680c      	movi.n	a8, 6
400813a7:	0007c6        	j	400813ca <xtensa_excint1_c+0x10a>
400813aa:	780c      	movi.n	a8, 7
400813ac:	000686        	j	400813ca <xtensa_excint1_c+0x10a>
400813af:	880c      	movi.n	a8, 8
400813b1:	000546        	j	400813ca <xtensa_excint1_c+0x10a>
400813b4:	980c      	movi.n	a8, 9
400813b6:	000406        	j	400813ca <xtensa_excint1_c+0x10a>
400813b9:	a80c      	movi.n	a8, 10
400813bb:	0002c6        	j	400813ca <xtensa_excint1_c+0x10a>
400813be:	c80c      	movi.n	a8, 12
400813c0:	000186        	j	400813ca <xtensa_excint1_c+0x10a>
400813c3:	d80c      	movi.n	a8, 13
400813c5:	000046        	j	400813ca <xtensa_excint1_c+0x10a>
400813c8:	181c      	movi.n	a8, 17
400813ca:	fc3791        	l32r	a9, 400804a8 <_init_end+0xa8>
400813cd:	1188d0        	slli	a8, a8, 3
400813d0:	898a      	add.n	a8, a9, a8
400813d2:	1898      	l32i.n	a9, a8, 4
400813d4:	08a8      	l32i.n	a10, a8, 0
400813d6:	304430        	xor	a4, a4, a3
400813d9:	0009e0        	callx8	a9
400813dc:	13e330        	wsr.intclear	a3
400813df:	ffbd46        	j	400812d8 <xtensa_excint1_c+0x18>
400813e2:	660000        	lsi	f0, a0, 0x198
400813e5:	480c15        	call4	400c94a8 <_iram_end+0x4626c>
400813e8:	743802        	lsi	f0, a8, 0x1d0
400813eb:	333b      	addi.n	a3, a3, 3
400813ed:	7439      	s32i.n	a3, a4, 28
400813ef:	000346        	j	40081400 <xtensa_excint1_c+0x140>
400813f2:	300000        	xor	a0, a0, a0
400813f5:	ee          	.byte 0xee
400813f6:	a0a203        	lsi	f0, a2, 0x280
400813f9:	b22000        	mulsh	a2, a0, a0
400813fc:	a46520        	extui	a6, a2, 5, 11
400813ff:	ff          	.byte 0xff
40081400:	02ad      	mov.n	a10, a2
40081402:	006f65        	call8	40081af8 <z_get_next_switch_handle>
40081405:	0a2d      	mov.n	a2, a10
40081407:	f01d      	retw.n
40081409:	000000        	ill

4008140c <z_xtensa_cpu_process_stack_pc>:
4008140c:	004136        	entry	a1, 32
4008140f:	01d2d6        	bgez	a2, 40081430 <z_xtensa_cpu_process_stack_pc+0x24>
40081412:	fc3981        	l32r	a8, 400804f8 <_init_end+0xf8>
40081415:	491c      	movi.n	a9, 20
40081417:	108280        	and	a8, a2, a8
4008141a:	fc3821        	l32r	a2, 400804fc <_init_end+0xfc>
4008141d:	02a8      	l32i.n	a10, a2, 0
4008141f:	fc2d21        	l32r	a2, 400804d4 <_init_end+0xd4>
40081422:	202820        	or	a2, a8, a2
40081425:	071a97        	beq	a10, a9, 40081430 <z_xtensa_cpu_process_stack_pc+0x24>
40081428:	fc3621        	l32r	a2, 40080500 <_init_end+0x100>
4008142b:	0228      	l32i.n	a2, a2, 0
4008142d:	202820        	or	a2, a8, a2
40081430:	fdc222        	addi	a2, a2, -3
40081433:	f01d      	retw.n
40081435:	000000        	ill

40081438 <z_xtensa_backtrace_get_next_frame>:
40081438:	004136        	entry	a1, 32
4008143b:	012282        	l32i	a8, a2, 4
4008143e:	0222a2        	l32i	a10, a2, 8
40081441:	f0c892        	addi	a9, a8, -16
40081444:	02a9      	s32i.n	a10, a2, 0
40081446:	0998      	l32i.n	a9, a9, 0
40081448:	f4c882        	addi	a8, a8, -12
4008144b:	2299      	s32i.n	a9, a2, 8
4008144d:	0888      	l32i.n	a8, a8, 0
4008144f:	fc2d91        	l32r	a9, 40080504 <_init_end+0x104>
40081452:	fc2db1        	l32r	a11, 40080508 <_init_end+0x108>
40081455:	1289      	s32i.n	a8, a2, 4
40081457:	989a      	add.n	a9, a8, a9
40081459:	020c      	movi.n	a2, 0
4008145b:	0d3b97        	bltu	a11, a9, 4008146c <z_xtensa_backtrace_get_next_frame+0x34>
4008145e:	348080        	extui	a8, a8, 0, 4
40081461:	079827        	bne	a8, a2, 4008146c <z_xtensa_backtrace_get_next_frame+0x34>
40081464:	fffa65        	call8	4008140c <z_xtensa_cpu_process_stack_pc>
40081467:	ff2025        	call8	40080668 <esp_ptr_executable>
4008146a:	0a2d      	mov.n	a2, a10
4008146c:	042020        	extui	a2, a2, 0, 1
4008146f:	f01d      	retw.n
40081471:	000000        	ill

40081474 <z_xtensa_backtrace_print>:
40081474:	006136        	entry	a1, 48
40081477:	024d      	mov.n	a4, a2
40081479:	f27c      	movi.n	a2, -1
4008147b:	0214e6        	bgei	a4, 1, 40081481 <z_xtensa_backtrace_print+0xd>
4008147e:	003286        	j	4008154c <z_xtensa_backtrace_print+0xd8>
40081481:	03dd      	mov.n	a13, a3
40081483:	c18b      	addi.n	a12, a1, 8
40081485:	b14b      	addi.n	a11, a1, 4
40081487:	01ad      	mov.n	a10, a1
40081489:	ff21a5        	call8	400806a4 <z_xtensa_backtrace_get_start>
4008148c:	0348      	l32i.n	a4, a3, 0
4008148e:	1448      	l32i.n	a4, a4, 4
40081490:	042d      	mov.n	a2, a4
40081492:	fc1a61        	l32r	a6, 400804fc <_init_end+0xfc>
40081495:	431c      	movi.n	a3, 20
40081497:	0629      	s32i.n	a2, a6, 0
40081499:	0c1237        	beq	a2, a3, 400814a9 <z_xtensa_backtrace_print+0x35>
4008149c:	fbe631        	l32r	a3, 40080434 <_init_end+0x34>
4008149f:	0128      	l32i.n	a2, a1, 0
400814a1:	102230        	and	a2, a2, a3
400814a4:	fc1731        	l32r	a3, 40080500 <_init_end+0x100>
400814a7:	0329      	s32i.n	a2, a3, 0
400814a9:	fc18a1        	l32r	a10, 4008050c <_init_end+0x10c>
400814ac:	130c      	movi.n	a3, 1
400814ae:	01c9a5        	call8	40083148 <printk>
400814b1:	01a8      	l32i.n	a10, a1, 0
400814b3:	fff5a5        	call8	4008140c <z_xtensa_cpu_process_stack_pc>
400814b6:	fc1651        	l32r	a5, 40080510 <_init_end+0x110>
400814b9:	11c8      	l32i.n	a12, a1, 4
400814bb:	0abd      	mov.n	a11, a10
400814bd:	05ad      	mov.n	a10, a5
400814bf:	01c8a5        	call8	40083148 <printk>
400814c2:	fc1081        	l32r	a8, 40080504 <_init_end+0x104>
400814c5:	1128      	l32i.n	a2, a1, 4
400814c7:	fc1091        	l32r	a9, 40080508 <_init_end+0x108>
400814ca:	828a      	add.n	a8, a2, a8
400814cc:	1a3987        	bltu	a9, a8, 400814ea <z_xtensa_backtrace_print+0x76>
400814cf:	342020        	extui	a2, a2, 0, 4
400814d2:	42dc      	bnez.n	a2, 400814ea <z_xtensa_backtrace_print+0x76>
400814d4:	01a8      	l32i.n	a10, a1, 0
400814d6:	023d      	mov.n	a3, a2
400814d8:	fff325        	call8	4008140c <z_xtensa_cpu_process_stack_pc>
400814db:	ff18e5        	call8	40080668 <esp_ptr_executable>
400814de:	8acc      	bnez.n	a10, 400814ea <z_xtensa_backtrace_print+0x76>
400814e0:	0628      	l32i.n	a2, a6, 0
400814e2:	160c      	movi.n	a6, 1
400814e4:	ecc222        	addi	a2, a2, -20
400814e7:	933620        	movnez	a3, a6, a2
400814ea:	042d      	mov.n	a2, a4
400814ec:	140c      	movi.n	a4, 1
400814ee:	000706        	j	4008150e <z_xtensa_backtrace_print+0x9a>
400814f1:	20a110        	or	a10, a1, a1
400814f4:	fff425        	call8	40081438 <z_xtensa_backtrace_get_next_frame>
400814f7:	30aa40        	xor	a10, a10, a4
400814fa:	7430a0        	extui	a3, a10, 0, 8
400814fd:	0021a2        	l32i	a10, a1, 0
40081500:	fff0a5        	call8	4008140c <z_xtensa_cpu_process_stack_pc>
40081503:	11c8      	l32i.n	a12, a1, 4
40081505:	0abd      	mov.n	a11, a10
40081507:	05ad      	mov.n	a10, a5
40081509:	01c3e5        	call8	40083148 <printk>
4008150c:	a28c      	beqz.n	a2, 4008151a <z_xtensa_backtrace_print+0xa6>
4008150e:	2168      	l32i.n	a6, a1, 8
40081510:	06bc      	beqz.n	a6, 40081544 <z_xtensa_backtrace_print+0xd0>
40081512:	220b      	addi.n	a2, a2, -1
40081514:	fd9316        	beqz	a3, 400814f1 <z_xtensa_backtrace_print+0x7d>
40081517:	000046        	j	4008151c <z_xtensa_backtrace_print+0xa8>
4008151a:	b38c      	beqz.n	a3, 40081529 <z_xtensa_backtrace_print+0xb5>
4008151c:	fbfea1        	l32r	a10, 40080514 <_init_end+0x114>
4008151f:	f27c      	movi.n	a2, -1
40081521:	01c265        	call8	40083148 <printk>
40081524:	000406        	j	40081538 <z_xtensa_backtrace_print+0xc4>
40081527:	420000        	xorb	b0, b0, b0
4008152a:	300221        	l32r	a2, 4004d534 <__umoddi3+0x402b4>
4008152d:	162023        	lsi	f2, a0, 88
40081530:	a10054        	lsi	f5, a0, 0x284
40081533:	fbf9      	s32i.n	a15, a11, 60
40081535:	01c125        	call8	40083148 <printk>
40081538:	fbf9a1        	l32r	a10, 4008051c <_init_end+0x11c>
4008153b:	01c0e5        	call8	40083148 <printk>
4008153e:	000286        	j	4008154c <z_xtensa_backtrace_print+0xd8>
40081541:	000000        	ill
40081544:	032d      	mov.n	a2, a3
40081546:	fee316        	beqz	a3, 40081538 <z_xtensa_backtrace_print+0xc4>
40081549:	fff3c6        	j	4008151c <z_xtensa_backtrace_print+0xa8>
4008154c:	f01d      	retw.n
	...

40081550 <z_xtensa_dump_stack>:
40081550:	004136        	entry	a1, 32
40081553:	f01d      	retw.n
40081555:	000000        	ill

40081558 <z_sys_init_run_level>:
40081558:	004136        	entry	a1, 32
4008155b:	fbf181        	l32r	a8, 40080520 <_init_end+0x120>
4008155e:	1132e0        	slli	a3, a2, 2
40081561:	221b      	addi.n	a2, a2, 1
40081563:	1122e0        	slli	a2, a2, 2
40081566:	383a      	add.n	a3, a8, a3
40081568:	282a      	add.n	a2, a8, a2
4008156a:	0338      	l32i.n	a3, a3, 0
4008156c:	0248      	l32i.n	a4, a2, 0
4008156e:	00a152        	movi	a5, 0x100
40081571:	ffa062        	movi	a6, 255
40081574:	0008c6        	j	4008159b <z_sys_init_run_level+0x43>
40081577:	132800        	lsi	f0, a8, 76
4008157a:	0388      	l32i.n	a8, a3, 0
4008157c:	02ad      	mov.n	a10, a2
4008157e:	0008e0        	callx8	a8
40081581:	429c      	beqz.n	a2, 40081599 <z_sys_init_run_level+0x41>
40081583:	3228      	l32i.n	a2, a2, 12
40081585:	7a8c      	beqz.n	a10, 40081590 <z_sys_init_run_level+0x38>
40081587:	60a1a0        	abs	a10, a10
4008158a:	43aa60        	min	a10, a10, a6
4008158d:	0042a2        	s8i	a10, a2, 0
40081590:	001282        	l16ui	a8, a2, 0
40081593:	208850        	or	a8, a8, a5
40081596:	005282        	s16i	a8, a2, 0
40081599:	338b      	addi.n	a3, a3, 8
4008159b:	d93347        	bltu	a3, a4, 40081578 <z_sys_init_run_level+0x20>
4008159e:	f01d      	retw.n

400815a0 <z_impl_device_get_binding>:
400815a0:	004136        	entry	a1, 32
400815a3:	023d      	mov.n	a3, a2
400815a5:	004256        	bnez	a2, 400815ad <z_impl_device_get_binding+0xd>
400815a8:	020c      	movi.n	a2, 0
400815aa:	001486        	j	40081600 <z_impl_device_get_binding+0x60>
400815ad:	000222        	l8ui	a2, a2, 0
400815b0:	ff4216        	beqz	a2, 400815a8 <z_impl_device_get_binding+0x8>
400815b3:	fbdc21        	l32r	a2, 40080524 <_init_end+0x124>
400815b6:	fbdc41        	l32r	a4, 40080528 <_init_end+0x128>
400815b9:	025d      	mov.n	a5, a2
400815bb:	000446        	j	400815d0 <z_impl_device_get_binding+0x30>
400815be:	20a220        	or	a10, a2, a2
400815c1:	00e9a5        	call8	4008245c <z_device_is_ready>
400815c4:	005a16        	beqz	a10, 400815cd <z_impl_device_get_binding+0x2d>
400815c7:	002282        	l32i	a8, a2, 0
400815ca:	321837        	beq	a8, a3, 40081600 <z_impl_device_get_binding+0x60>
400815cd:	18c222        	addi	a2, a2, 24
400815d0:	ea9247        	bne	a2, a4, 400815be <z_impl_device_get_binding+0x1e>
400815d3:	052d      	mov.n	a2, a5
400815d5:	000846        	j	400815fa <z_impl_device_get_binding+0x5a>
400815d8:	ad0000        	lsi	f0, a0, 0x2b4
400815db:	e7e502        	s32c1i	a0, a5, 0x39c
400815de:	7acc00        	divn.s	f12, f12, f0
400815e1:	18c222        	addi	a2, a2, 24
400815e4:	000486        	j	400815fa <z_impl_device_get_binding+0x5a>
400815e7:	000000        	ill
400815ea:	02b8      	l32i.n	a11, a2, 0
400815ec:	03ad      	mov.n	a10, a3
400815ee:	01bda5        	call8	400831c8 <strcmp>
400815f1:	feca56        	bnez	a10, 400815e1 <z_impl_device_get_binding+0x41>
400815f4:	000206        	j	40081600 <z_impl_device_get_binding+0x60>
400815f7:	000000        	ill
400815fa:	dc9247        	bne	a2, a4, 400815da <z_impl_device_get_binding+0x3a>
400815fd:	ffe9c6        	j	400815a8 <z_impl_device_get_binding+0x8>
40081600:	f01d      	retw.n
	...

40081604 <k_sys_fatal_error_handler>:
40081604:	004136        	entry	a1, 32
40081607:	02ad      	mov.n	a10, a2
40081609:	00e725        	call8	4008247c <arch_system_halt>

4008160c <z_fatal_error>:
4008160c:	004136        	entry	a1, 32
4008160f:	006350        	rsil	a5, 3
40081612:	009f65        	call8	40082008 <z_impl_z_current_get>
40081615:	204aa0        	or	a4, a10, a10
40081618:	03bd      	mov.n	a11, a3
4008161a:	02ad      	mov.n	a10, a2
4008161c:	fffe65        	call8	40081604 <k_sys_fatal_error_handler>
4008161f:	13e650        	wsr.ps	a5
40081622:	002010        	rsync
40081625:	04ad      	mov.n	a10, a4
40081627:	00a7a5        	call8	400820a0 <z_impl_k_thread_abort>
4008162a:	f01d      	retw.n

4008162c <bg_thread_main>:
4008162c:	004136        	entry	a1, 32
4008162f:	fbbf81        	l32r	a8, 4008052c <_init_end+0x12c>
40081632:	190c      	movi.n	a9, 1
40081634:	2a0c      	movi.n	a10, 2
40081636:	004892        	s8i	a9, a8, 0
40081639:	fff1e5        	call8	40081558 <z_sys_init_run_level>
4008163c:	00e025        	call8	40082440 <boot_banner>
4008163f:	3a0c      	movi.n	a10, 3
40081641:	fff165        	call8	40081558 <z_sys_init_run_level>
40081644:	0022e5        	call8	40081874 <z_init_static_threads>
40081647:	4ece25        	call8	400d0328 <main>
4008164a:	fbb991        	l32r	a9, 40080530 <_init_end+0x130>
4008164d:	ea7c      	movi.n	a10, -2
4008164f:	0c0982        	l8ui	a8, a9, 12
40081652:	1088a0        	and	a8, a8, a10
40081655:	0c4982        	s8i	a8, a9, 12
40081658:	f01d      	retw.n
	...

4008165c <z_init_cpu>:
4008165c:	006136        	entry	a1, 48
4008165f:	1132e0        	slli	a3, a2, 2
40081662:	803320        	add	a3, a3, a2
40081665:	1133f0        	slli	a3, a3, 1
40081668:	fbb341        	l32r	a4, 40080534 <_init_end+0x134>
4008166b:	803320        	add	a3, a3, a2
4008166e:	1133d0        	slli	a3, a3, 3
40081671:	803340        	add	a3, a3, a4
40081674:	1142f0        	slli	a4, a2, 1
40081677:	fb6681        	l32r	a8, 40080410 <_init_end+0x10>
4008167a:	442a      	add.n	a4, a4, a2
4008167c:	190c      	movi.n	a9, 1
4008167e:	fbafb1        	l32r	a11, 4008053c <_init_end+0x13c>
40081681:	1144d0        	slli	a4, a4, 3
40081684:	448a      	add.n	a4, a4, a8
40081686:	0f0c      	movi.n	a15, 0
40081688:	118260        	slli	a8, a2, 10
4008168b:	2199      	s32i.n	a9, a1, 8
4008168d:	fbaad1        	l32r	a13, 40080538 <_init_end+0x138>
40081690:	f90c      	movi.n	a9, 15
40081692:	1199      	s32i.n	a9, a1, 4
40081694:	bb8a      	add.n	a11, a11, a8
40081696:	03ad      	mov.n	a10, a3
40081698:	31f9      	s32i.n	a15, a1, 12
4008169a:	01f9      	s32i.n	a15, a1, 0
4008169c:	04ed      	mov.n	a14, a4
4008169e:	00a4c2        	movi	a12, 0x400
400816a1:	0017e5        	call8	40081820 <z_setup_new_thread>
400816a4:	0d0382        	l8ui	a8, a3, 13
400816a7:	b97c      	movi.n	a9, -5
400816a9:	108890        	and	a8, a8, a9
400816ac:	0d4382        	s8i	a8, a3, 13
400816af:	3439      	s32i.n	a3, a4, 12
400816b1:	144422        	s8i	a2, a4, 20
400816b4:	fba331        	l32r	a3, 40080540 <_init_end+0x140>
400816b7:	221b      	addi.n	a2, a2, 1
400816b9:	112250        	slli	a2, a2, 11
400816bc:	223a      	add.n	a2, a2, a3
400816be:	1429      	s32i.n	a2, a4, 4
400816c0:	f01d      	retw.n
	...

400816c4 <z_cstart>:
400816c4:	012136        	entry	a1, 144
400816c7:	fb5231        	l32r	a3, 40080410 <_init_end+0x10>
400816ca:	020c      	movi.n	a2, 0
400816cc:	0329      	s32i.n	a2, a3, 0
400816ce:	13f530        	wsr.misc1	a3
400816d1:	01a142        	movi	a4, 0x101
400816d4:	0e5142        	s16i	a4, a1, 28
400816d7:	10c142        	addi	a4, a1, 16
400816da:	2349      	s32i.n	a4, a3, 8
400816dc:	176122        	s32i	a2, a1, 92
400816df:	00d765        	call8	40082454 <z_device_state_init>
400816e2:	02ad      	mov.n	a10, a2
400816e4:	ffe725        	call8	40081558 <z_sys_init_run_level>
400816e7:	1a0c      	movi.n	a10, 1
400816e9:	ffe6e5        	call8	40081558 <z_sys_init_run_level>
400816ec:	007d65        	call8	40081ec4 <z_sched_init>
400816ef:	fb9041        	l32r	a4, 40080530 <_init_end+0x130>
400816f2:	fb9651        	l32r	a5, 4008054c <_init_end+0x14c>
400816f5:	6349      	s32i.n	a4, a3, 24
400816f7:	fb93d1        	l32r	a13, 40080544 <_init_end+0x144>
400816fa:	fb6dc1        	l32r	a12, 400804b0 <_init_end+0xb0>
400816fd:	fb92b1        	l32r	a11, 40080548 <_init_end+0x148>
40081700:	3159      	s32i.n	a5, a1, 12
40081702:	150c      	movi.n	a5, 1
40081704:	02fd      	mov.n	a15, a2
40081706:	02ed      	mov.n	a14, a2
40081708:	2159      	s32i.n	a5, a1, 8
4008170a:	1129      	s32i.n	a2, a1, 4
4008170c:	0129      	s32i.n	a2, a1, 0
4008170e:	20a440        	or	a10, a4, a4
40081711:	0010e5        	call8	40081820 <z_setup_new_thread>
40081714:	0d0482        	l8ui	a8, a4, 13
40081717:	b57c      	movi.n	a5, -5
40081719:	108850        	and	a8, a8, a5
4008171c:	0d4482        	s8i	a8, a4, 13
4008171f:	20a440        	or	a10, a4, a4
40081722:	0058e5        	call8	40081cb0 <z_ready_thread>
40081725:	02ad      	mov.n	a10, a2
40081727:	fff365        	call8	4008165c <z_init_cpu>
4008172a:	006350        	rsil	a5, 3
4008172d:	2348      	l32i.n	a4, a3, 8
4008172f:	527c      	movi.n	a2, -11
40081731:	116422        	s32i	a2, a4, 68
40081734:	006320        	rsil	a2, 3
40081737:	003b65        	call8	40081aec <z_swap_next_thread>
4008173a:	0a2d      	mov.n	a2, a10
4008173c:	0d14a7        	beq	a4, a10, 4008174d <z_cstart+0x89>
4008173f:	23a9      	s32i.n	a10, a3, 8
40081741:	0024a5        	call8	4008198c <z_reset_time_slice>
40081744:	1222a2        	l32i	a10, a2, 72
40081747:	48c4b2        	addi	a11, a4, 72
4008174a:	ff7ea5        	call8	40080f34 <xtensa_switch>
4008174d:	13e650        	wsr.ps	a5
40081750:	002010        	rsync
	...

40081754 <k_heap_init>:
40081754:	004136        	entry	a1, 32
40081757:	0cc282        	addi	a8, a2, 12
4008175a:	20a220        	or	a10, a2, a2
4008175d:	036282        	s32i	a8, a2, 12
40081760:	4289      	s32i.n	a8, a2, 16
40081762:	04cd      	mov.n	a12, a4
40081764:	03bd      	mov.n	a11, a3
40081766:	4f13a5        	call8	400d08a0 <sys_heap_init>
40081769:	f01d      	retw.n
	...

4008176c <statics_init>:
4008176c:	004136        	entry	a1, 32
4008176f:	fb7821        	l32r	a2, 40080550 <_init_end+0x150>
40081772:	000386        	j	40081784 <statics_init+0x18>
40081775:	0222c2        	l32i	a12, a2, 8
40081778:	0122b2        	l32i	a11, a2, 4
4008177b:	20a220        	or	a10, a2, a2
4008177e:	fffd65        	call8	40081754 <k_heap_init>
40081781:	14c222        	addi	a2, a2, 20
40081784:	fb7431        	l32r	a3, 40080554 <_init_end+0x154>
40081787:	ea3237        	bltu	a2, a3, 40081775 <statics_init+0x9>
4008178a:	020c      	movi.n	a2, 0
4008178c:	f01d      	retw.n
	...

40081790 <k_heap_aligned_alloc>:
40081790:	006136        	entry	a1, 48
40081793:	20b770        	or	a11, a7, a7
40081796:	20a660        	or	a10, a6, a6
40081799:	00c2a5        	call8	400823c4 <sys_clock_timeout_end_calc>
4008179c:	14c282        	addi	a8, a2, 20
4008179f:	205aa0        	or	a5, a10, a10
400817a2:	0b6d      	mov.n	a6, a11
400817a4:	0189      	s32i.n	a8, a1, 0
400817a6:	006380        	rsil	a8, 3
400817a9:	170c      	movi.n	a7, 1
400817ab:	0009c6        	j	400817d6 <k_heap_aligned_alloc+0x46>
400817ae:	000000        	ill
400817b1:	c0e5a0        	sub	a14, a5, a10
400817b4:	07fd      	mov.n	a15, a7
400817b6:	0235e7        	bltu	a5, a14, 400817bc <k_heap_aligned_alloc+0x2c>
400817b9:	20f990        	or	a15, a9, a9
400817bc:	c0b6b0        	sub	a11, a6, a11
400817bf:	c0fbf0        	sub	a15, a11, a15
400817c2:	031fe6        	bgei	a15, 1, 400817c9 <k_heap_aligned_alloc+0x39>
400817c5:	4fec      	bnez.n	a15, 400817ed <k_heap_aligned_alloc+0x5d>
400817c7:	2eac      	beqz.n	a14, 400817ed <k_heap_aligned_alloc+0x5d>
400817c9:	0021a2        	l32i	a10, a1, 0
400817cc:	c2cb      	addi.n	a12, a2, 12
400817ce:	08bd      	mov.n	a11, a8
400817d0:	006125        	call8	40081de4 <z_pend_curr>
400817d3:	006380        	rsil	a8, 3
400817d6:	04cd      	mov.n	a12, a4
400817d8:	03bd      	mov.n	a11, a3
400817da:	02ad      	mov.n	a10, a2
400817dc:	2189      	s32i.n	a8, a1, 8
400817de:	4efd65        	call8	400d07b4 <sys_heap_aligned_alloc>
400817e1:	11a9      	s32i.n	a10, a1, 4
400817e3:	00bae5        	call8	40082390 <sys_clock_tick_get>
400817e6:	1198      	l32i.n	a9, a1, 4
400817e8:	2188      	l32i.n	a8, a1, 8
400817ea:	fc3916        	beqz	a9, 400817b1 <k_heap_aligned_alloc+0x21>
400817ed:	13e680        	wsr.ps	a8
400817f0:	002010        	rsync
400817f3:	092d      	mov.n	a2, a9
400817f5:	f01d      	retw.n
	...

400817f8 <k_heap_free>:
400817f8:	004136        	entry	a1, 32
400817fb:	20b330        	or	a11, a3, a3
400817fe:	006340        	rsil	a4, 3
40081801:	02ad      	mov.n	a10, a2
40081803:	4ef1a5        	call8	400d071c <sys_heap_free>
40081806:	a2cb      	addi.n	a10, a2, 12
40081808:	006965        	call8	40081ea0 <z_unpend_all>
4008180b:	9a8c      	beqz.n	a10, 40081818 <k_heap_free+0x20>
4008180d:	04bd      	mov.n	a11, a4
4008180f:	14c2a2        	addi	a10, a2, 20
40081812:	002625        	call8	40081a74 <z_reschedule>
40081815:	000146        	j	4008181e <k_heap_free+0x26>
40081818:	13e640        	wsr.ps	a4
4008181b:	002010        	rsync
4008181e:	f01d      	retw.n

40081820 <z_setup_new_thread>:
40081820:	006136        	entry	a1, 48
40081823:	38c282        	addi	a8, a2, 56
40081826:	e289      	s32i.n	a8, a2, 56
40081828:	f289      	s32i.n	a8, a2, 60
4008182a:	e188      	l32i.n	a8, a1, 56
4008182c:	44fb      	addi.n	a4, a4, 15
4008182e:	0c4282        	s8i	a8, a2, 12
40081831:	480c      	movi.n	a8, 4
40081833:	0d4282        	s8i	a8, a2, 13
40081836:	d188      	l32i.n	a8, a1, 52
40081838:	07fd      	mov.n	a15, a7
4008183a:	0e4282        	s8i	a8, a2, 14
4008183d:	087c      	movi.n	a8, -16
4008183f:	070c      	movi.n	a7, 0
40081841:	104480        	and	a4, a4, a8
40081844:	c188      	l32i.n	a8, a1, 48
40081846:	2279      	s32i.n	a7, a2, 8
40081848:	0f4272        	s8i	a7, a2, 15
4008184b:	6279      	s32i.n	a7, a2, 24
4008184d:	7279      	s32i.n	a7, a2, 28
4008184f:	434a      	add.n	a4, a3, a4
40081851:	02ad      	mov.n	a10, a2
40081853:	03bd      	mov.n	a11, a3
40081855:	0189      	s32i.n	a8, a1, 0
40081857:	06ed      	mov.n	a14, a6
40081859:	05dd      	mov.n	a13, a5
4008185b:	04cd      	mov.n	a12, a4
4008185d:	ff85a5        	call8	400810b8 <arch_new_thread>
40081860:	d279      	s32i.n	a7, a2, 52
40081862:	faeb71        	l32r	a7, 40080410 <_init_end+0x10>
40081865:	2778      	l32i.n	a7, a7, 8
40081867:	132772        	l32i	a7, a7, 76
4008186a:	136272        	s32i	a7, a2, 76
4008186d:	042d      	mov.n	a2, a4
4008186f:	f01d      	retw.n
40081871:	000000        	ill

40081874 <z_init_static_threads>:
40081874:	006136        	entry	a1, 48
40081877:	fb3821        	l32r	a2, 40080558 <_init_end+0x158>
4008187a:	fb3731        	l32r	a3, 40080558 <_init_end+0x158>
4008187d:	024d      	mov.n	a4, a2
4008187f:	0009c6        	j	400818aa <z_init_static_threads+0x36>
40081882:	0b2282        	l32i	a8, a2, 44
40081885:	036182        	s32i	a8, a1, 12
40081888:	8288      	l32i.n	a8, a2, 32
4008188a:	2189      	s32i.n	a8, a1, 8
4008188c:	7288      	l32i.n	a8, a2, 28
4008188e:	1189      	s32i.n	a8, a1, 4
40081890:	6288      	l32i.n	a8, a2, 24
40081892:	0189      	s32i.n	a8, a1, 0
40081894:	52f8      	l32i.n	a15, a2, 20
40081896:	42e8      	l32i.n	a14, a2, 16
40081898:	32d8      	l32i.n	a13, a2, 12
4008189a:	22c8      	l32i.n	a12, a2, 8
4008189c:	12b8      	l32i.n	a11, a2, 4
4008189e:	02a8      	l32i.n	a10, a2, 0
400818a0:	fff7e5        	call8	40081820 <z_setup_new_thread>
400818a3:	0288      	l32i.n	a8, a2, 0
400818a5:	d829      	s32i.n	a2, a8, 52
400818a7:	30c222        	addi	a2, a2, 48
400818aa:	d43237        	bltu	a2, a3, 40081882 <z_init_static_threads+0xe>
400818ad:	042d      	mov.n	a2, a4
400818af:	002225        	call8	40081ad0 <k_sched_lock>
400818b2:	040c      	movi.n	a4, 0
400818b4:	000b06        	j	400818e4 <z_init_static_threads+0x70>
400818b7:	22d200        	orb	b13, b2, b0
400818ba:	2609      	s32i.n	a0, a6, 8
400818bc:	220d      	lsi	f0, a2, 8
400818be:	0aa082        	movi	a8, 10
400818c1:	53dd40        	max	a13, a13, a4
400818c4:	82cd80        	mull	a12, a13, a8
400818c7:	b2dd80        	mulsh	a13, a13, a8
400818ca:	0022a2        	l32i	a10, a2, 0
400818cd:	208cd0        	or	a8, a12, a13
400818d0:	48cc      	bnez.n	a8, 400818d8 <z_init_static_threads+0x64>
400818d2:	003f25        	call8	40081cc4 <z_sched_start>
400818d5:	000206        	j	400818e1 <z_init_static_threads+0x6d>
400818d8:	fb21b1        	l32r	a11, 4008055c <_init_end+0x15c>
400818db:	18caa2        	addi	a10, a10, 24
400818de:	008725        	call8	40082150 <z_add_timeout>
400818e1:	30c222        	addi	a2, a2, 48
400818e4:	d03237        	bltu	a2, a3, 400818b8 <z_init_static_threads+0x44>
400818e7:	0056e5        	call8	40081e54 <k_sched_unlock>
400818ea:	f01d      	retw.n

400818ec <idle>:
400818ec:	004136        	entry	a1, 32
400818ef:	006380        	rsil	a8, 3
400818f2:	ff5465        	call8	40080e38 <arch_cpu_idle>
400818f5:	fffd86        	j	400818ef <idle+0x3>

400818f8 <z_impl_k_sem_give>:
400818f8:	004136        	entry	a1, 32
400818fb:	006330        	rsil	a3, 3
400818fe:	20a220        	or	a10, a2, a2
40081901:	0057a5        	call8	40081e7c <z_unpend_first_thread>
40081904:	00da16        	beqz	a10, 40081915 <z_impl_k_sem_give+0x1d>
40081907:	00a022        	movi	a2, 0
4008190a:	116a22        	s32i	a2, a10, 68
4008190d:	003a25        	call8	40081cb0 <z_ready_thread>
40081910:	000506        	j	40081928 <z_impl_k_sem_give+0x30>
40081913:	920000        	lsi	f0, a0, 0x248
40081916:	820222        	l8ui	a2, a2, 130
40081919:	b20322        	l8ui	a2, a3, 178
4008191c:	9001a0        	addx2	a0, a1, a10
4008191f:	c088      	l32i.n	a8, a0, 48
40081921:	93ab80        	movnez	a10, a11, a8
40081924:	8a9a      	add.n	a8, a10, a9
40081926:	2289      	s32i.n	a8, a2, 8
40081928:	fb0ea1        	l32r	a10, 40080560 <_init_end+0x160>
4008192b:	03bd      	mov.n	a11, a3
4008192d:	001465        	call8	40081a74 <z_reschedule>
40081930:	f01d      	retw.n
	...

40081934 <z_impl_k_sem_take>:
40081934:	004136        	entry	a1, 32
40081937:	02cd      	mov.n	a12, a2
40081939:	04ed      	mov.n	a14, a4
4008193b:	05fd      	mov.n	a15, a5
4008193d:	0063b0        	rsil	a11, 3
40081940:	2288      	l32i.n	a8, a2, 8
40081942:	e88c      	beqz.n	a8, 40081954 <z_impl_k_sem_take+0x20>
40081944:	880b      	addi.n	a8, a8, -1
40081946:	2289      	s32i.n	a8, a2, 8
40081948:	13e6b0        	wsr.ps	a11
4008194b:	002010        	rsync
4008194e:	0a0c      	movi.n	a10, 0
40081950:	000586        	j	4008196a <z_impl_k_sem_take+0x36>
40081953:	845000        	extui	a5, a0, 0, 9
40081956:	98cc20        	lsi	f2, a12, 0x260
40081959:	13e6b0        	wsr.ps	a11
4008195c:	002010        	rsync
4008195f:	0a7c      	movi.n	a10, -16
40081961:	000146        	j	4008196a <z_impl_k_sem_take+0x36>
40081964:	faffa1        	l32r	a10, 40080560 <_init_end+0x160>
40081967:	0047e5        	call8	40081de4 <z_pend_curr>
4008196a:	0a2d      	mov.n	a2, a10
4008196c:	f01d      	retw.n
	...

40081970 <unpend_thread_no_timeout>:
40081970:	004136        	entry	a1, 32
40081973:	02ad      	mov.n	a10, a2
40081975:	00b125        	call8	40082488 <sys_dlist_remove>
40081978:	0d0282        	l8ui	a8, a2, 13
4008197b:	d97c      	movi.n	a9, -3
4008197d:	108890        	and	a8, a8, a9
40081980:	0d4282        	s8i	a8, a2, 13
40081983:	080c      	movi.n	a8, 0
40081985:	2289      	s32i.n	a8, a2, 8
40081987:	f01d      	retw.n
40081989:	000000        	ill

4008198c <z_reset_time_slice>:
4008198c:	004136        	entry	a1, 32
4008198f:	faf531        	l32r	a3, 40080564 <_init_end+0x164>
40081992:	002322        	l32i	a2, a3, 0
40081995:	010216        	beqz	a2, 400819a9 <z_reset_time_slice+0x1d>
40081998:	00cfe5        	call8	40082698 <sys_clock_elapsed>
4008199b:	a2aa      	add.n	a10, a2, a10
4008199d:	fa9c21        	l32r	a2, 40080410 <_init_end+0x10>
400819a0:	0b0c      	movi.n	a11, 0
400819a2:	42a9      	s32i.n	a10, a2, 16
400819a4:	03a8      	l32i.n	a10, a3, 0
400819a6:	008f65        	call8	4008229c <z_set_timeout_expiry>
400819a9:	f01d      	retw.n
	...

400819ac <z_swap_irqlock>:
400819ac:	004136        	entry	a1, 32
400819af:	fa9831        	l32r	a3, 40080410 <_init_end+0x10>
400819b2:	f5af42        	movi	a4, -11
400819b5:	022352        	l32i	a5, a3, 8
400819b8:	116542        	s32i	a4, a5, 68
400819bb:	006340        	rsil	a4, 3
400819be:	6348      	l32i.n	a4, a3, 24
400819c0:	101547        	beq	a5, a4, 400819d4 <z_swap_irqlock+0x28>
400819c3:	04ad      	mov.n	a10, a4
400819c5:	026342        	s32i	a4, a3, 8
400819c8:	fffc25        	call8	4008198c <z_reset_time_slice>
400819cb:	1224a2        	l32i	a10, a4, 72
400819ce:	48c5b2        	addi	a11, a5, 72
400819d1:	ff5625        	call8	40080f34 <xtensa_switch>
400819d4:	13e620        	wsr.ps	a2
400819d7:	002010        	rsync
400819da:	2338      	l32i.n	a3, a3, 8
400819dc:	112322        	l32i	a2, a3, 68
400819df:	f01d      	retw.n
400819e1:	000000        	ill

400819e4 <z_swap>:
400819e4:	004136        	entry	a1, 32
400819e7:	fa8a41        	l32r	a4, 40080410 <_init_end+0x10>
400819ea:	f5af82        	movi	a8, -11
400819ed:	022452        	l32i	a5, a4, 8
400819f0:	116582        	s32i	a8, a5, 68
400819f3:	fadd81        	l32r	a8, 40080568 <_init_end+0x168>
400819f6:	021827        	beq	a8, a2, 400819fc <z_swap+0x18>
400819f9:	006320        	rsil	a2, 3
400819fc:	6428      	l32i.n	a2, a4, 24
400819fe:	0f1527        	beq	a5, a2, 40081a11 <z_swap+0x2d>
40081a01:	02ad      	mov.n	a10, a2
40081a03:	2429      	s32i.n	a2, a4, 8
40081a05:	fff865        	call8	4008198c <z_reset_time_slice>
40081a08:	1222a2        	l32i	a10, a2, 72
40081a0b:	48c5b2        	addi	a11, a5, 72
40081a0e:	ff5265        	call8	40080f34 <xtensa_switch>
40081a11:	13e630        	wsr.ps	a3
40081a14:	002010        	rsync
40081a17:	2428      	l32i.n	a2, a4, 8
40081a19:	112222        	l32i	a2, a2, 68
40081a1c:	f01d      	retw.n
	...

40081a20 <k_sched_time_slice_set>:
40081a20:	004136        	entry	a1, 32
40081a23:	006340        	rsil	a4, 3
40081a26:	fa7a91        	l32r	a9, 40080410 <_init_end+0x10>
40081a29:	080c      	movi.n	a8, 0
40081a2b:	4989      	s32i.n	a8, a9, 16
40081a2d:	1182e0        	slli	a8, a2, 2
40081a30:	882a      	add.n	a8, a8, a2
40081a32:	1188f0        	slli	a8, a8, 1
40081a35:	facba1        	l32r	a10, 40080564 <_init_end+0x164>
40081a38:	0212e6        	bgei	a2, 1, 40081a3e <k_sched_time_slice_set+0x1e>
40081a3b:	000106        	j	40081a43 <k_sched_time_slice_set+0x23>
40081a3e:	220c      	movi.n	a2, 2
40081a40:	538820        	max	a8, a8, a2
40081a43:	0a89      	s32i.n	a8, a10, 0
40081a45:	fac921        	l32r	a2, 4008056c <_init_end+0x16c>
40081a48:	29a8      	l32i.n	a10, a9, 8
40081a4a:	006232        	s32i	a3, a2, 0
40081a4d:	fff3e5        	call8	4008198c <z_reset_time_slice>
40081a50:	13e640        	wsr.ps	a4
40081a53:	002010        	rsync
40081a56:	f01d      	retw.n

40081a58 <z_unpend_thread>:
40081a58:	004136        	entry	a1, 32
40081a5b:	006330        	rsil	a3, 3
40081a5e:	20a220        	or	a10, a2, a2
40081a61:	fff0e5        	call8	40081970 <unpend_thread_no_timeout>
40081a64:	13e630        	wsr.ps	a3
40081a67:	002010        	rsync
40081a6a:	18c2a2        	addi	a10, a2, 24
40081a6d:	0080e5        	call8	4008227c <z_abort_timeout>
40081a70:	000090        	retw
	...

40081a74 <z_reschedule>:
40081a74:	004136        	entry	a1, 32
40081a77:	348030        	extui	a8, a3, 0, 4
40081a7a:	02ad      	mov.n	a10, a2
40081a7c:	03bd      	mov.n	a11, a3
40081a7e:	58dc      	bnez.n	a8, 40081a97 <z_reschedule+0x23>
40081a80:	03f580        	rsr.misc1	a8
40081a83:	0888      	l32i.n	a8, a8, 0
40081a85:	e8cc      	bnez.n	a8, 40081a97 <z_reschedule+0x23>
40081a87:	fa6281        	l32r	a8, 40080410 <_init_end+0x10>
40081a8a:	6898      	l32i.n	a9, a8, 24
40081a8c:	2888      	l32i.n	a8, a8, 8
40081a8e:	051987        	beq	a9, a8, 40081a97 <z_reschedule+0x23>
40081a91:	fff525        	call8	400819e4 <z_swap>
40081a94:	000146        	j	40081a9d <z_reschedule+0x29>
40081a97:	13e6b0        	wsr.ps	a11
40081a9a:	002010        	rsync
40081a9d:	f01d      	retw.n
	...

40081aa0 <z_reschedule_irqlock>:
40081aa0:	004136        	entry	a1, 32
40081aa3:	348020        	extui	a8, a2, 0, 4
40081aa6:	20a220        	or	a10, a2, a2
40081aa9:	00f856        	bnez	a8, 40081abc <z_reschedule_irqlock+0x1c>
40081aac:	03f580        	rsr.misc1	a8
40081aaf:	002882        	l32i	a8, a8, 0
40081ab2:	006856        	bnez	a8, 40081abc <z_reschedule_irqlock+0x1c>
40081ab5:	ffef65        	call8	400819ac <z_swap_irqlock>
40081ab8:	000186        	j	40081ac2 <z_reschedule_irqlock+0x22>
40081abb:	e6a000        	lsi	f0, a0, 0x398
40081abe:	201013        	lsi	f1, a0, 128
40081ac1:	f01d00        	subx8	a1, a13, a0

40081ac4 <z_reschedule_unlocked>:
40081ac4:	004136        	entry	a1, 32
40081ac7:	0063a0        	rsil	a10, 3
40081aca:	fffd65        	call8	40081aa0 <z_reschedule_irqlock>
40081acd:	f01d      	retw.n
	...

40081ad0 <k_sched_lock>:
40081ad0:	004136        	entry	a1, 32
40081ad3:	0063a0        	rsil	a10, 3
40081ad6:	fa4e81        	l32r	a8, 40080410 <_init_end+0x10>
40081ad9:	2898      	l32i.n	a9, a8, 8
40081adb:	0f0982        	l8ui	a8, a9, 15
40081ade:	880b      	addi.n	a8, a8, -1
40081ae0:	0f4982        	s8i	a8, a9, 15
40081ae3:	13e6a0        	wsr.ps	a10
40081ae6:	002010        	rsync
40081ae9:	f01d      	retw.n
	...

40081aec <z_swap_next_thread>:
40081aec:	004136        	entry	a1, 32
40081aef:	fa4881        	l32r	a8, 40080410 <_init_end+0x10>
40081af2:	6828      	l32i.n	a2, a8, 24
40081af4:	f01d      	retw.n
	...

40081af8 <z_get_next_switch_handle>:
40081af8:	004136        	entry	a1, 32
40081afb:	fa4581        	l32r	a8, 40080410 <_init_end+0x10>
40081afe:	28a8      	l32i.n	a10, a8, 8
40081b00:	6898      	l32i.n	a9, a8, 24
40081b02:	126a22        	s32i	a2, a10, 72
40081b05:	2899      	s32i.n	a9, a8, 8
40081b07:	122922        	l32i	a2, a9, 72
40081b0a:	f01d      	retw.n

40081b0c <update_cache>:
40081b0c:	004136        	entry	a1, 32
40081b0f:	fa98a1        	l32r	a10, 40080570 <_init_end+0x170>
40081b12:	0098a5        	call8	4008249c <z_priq_dumb_best>
40081b15:	203aa0        	or	a3, a10, a10
40081b18:	fa3e41        	l32r	a4, 40080410 <_init_end+0x10>
40081b1b:	002a56        	bnez	a10, 40081b21 <update_cache+0x15>
40081b1e:	032432        	l32i	a3, a4, 12
40081b21:	2488      	l32i.n	a8, a4, 8
40081b23:	62dc      	bnez.n	a2, 40081b3d <update_cache+0x31>
40081b25:	0d0892        	l8ui	a9, a8, 13
40081b28:	449090        	extui	a9, a9, 0, 5
40081b2b:	e9cc      	bnez.n	a9, 40081b3d <update_cache+0x31>
40081b2d:	071892        	l16ui	a9, a8, 14
40081b30:	7fa0a2        	movi	a10, 127
40081b33:	06ba97        	bgeu	a10, a9, 40081b3d <update_cache+0x31>
40081b36:	6489      	s32i.n	a8, a4, 24
40081b38:	0002c6        	j	40081b47 <update_cache+0x3b>
40081b3b:	870000        	lsi	f0, a0, 0x21c
40081b3e:	ad0413        	lsi	f1, a4, 0x2b4
40081b41:	e4a503        	lsi	f0, a5, 0x390
40081b44:	ff          	.byte 0xff
40081b45:	6439      	s32i.n	a3, a4, 24
40081b47:	f01d      	retw.n
40081b49:	000000        	ill

40081b4c <move_thread_to_end_of_prio_q>:
40081b4c:	004136        	entry	a1, 32
40081b4f:	0d0282        	l8ui	a8, a2, 13
40081b52:	239800        	sext	a9, a8, 7
40081b55:	00a9d6        	bgez	a9, 40081b63 <move_thread_to_end_of_prio_q+0x17>
40081b58:	648080        	extui	a8, a8, 0, 7
40081b5b:	0d4282        	s8i	a8, a2, 13
40081b5e:	02ad      	mov.n	a10, a2
40081b60:	009265        	call8	40082488 <sys_dlist_remove>
40081b63:	0d0282        	l8ui	a8, a2, 13
40081b66:	80af92        	movi	a9, -128
40081b69:	208890        	or	a8, a8, a9
40081b6c:	fa29a1        	l32r	a10, 40080410 <_init_end+0x10>
40081b6f:	0d4282        	s8i	a8, a2, 13
40081b72:	7a88      	l32i.n	a8, a10, 28
40081b74:	8ac8      	l32i.n	a12, a10, 32
40081b76:	fa7ed1        	l32r	a13, 40080570 <_init_end+0x170>
40081b79:	c8ac      	beqz.n	a8, 40081ba9 <move_thread_to_end_of_prio_q+0x5d>
40081b7b:	2a18d7        	beq	a8, a13, 40081ba9 <move_thread_to_end_of_prio_q+0x5d>
40081b7e:	0e02b2        	l8ui	a11, a2, 14
40081b81:	23bb00        	sext	a11, a11, 7
40081b84:	0e0892        	l8ui	a9, a8, 14
40081b87:	239900        	sext	a9, a9, 7
40081b8a:	121b97        	beq	a11, a9, 40081ba0 <move_thread_to_end_of_prio_q+0x54>
40081b8d:	c099b0        	sub	a9, a9, a11
40081b90:	0c19a6        	blti	a9, 1, 40081ba0 <move_thread_to_end_of_prio_q+0x54>
40081b93:	1898      	l32i.n	a9, a8, 4
40081b95:	0289      	s32i.n	a8, a2, 0
40081b97:	1299      	s32i.n	a9, a2, 4
40081b99:	0929      	s32i.n	a2, a9, 0
40081b9b:	1829      	s32i.n	a2, a8, 4
40081b9d:	000486        	j	40081bb3 <move_thread_to_end_of_prio_q+0x67>
40081ba0:	0518c7        	beq	a8, a12, 40081ba9 <move_thread_to_end_of_prio_q+0x5d>
40081ba3:	002882        	l32i	a8, a8, 0
40081ba6:	fda856        	bnez	a8, 40081b84 <move_thread_to_end_of_prio_q+0x38>
40081ba9:	0062d2        	s32i	a13, a2, 0
40081bac:	0162c2        	s32i	a12, a2, 4
40081baf:	0c29      	s32i.n	a2, a12, 0
40081bb1:	8a29      	s32i.n	a2, a10, 32
40081bb3:	2aa8      	l32i.n	a10, a10, 8
40081bb5:	180c      	movi.n	a8, 1
40081bb7:	c0aa20        	sub	a10, a10, a2
40081bba:	020c      	movi.n	a2, 0
40081bbc:	8328a0        	moveqz	a2, a8, a10
40081bbf:	02ad      	mov.n	a10, a2
40081bc1:	fff4a5        	call8	40081b0c <update_cache>
40081bc4:	f01d      	retw.n
	...

40081bc8 <z_time_slice>:
40081bc8:	004136        	entry	a1, 32
40081bcb:	006340        	rsil	a4, 3
40081bce:	fa6531        	l32r	a3, 40080564 <_init_end+0x164>
40081bd1:	fa0f91        	l32r	a9, 40080410 <_init_end+0x10>
40081bd4:	002332        	l32i	a3, a3, 0
40081bd7:	049316        	beqz	a3, 40081c24 <z_time_slice+0x5c>
40081bda:	022932        	l32i	a3, a9, 8
40081bdd:	7fa0a2        	movi	a10, 127
40081be0:	071382        	l16ui	a8, a3, 14
40081be3:	3d3a87        	bltu	a10, a8, 40081c24 <z_time_slice+0x5c>
40081be6:	0d03a2        	l8ui	a10, a3, 13
40081be9:	44a0a0        	extui	a10, a10, 0, 5
40081bec:	4afc      	bnez.n	a10, 40081c24 <z_time_slice+0x5c>
40081bee:	fa5f81        	l32r	a8, 4008056c <_init_end+0x16c>
40081bf1:	0e03b2        	l8ui	a11, a3, 14
40081bf4:	0888      	l32i.n	a8, a8, 0
40081bf6:	23bb00        	sext	a11, a11, 7
40081bf9:	272b87        	blt	a11, a8, 40081c24 <z_time_slice+0x5c>
40081bfc:	fa4e81        	l32r	a8, 40080534 <_init_end+0x134>
40081bff:	1b0c      	movi.n	a11, 1
40081c01:	c08380        	sub	a8, a3, a8
40081c04:	93ab80        	movnez	a10, a11, a8
40081c07:	9a9c      	beqz.n	a10, 40081c24 <z_time_slice+0x5c>
40081c09:	4988      	l32i.n	a8, a9, 16
40081c0b:	0d2287        	blt	a2, a8, 40081c1c <z_time_slice+0x54>
40081c0e:	03ad      	mov.n	a10, a3
40081c10:	fff3a5        	call8	40081b4c <move_thread_to_end_of_prio_q>
40081c13:	03ad      	mov.n	a10, a3
40081c15:	ffd765        	call8	4008198c <z_reset_time_slice>
40081c18:	000306        	j	40081c28 <z_time_slice+0x60>
40081c1b:	882000        	lsi	f0, a0, 0x220
40081c1e:	4989c0        	s32e	a12, a9, -32
40081c21:	0000c6        	j	40081c28 <z_time_slice+0x60>
40081c24:	020c      	movi.n	a2, 0
40081c26:	4929      	s32i.n	a2, a9, 16
40081c28:	13e640        	wsr.ps	a4
40081c2b:	002010        	rsync
40081c2e:	f01d      	retw.n

40081c30 <ready_thread>:
40081c30:	004136        	entry	a1, 32
40081c33:	0d0282        	l8ui	a8, a2, 13
40081c36:	239800        	sext	a9, a8, 7
40081c39:	06f996        	bltz	a9, 40081cac <ready_thread+0x7c>
40081c3c:	449080        	extui	a9, a8, 0, 5
40081c3f:	069956        	bnez	a9, 40081cac <ready_thread+0x7c>
40081c42:	62a8      	l32i.n	a10, a2, 24
40081c44:	064a56        	bnez	a10, 40081cac <ready_thread+0x7c>
40081c47:	80af92        	movi	a9, -128
40081c4a:	208890        	or	a8, a8, a9
40081c4d:	f9f0b1        	l32r	a11, 40080410 <_init_end+0x10>
40081c50:	0d4282        	s8i	a8, a2, 13
40081c53:	7b88      	l32i.n	a8, a11, 28
40081c55:	1f0c      	movi.n	a15, 1
40081c57:	0aed      	mov.n	a14, a10
40081c59:	93ef80        	movnez	a14, a15, a8
40081c5c:	74e0e0        	extui	a14, a14, 0, 8
40081c5f:	082bc2        	l32i	a12, a11, 32
40081c62:	fa43d1        	l32r	a13, 40080570 <_init_end+0x170>
40081c65:	4ebc      	beqz.n	a14, 40081c9d <ready_thread+0x6d>
40081c67:	c098d0        	sub	a9, a8, a13
40081c6a:	93af90        	movnez	a10, a15, a9
40081c6d:	7490a0        	extui	a9, a10, 0, 8
40081c70:	99ac      	beqz.n	a9, 40081c9d <ready_thread+0x6d>
40081c72:	0e02a2        	l8ui	a10, a2, 14
40081c75:	23aa00        	sext	a10, a10, 7
40081c78:	0e0892        	l8ui	a9, a8, 14
40081c7b:	239900        	sext	a9, a9, 7
40081c7e:	121a97        	beq	a10, a9, 40081c94 <ready_thread+0x64>
40081c81:	c099a0        	sub	a9, a9, a10
40081c84:	0c19a6        	blti	a9, 1, 40081c94 <ready_thread+0x64>
40081c87:	1898      	l32i.n	a9, a8, 4
40081c89:	0289      	s32i.n	a8, a2, 0
40081c8b:	1299      	s32i.n	a9, a2, 4
40081c8d:	0929      	s32i.n	a2, a9, 0
40081c8f:	1829      	s32i.n	a2, a8, 4
40081c91:	000486        	j	40081ca7 <ready_thread+0x77>
40081c94:	0518c7        	beq	a8, a12, 40081c9d <ready_thread+0x6d>
40081c97:	002882        	l32i	a8, a8, 0
40081c9a:	fda856        	bnez	a8, 40081c78 <ready_thread+0x48>
40081c9d:	0062d2        	s32i	a13, a2, 0
40081ca0:	0162c2        	s32i	a12, a2, 4
40081ca3:	0c29      	s32i.n	a2, a12, 0
40081ca5:	8b29      	s32i.n	a2, a11, 32
40081ca7:	0a0c      	movi.n	a10, 0
40081ca9:	ffe625        	call8	40081b0c <update_cache>
40081cac:	f01d      	retw.n
	...

40081cb0 <z_ready_thread>:
40081cb0:	004136        	entry	a1, 32
40081cb3:	02ad      	mov.n	a10, a2
40081cb5:	006330        	rsil	a3, 3
40081cb8:	fff765        	call8	40081c30 <ready_thread>
40081cbb:	13e630        	wsr.ps	a3
40081cbe:	002010        	rsync
40081cc1:	f01d      	retw.n
	...

40081cc4 <z_sched_start>:
40081cc4:	004136        	entry	a1, 32
40081cc7:	02ad      	mov.n	a10, a2
40081cc9:	006320        	rsil	a2, 3
40081ccc:	0d0a82        	l8ui	a8, a10, 13
40081ccf:	0be827        	bbsi	a8, 2, 40081cde <z_sched_start+0x1a>
40081cd2:	13e620        	wsr.ps	a2
40081cd5:	002010        	rsync
40081cd8:	0005c6        	j	40081cf3 <z_sched_start+0x2f>
40081cdb:	000000        	ill
40081cde:	fbaf92        	movi	a9, -5
40081ce1:	108890        	and	a8, a8, a9
40081ce4:	0d4a82        	s8i	a8, a10, 13
40081ce7:	fff4a5        	call8	40081c30 <ready_thread>
40081cea:	fa1fa1        	l32r	a10, 40080568 <_init_end+0x168>
40081ced:	20b220        	or	a11, a2, a2
40081cf0:	ffd825        	call8	40081a74 <z_reschedule>
40081cf3:	000090        	retw
	...

40081cf8 <z_thread_timeout>:
40081cf8:	004136        	entry	a1, 32
40081cfb:	006340        	rsil	a4, 3
40081cfe:	e8c232        	addi	a3, a2, -24
40081d01:	0d0382        	l8ui	a8, a3, 13
40081d04:	28a092        	movi	a9, 40
40081d07:	1d8987        	bany	a9, a8, 40081d28 <z_thread_timeout+0x30>
40081d0a:	022382        	l32i	a8, a3, 8
40081d0d:	388c      	beqz.n	a8, 40081d14 <z_thread_timeout+0x1c>
40081d0f:	03ad      	mov.n	a10, a3
40081d11:	ffc5e5        	call8	40081970 <unpend_thread_no_timeout>
40081d14:	f5c222        	addi	a2, a2, -11
40081d17:	000282        	l8ui	a8, a2, 0
40081d1a:	b96c      	movi.n	a9, -21
40081d1c:	108890        	and	a8, a8, a9
40081d1f:	004282        	s8i	a8, a2, 0
40081d22:	20a330        	or	a10, a3, a3
40081d25:	fff0a5        	call8	40081c30 <ready_thread>
40081d28:	13e640        	wsr.ps	a4
40081d2b:	002010        	rsync
40081d2e:	f01d      	retw.n

40081d30 <unready_thread>:
40081d30:	004136        	entry	a1, 32
40081d33:	0d0282        	l8ui	a8, a2, 13
40081d36:	239800        	sext	a9, a8, 7
40081d39:	00b9d6        	bgez	a9, 40081d48 <unready_thread+0x18>
40081d3c:	648080        	extui	a8, a8, 0, 7
40081d3f:	0d4282        	s8i	a8, a2, 13
40081d42:	20a220        	or	a10, a2, a2
40081d45:	007425        	call8	40082488 <sys_dlist_remove>
40081d48:	f9b281        	l32r	a8, 40080410 <_init_end+0x10>
40081d4b:	0228a2        	l32i	a10, a8, 8
40081d4e:	180c      	movi.n	a8, 1
40081d50:	c0aa20        	sub	a10, a10, a2
40081d53:	020c      	movi.n	a2, 0
40081d55:	8328a0        	moveqz	a2, a8, a10
40081d58:	02ad      	mov.n	a10, a2
40081d5a:	ffdb25        	call8	40081b0c <update_cache>
40081d5d:	f01d      	retw.n
	...

40081d60 <add_to_waitq_locked>:
40081d60:	004136        	entry	a1, 32
40081d63:	02ad      	mov.n	a10, a2
40081d65:	fffca5        	call8	40081d30 <unready_thread>
40081d68:	0d0282        	l8ui	a8, a2, 13
40081d6b:	290c      	movi.n	a9, 2
40081d6d:	208890        	or	a8, a8, a9
40081d70:	0d4282        	s8i	a8, a2, 13
40081d73:	d3bc      	beqz.n	a3, 40081db4 <add_to_waitq_locked+0x54>
40081d75:	0388      	l32i.n	a8, a3, 0
40081d77:	2239      	s32i.n	a3, a2, 8
40081d79:	d8ac      	beqz.n	a8, 40081daa <add_to_waitq_locked+0x4a>
40081d7b:	2b1387        	beq	a3, a8, 40081daa <add_to_waitq_locked+0x4a>
40081d7e:	0e02a2        	l8ui	a10, a2, 14
40081d81:	23aa00        	sext	a10, a10, 7
40081d84:	0e0892        	l8ui	a9, a8, 14
40081d87:	239900        	sext	a9, a9, 7
40081d8a:	121a97        	beq	a10, a9, 40081da0 <add_to_waitq_locked+0x40>
40081d8d:	c099a0        	sub	a9, a9, a10
40081d90:	0c19a6        	blti	a9, 1, 40081da0 <add_to_waitq_locked+0x40>
40081d93:	1838      	l32i.n	a3, a8, 4
40081d95:	0289      	s32i.n	a8, a2, 0
40081d97:	1239      	s32i.n	a3, a2, 4
40081d99:	0329      	s32i.n	a2, a3, 0
40081d9b:	1829      	s32i.n	a2, a8, 4
40081d9d:	0004c6        	j	40081db4 <add_to_waitq_locked+0x54>
40081da0:	1398      	l32i.n	a9, a3, 4
40081da2:	041897        	beq	a8, a9, 40081daa <add_to_waitq_locked+0x4a>
40081da5:	0888      	l32i.n	a8, a8, 0
40081da7:	fd9856        	bnez	a8, 40081d84 <add_to_waitq_locked+0x24>
40081daa:	1388      	l32i.n	a8, a3, 4
40081dac:	0239      	s32i.n	a3, a2, 0
40081dae:	1289      	s32i.n	a8, a2, 4
40081db0:	0829      	s32i.n	a2, a8, 0
40081db2:	1329      	s32i.n	a2, a3, 4
40081db4:	f01d      	retw.n
	...

40081db8 <pend>:
40081db8:	004136        	entry	a1, 32
40081dbb:	20b330        	or	a11, a3, a3
40081dbe:	006360        	rsil	a6, 3
40081dc1:	20a220        	or	a10, a2, a2
40081dc4:	fff9a5        	call8	40081d60 <add_to_waitq_locked>
40081dc7:	13e660        	wsr.ps	a6
40081dca:	002010        	rsync
40081dcd:	020466        	bnei	a4, -1, 40081dd3 <pend+0x1b>
40081dd0:	0c0526        	beqi	a5, -1, 40081de0 <pend+0x28>
40081dd3:	f9e2b1        	l32r	a11, 4008055c <_init_end+0x15c>
40081dd6:	04cd      	mov.n	a12, a4
40081dd8:	05dd      	mov.n	a13, a5
40081dda:	18c2a2        	addi	a10, a2, 24
40081ddd:	003725        	call8	40082150 <z_add_timeout>
40081de0:	f01d      	retw.n
	...

40081de4 <z_pend_curr>:
40081de4:	004136        	entry	a1, 32
40081de7:	f98a81        	l32r	a8, 40080410 <_init_end+0x10>
40081dea:	20d770        	or	a13, a7, a7
40081ded:	0228a2        	l32i	a10, a8, 8
40081df0:	06cd      	mov.n	a12, a6
40081df2:	04bd      	mov.n	a11, a4
40081df4:	fffc25        	call8	40081db8 <pend>
40081df7:	03bd      	mov.n	a11, a3
40081df9:	02ad      	mov.n	a10, a2
40081dfb:	ffbea5        	call8	400819e4 <z_swap>
40081dfe:	0a2d      	mov.n	a2, a10
40081e00:	f01d      	retw.n
	...

40081e04 <z_impl_k_thread_suspend>:
40081e04:	004136        	entry	a1, 32
40081e07:	18c2a2        	addi	a10, a2, 24
40081e0a:	004725        	call8	4008227c <z_abort_timeout>
40081e0d:	006330        	rsil	a3, 3
40081e10:	0d0282        	l8ui	a8, a2, 13
40081e13:	234800        	sext	a4, a8, 7
40081e16:	00a4d6        	bgez	a4, 40081e24 <z_impl_k_thread_suspend+0x20>
40081e19:	648080        	extui	a8, a8, 0, 7
40081e1c:	0d4282        	s8i	a8, a2, 13
40081e1f:	02ad      	mov.n	a10, a2
40081e21:	006665        	call8	40082488 <sys_dlist_remove>
40081e24:	0d0282        	l8ui	a8, a2, 13
40081e27:	041c      	movi.n	a4, 16
40081e29:	208840        	or	a8, a8, a4
40081e2c:	f97941        	l32r	a4, 40080410 <_init_end+0x10>
40081e2f:	0d4282        	s8i	a8, a2, 13
40081e32:	24a8      	l32i.n	a10, a4, 8
40081e34:	190c      	movi.n	a9, 1
40081e36:	c0aa20        	sub	a10, a10, a2
40081e39:	080c      	movi.n	a8, 0
40081e3b:	8389a0        	moveqz	a8, a9, a10
40081e3e:	08ad      	mov.n	a10, a8
40081e40:	ffcca5        	call8	40081b0c <update_cache>
40081e43:	13e630        	wsr.ps	a3
40081e46:	002010        	rsync
40081e49:	2438      	l32i.n	a3, a4, 8
40081e4b:	029327        	bne	a3, a2, 40081e51 <z_impl_k_thread_suspend+0x4d>
40081e4e:	ffc765        	call8	40081ac4 <z_reschedule_unlocked>
40081e51:	f01d      	retw.n
	...

40081e54 <k_sched_unlock>:
40081e54:	004136        	entry	a1, 32
40081e57:	006320        	rsil	a2, 3
40081e5a:	f96d81        	l32r	a8, 40080410 <_init_end+0x10>
40081e5d:	00a0a2        	movi	a10, 0
40081e60:	022892        	l32i	a9, a8, 8
40081e63:	0f0982        	l8ui	a8, a9, 15
40081e66:	01c882        	addi	a8, a8, 1
40081e69:	0f4982        	s8i	a8, a9, 15
40081e6c:	ffc9e5        	call8	40081b0c <update_cache>
40081e6f:	13e620        	wsr.ps	a2
40081e72:	002010        	rsync
40081e75:	ffc4e5        	call8	40081ac4 <z_reschedule_unlocked>
40081e78:	f01d      	retw.n
	...

40081e7c <z_unpend_first_thread>:
40081e7c:	004136        	entry	a1, 32
40081e7f:	006330        	rsil	a3, 3
40081e82:	20a220        	or	a10, a2, a2
40081e85:	006165        	call8	4008249c <z_priq_dumb_best>
40081e88:	0a2d      	mov.n	a2, a10
40081e8a:	7a8c      	beqz.n	a10, 40081e95 <z_unpend_first_thread+0x19>
40081e8c:	ffae25        	call8	40081970 <unpend_thread_no_timeout>
40081e8f:	18c2a2        	addi	a10, a2, 24
40081e92:	003ea5        	call8	4008227c <z_abort_timeout>
40081e95:	13e630        	wsr.ps	a3
40081e98:	002010        	rsync
40081e9b:	f01d      	retw.n
40081e9d:	000000        	ill

40081ea0 <z_unpend_all>:
40081ea0:	004136        	entry	a1, 32
40081ea3:	080c      	movi.n	a8, 0
40081ea5:	140c      	movi.n	a4, 1
40081ea7:	000346        	j	40081eb8 <z_unpend_all+0x18>
40081eaa:	20a330        	or	a10, a3, a3
40081ead:	ffbaa5        	call8	40081a58 <z_unpend_thread>
40081eb0:	20a330        	or	a10, a3, a3
40081eb3:	ffdfe5        	call8	40081cb0 <z_ready_thread>
40081eb6:	048d      	mov.n	a8, a4
40081eb8:	0238      	l32i.n	a3, a2, 0
40081eba:	002316        	beqz	a3, 40081ec0 <z_unpend_all+0x20>
40081ebd:	e99237        	bne	a2, a3, 40081eaa <z_unpend_all+0xa>
40081ec0:	082d      	mov.n	a2, a8
40081ec2:	f01d      	retw.n

40081ec4 <z_sched_init>:
40081ec4:	004136        	entry	a1, 32
40081ec7:	f95281        	l32r	a8, 40080410 <_init_end+0x10>
40081eca:	f9a991        	l32r	a9, 40080570 <_init_end+0x170>
40081ecd:	0b0c      	movi.n	a11, 0
40081ecf:	7899      	s32i.n	a9, a8, 28
40081ed1:	8899      	s32i.n	a9, a8, 32
40081ed3:	0bad      	mov.n	a10, a11
40081ed5:	ffb4a5        	call8	40081a20 <k_sched_time_slice_set>
40081ed8:	f01d      	retw.n
	...

40081edc <z_impl_k_yield>:
40081edc:	004136        	entry	a1, 32
40081edf:	006330        	rsil	a3, 3
40081ee2:	f94b21        	l32r	a2, 40080410 <_init_end+0x10>
40081ee5:	22a8      	l32i.n	a10, a2, 8
40081ee7:	0d0a82        	l8ui	a8, a10, 13
40081eea:	648080        	extui	a8, a8, 0, 7
40081eed:	0d4a82        	s8i	a8, a10, 13
40081ef0:	005965        	call8	40082488 <sys_dlist_remove>
40081ef3:	2288      	l32i.n	a8, a2, 8
40081ef5:	80afa2        	movi	a10, -128
40081ef8:	0d0892        	l8ui	a9, a8, 13
40081efb:	f99dc1        	l32r	a12, 40080570 <_init_end+0x170>
40081efe:	2099a0        	or	a9, a9, a10
40081f01:	0d4892        	s8i	a9, a8, 13
40081f04:	7298      	l32i.n	a9, a2, 28
40081f06:	e9ac      	beqz.n	a9, 40081f38 <z_impl_k_yield+0x5c>
40081f08:	2c19c7        	beq	a9, a12, 40081f38 <z_impl_k_yield+0x5c>
40081f0b:	0e08b2        	l8ui	a11, a8, 14
40081f0e:	0822d2        	l32i	a13, a2, 32
40081f11:	23bb00        	sext	a11, a11, 7
40081f14:	0e09a2        	l8ui	a10, a9, 14
40081f17:	23aa00        	sext	a10, a10, 7
40081f1a:	121ba7        	beq	a11, a10, 40081f30 <z_impl_k_yield+0x54>
40081f1d:	c0aab0        	sub	a10, a10, a11
40081f20:	0c1aa6        	blti	a10, 1, 40081f30 <z_impl_k_yield+0x54>
40081f23:	1928      	l32i.n	a2, a9, 4
40081f25:	0899      	s32i.n	a9, a8, 0
40081f27:	1829      	s32i.n	a2, a8, 4
40081f29:	0289      	s32i.n	a8, a2, 0
40081f2b:	1989      	s32i.n	a8, a9, 4
40081f2d:	000446        	j	40081f42 <z_impl_k_yield+0x66>
40081f30:	0419d7        	beq	a9, a13, 40081f38 <z_impl_k_yield+0x5c>
40081f33:	0998      	l32i.n	a9, a9, 0
40081f35:	fdb956        	bnez	a9, 40081f14 <z_impl_k_yield+0x38>
40081f38:	8298      	l32i.n	a9, a2, 32
40081f3a:	08c9      	s32i.n	a12, a8, 0
40081f3c:	1899      	s32i.n	a9, a8, 4
40081f3e:	0989      	s32i.n	a8, a9, 0
40081f40:	8289      	s32i.n	a8, a2, 32
40081f42:	01a0a2        	movi	a10, 1
40081f45:	ffbc65        	call8	40081b0c <update_cache>
40081f48:	f988a1        	l32r	a10, 40080568 <_init_end+0x168>
40081f4b:	03bd      	mov.n	a11, a3
40081f4d:	ffa965        	call8	400819e4 <z_swap>
40081f50:	f01d      	retw.n
	...

40081f54 <z_tick_sleep>:
40081f54:	004136        	entry	a1, 32
40081f57:	204230        	or	a4, a2, a3
40081f5a:	74cc      	bnez.n	a4, 40081f65 <z_tick_sleep+0x11>
40081f5c:	fff7e5        	call8	40081edc <z_impl_k_yield>
40081f5f:	0019c6        	j	40081fca <z_tick_sleep+0x76>
40081f62:	000000        	ill
40081f65:	e47c      	movi.n	a4, -2
40081f67:	c05420        	sub	a5, a4, a2
40081f6a:	180c      	movi.n	a8, 1
40081f6c:	013457        	bltu	a4, a5, 40081f71 <z_tick_sleep+0x1d>
40081f6f:	080c      	movi.n	a8, 0
40081f71:	f47c      	movi.n	a4, -1
40081f73:	c04430        	sub	a4, a4, a3
40081f76:	c04480        	sub	a4, a4, a8
40081f79:	0c14e6        	bgei	a4, 1, 40081f89 <z_tick_sleep+0x35>
40081f7c:	04cc      	bnez.n	a4, 40081f80 <z_tick_sleep+0x2c>
40081f7e:	75cc      	bnez.n	a5, 40081f89 <z_tick_sleep+0x35>
40081f80:	004365        	call8	400823b8 <sys_clock_tick_get_32>
40081f83:	4a2a      	add.n	a4, a10, a2
40081f85:	000146        	j	40081f8e <z_tick_sleep+0x3a>
40081f88:	e47c00        	extui	a7, a0, 12, 15
40081f8b:	c04420        	sub	a4, a4, a2
40081f8e:	006360        	rsil	a6, 3
40081f91:	f91f51        	l32r	a5, 40080410 <_init_end+0x10>
40081f94:	25a8      	l32i.n	a10, a5, 8
40081f96:	ffd9a5        	call8	40081d30 <unready_thread>
40081f99:	25a8      	l32i.n	a10, a5, 8
40081f9b:	f970b1        	l32r	a11, 4008055c <_init_end+0x15c>
40081f9e:	02cd      	mov.n	a12, a2
40081fa0:	03dd      	mov.n	a13, a3
40081fa2:	18caa2        	addi	a10, a10, 24
40081fa5:	001aa5        	call8	40082150 <z_add_timeout>
40081fa8:	2538      	l32i.n	a3, a5, 8
40081faa:	10a052        	movi	a5, 16
40081fad:	0d0322        	l8ui	a2, a3, 13
40081fb0:	f96ea1        	l32r	a10, 40080568 <_init_end+0x168>
40081fb3:	202250        	or	a2, a2, a5
40081fb6:	0d4322        	s8i	a2, a3, 13
40081fb9:	20b660        	or	a11, a6, a6
40081fbc:	ffa265        	call8	400819e4 <z_swap>
40081fbf:	003fa5        	call8	400823b8 <sys_clock_tick_get_32>
40081fc2:	c024a0        	sub	a2, a4, a10
40081fc5:	013427        	bltu	a4, a2, 40081fca <z_tick_sleep+0x76>
40081fc8:	02cc      	bnez.n	a2, 40081fcc <z_tick_sleep+0x78>
40081fca:	020c      	movi.n	a2, 0
40081fcc:	f01d      	retw.n
	...

40081fd0 <z_impl_k_sleep>:
40081fd0:	004136        	entry	a1, 32
40081fd3:	20a220        	or	a10, a2, a2
40081fd6:	130266        	bnei	a2, -1, 40081fed <z_impl_k_sleep+0x1d>
40081fd9:	100366        	bnei	a3, -1, 40081fed <z_impl_k_sleep+0x1d>
40081fdc:	f90d81        	l32r	a8, 40080410 <_init_end+0x10>
40081fdf:	0228a2        	l32i	a10, a8, 8
40081fe2:	ffe225        	call8	40081e04 <z_impl_k_thread_suspend>
40081fe5:	20a330        	or	a10, a3, a3
40081fe8:	000586        	j	40082002 <z_impl_k_sleep+0x32>
40081feb:	300000        	xor	a0, a0, a0
40081fee:	2520b3        	lsi	f11, a0, 148
40081ff1:	c1fff6        	bgeui	a15, 0x100, 40081fb6 <z_tick_sleep+0x62>
40081ff4:	d1f960        	mul16s	a15, a9, a6
40081ff7:	1e          	.byte 0x1e
40081ff8:	a0f9      	s32i.n	a15, a0, 40
40081ffa:	bf          	.byte 0xbf
40081ffb:	5f8131        	l32r	a3, 40059e00 <__umoddi3+0x4cb80>
40081ffe:	e0f9      	s32i.n	a15, a0, 56
40082000:	0008      	l32i.n	a0, a0, 0
40082002:	202aa0        	or	a2, a10, a10
40082005:	000090        	retw

40082008 <z_impl_z_current_get>:
40082008:	004136        	entry	a1, 32
4008200b:	f90181        	l32r	a8, 40080410 <_init_end+0x10>
4008200e:	2828      	l32i.n	a2, a8, 8
40082010:	f01d      	retw.n
	...

40082014 <z_thread_abort>:
40082014:	004136        	entry	a1, 32
40082017:	006340        	rsil	a4, 3
4008201a:	0d0282        	l8ui	a8, a2, 13
4008201d:	890c      	movi.n	a9, 8
4008201f:	020897        	bnone	a8, a9, 40082025 <z_thread_abort+0x11>
40082022:	001c86        	j	40082098 <z_thread_abort+0x84>
40082025:	dfaf32        	movi	a3, -33
40082028:	103830        	and	a3, a8, a3
4008202b:	203390        	or	a3, a3, a9
4008202e:	74a030        	extui	a10, a3, 0, 8
40082031:	05e377        	bbsi	a3, 7, 4008203a <z_thread_abort+0x26>
40082034:	0d42a2        	s8i	a10, a2, 13
40082037:	000406        	j	4008204b <z_thread_abort+0x37>
4008203a:	5fa032        	movi	a3, 95
4008203d:	108830        	and	a8, a8, a3
40082040:	208890        	or	a8, a8, a9
40082043:	0d4282        	s8i	a8, a2, 13
40082046:	02ad      	mov.n	a10, a2
40082048:	0043e5        	call8	40082488 <sys_dlist_remove>
4008204b:	2238      	l32i.n	a3, a2, 8
4008204d:	338c      	beqz.n	a3, 40082054 <z_thread_abort+0x40>
4008204f:	02ad      	mov.n	a10, a2
40082051:	ff91e5        	call8	40081970 <unpend_thread_no_timeout>
40082054:	18c2a2        	addi	a10, a2, 24
40082057:	002265        	call8	4008227c <z_abort_timeout>
4008205a:	000506        	j	40082072 <z_thread_abort+0x5e>
4008205d:	03ad      	mov.n	a10, a3
4008205f:	ff9125        	call8	40081970 <unpend_thread_no_timeout>
40082062:	18c3a2        	addi	a10, a3, 24
40082065:	002165        	call8	4008227c <z_abort_timeout>
40082068:	080c      	movi.n	a8, 0
4008206a:	116382        	s32i	a8, a3, 68
4008206d:	03ad      	mov.n	a10, a3
4008206f:	ffbc25        	call8	40081c30 <ready_thread>
40082072:	e238      	l32i.n	a3, a2, 56
40082074:	438c      	beqz.n	a3, 4008207c <z_thread_abort+0x68>
40082076:	38c282        	addi	a8, a2, 56
40082079:	e09387        	bne	a3, a8, 4008205d <z_thread_abort+0x49>
4008207c:	1a0c      	movi.n	a10, 1
4008207e:	ffa8e5        	call8	40081b0c <update_cache>
40082081:	f8e331        	l32r	a3, 40080410 <_init_end+0x10>
40082084:	2338      	l32i.n	a3, a3, 8
40082086:	0e9327        	bne	a3, a2, 40082098 <z_thread_abort+0x84>
40082089:	03f520        	rsr.misc1	a2
4008208c:	0228      	l32i.n	a2, a2, 0
4008208e:	62cc      	bnez.n	a2, 40082098 <z_thread_abort+0x84>
40082090:	f936a1        	l32r	a10, 40080568 <_init_end+0x168>
40082093:	04bd      	mov.n	a11, a4
40082095:	ff94e5        	call8	400819e4 <z_swap>
40082098:	13e640        	wsr.ps	a4
4008209b:	002010        	rsync
4008209e:	f01d      	retw.n

400820a0 <z_impl_k_thread_abort>:
400820a0:	004136        	entry	a1, 32
400820a3:	02ad      	mov.n	a10, a2
400820a5:	fff6e5        	call8	40082014 <z_thread_abort>
400820a8:	f01d      	retw.n
	...

400820ac <elapsed>:
400820ac:	004136        	entry	a1, 32
400820af:	f93381        	l32r	a8, 4008057c <_init_end+0x17c>
400820b2:	0a0c      	movi.n	a10, 0
400820b4:	0888      	l32i.n	a8, a8, 0
400820b6:	0298a7        	bne	a8, a10, 400820bc <elapsed+0x10>
400820b9:	005de5        	call8	40082698 <sys_clock_elapsed>
400820bc:	0a2d      	mov.n	a2, a10
400820be:	f01d      	retw.n

400820c0 <remove_timeout>:
400820c0:	004136        	entry	a1, 32
400820c3:	0288      	l32i.n	a8, a2, 0
400820c5:	12ac      	beqz.n	a2, 400820ea <remove_timeout+0x2a>
400820c7:	f92e91        	l32r	a9, 40080580 <_init_end+0x180>
400820ca:	1998      	l32i.n	a9, a9, 4
400820cc:	1a1297        	beq	a2, a9, 400820ea <remove_timeout+0x2a>
400820cf:	789c      	beqz.n	a8, 400820ea <remove_timeout+0x2a>
400820d1:	48c8      	l32i.n	a12, a8, 16
400820d3:	42a8      	l32i.n	a10, a2, 16
400820d5:	58b8      	l32i.n	a11, a8, 20
400820d7:	acaa      	add.n	a10, a12, a10
400820d9:	52d8      	l32i.n	a13, a2, 20
400820db:	190c      	movi.n	a9, 1
400820dd:	013ac7        	bltu	a10, a12, 400820e2 <remove_timeout+0x22>
400820e0:	090c      	movi.n	a9, 0
400820e2:	bbda      	add.n	a11, a11, a13
400820e4:	99ba      	add.n	a9, a9, a11
400820e6:	48a9      	s32i.n	a10, a8, 16
400820e8:	5899      	s32i.n	a9, a8, 20
400820ea:	1298      	l32i.n	a9, a2, 4
400820ec:	0989      	s32i.n	a8, a9, 0
400820ee:	1899      	s32i.n	a9, a8, 4
400820f0:	080c      	movi.n	a8, 0
400820f2:	0289      	s32i.n	a8, a2, 0
400820f4:	1289      	s32i.n	a8, a2, 4
400820f6:	f01d      	retw.n

400820f8 <next_timeout>:
400820f8:	004136        	entry	a1, 32
400820fb:	f92181        	l32r	a8, 40080580 <_init_end+0x180>
400820fe:	002822        	l32i	a2, a8, 0
40082101:	029287        	bne	a2, a8, 40082107 <next_timeout+0xf>
40082104:	00a022        	movi	a2, 0
40082107:	fffa65        	call8	400820ac <elapsed>
4008210a:	f8c581        	l32r	a8, 40080420 <_init_end+0x20>
4008210d:	02f216        	beqz	a2, 40082140 <next_timeout+0x48>
40082110:	42b8      	l32i.n	a11, a2, 16
40082112:	31cfa0        	srai	a12, a10, 31
40082115:	c0aba0        	sub	a10, a11, a10
40082118:	5288      	l32i.n	a8, a2, 20
4008211a:	190c      	movi.n	a9, 1
4008211c:	013ba7        	bltu	a11, a10, 40082121 <next_timeout+0x29>
4008211f:	090c      	movi.n	a9, 0
40082121:	c088c0        	sub	a8, a8, a12
40082124:	c09890        	sub	a9, a8, a9
40082127:	1219e6        	bgei	a9, 1, 4008213d <next_timeout+0x45>
4008212a:	002956        	bnez	a9, 40082130 <next_timeout+0x38>
4008212d:	00ca96        	bltz	a10, 4008213d <next_timeout+0x45>
40082130:	0a8d      	mov.n	a8, a10
40082132:	00a9d6        	bgez	a9, 40082140 <next_timeout+0x48>
40082135:	080c      	movi.n	a8, 0
40082137:	000146        	j	40082140 <next_timeout+0x48>
4008213a:	000000        	ill
4008213d:	f8b881        	l32r	a8, 40080420 <_init_end+0x20>
40082140:	f8b421        	l32r	a2, 40080410 <_init_end+0x10>
40082143:	4228      	l32i.n	a2, a2, 16
40082145:	128c      	beqz.n	a2, 4008214a <next_timeout+0x52>
40082147:	012287        	blt	a2, a8, 4008214c <next_timeout+0x54>
4008214a:	082d      	mov.n	a2, a8
4008214c:	f01d      	retw.n
	...

40082150 <z_add_timeout>:
40082150:	004136        	entry	a1, 32
40082153:	046d      	mov.n	a6, a4
40082155:	050466        	bnei	a4, -1, 4008215e <z_add_timeout+0xe>
40082158:	020566        	bnei	a5, -1, 4008215e <z_add_timeout+0xe>
4008215b:	0046c6        	j	4008227a <z_add_timeout+0x12a>
4008215e:	2239      	s32i.n	a3, a2, 8
40082160:	006330        	rsil	a3, 3
40082163:	e97c      	movi.n	a9, -2
40082165:	c0a940        	sub	a10, a9, a4
40082168:	01a082        	movi	a8, 1
4008216b:	0139a7        	bltu	a9, a10, 40082170 <z_add_timeout+0x20>
4008216e:	080c      	movi.n	a8, 0
40082170:	fa7c      	movi.n	a10, -1
40082172:	c0aa50        	sub	a10, a10, a5
40082175:	c0aa80        	sub	a10, a10, a8
40082178:	03da96        	bltz	a10, 400821b9 <z_add_timeout+0x69>
4008217b:	f90261        	l32r	a6, 40080584 <_init_end+0x184>
4008217e:	e97c      	movi.n	a9, -2
40082180:	06a8      	l32i.n	a10, a6, 0
40082182:	16b8      	l32i.n	a11, a6, 4
40082184:	c0a9a0        	sub	a10, a9, a10
40082187:	160c      	movi.n	a6, 1
40082189:	0139a7        	bltu	a9, a10, 4008218e <z_add_timeout+0x3e>
4008218c:	060c      	movi.n	a6, 0
4008218e:	f87c      	movi.n	a8, -1
40082190:	c088b0        	sub	a8, a8, a11
40082193:	c04a40        	sub	a4, a10, a4
40082196:	c08860        	sub	a8, a8, a6
40082199:	160c      	movi.n	a6, 1
4008219b:	023a47        	bltu	a10, a4, 400821a1 <z_add_timeout+0x51>
4008219e:	00a062        	movi	a6, 0
400821a1:	c08850        	sub	a8, a8, a5
400821a4:	c09860        	sub	a9, a8, a6
400821a7:	045d      	mov.n	a5, a4
400821a9:	0719e6        	bgei	a9, 1, 400821b4 <z_add_timeout+0x64>
400821ac:	09cc      	bnez.n	a9, 400821b0 <z_add_timeout+0x60>
400821ae:	24cc      	bnez.n	a4, 400821b4 <z_add_timeout+0x64>
400821b0:	150c      	movi.n	a5, 1
400821b2:	090c      	movi.n	a9, 0
400821b4:	4259      	s32i.n	a5, a2, 16
400821b6:	000886        	j	400821dc <z_add_timeout+0x8c>
400821b9:	ffef25        	call8	400820ac <elapsed>
400821bc:	01c442        	addi	a4, a4, 1
400821bf:	01a092        	movi	a9, 1
400821c2:	023467        	bltu	a4, a6, 400821c8 <z_add_timeout+0x78>
400821c5:	00a092        	movi	a9, 0
400821c8:	318fa0        	srai	a8, a10, 31
400821cb:	a4aa      	add.n	a10, a4, a10
400821cd:	995a      	add.n	a9, a9, a5
400821cf:	1b0c      	movi.n	a11, 1
400821d1:	013a47        	bltu	a10, a4, 400821d6 <z_add_timeout+0x86>
400821d4:	0b0c      	movi.n	a11, 0
400821d6:	998a      	add.n	a9, a9, a8
400821d8:	9b9a      	add.n	a9, a11, a9
400821da:	42a9      	s32i.n	a10, a2, 16
400821dc:	f8e951        	l32r	a5, 40080580 <_init_end+0x180>
400821df:	5299      	s32i.n	a9, a2, 20
400821e1:	0588      	l32i.n	a8, a5, 0
400821e3:	15c8      	l32i.n	a12, a5, 4
400821e5:	1d0c      	movi.n	a13, 1
400821e7:	0e0c      	movi.n	a14, 0
400821e9:	539857        	bne	a8, a5, 40082240 <z_add_timeout+0xf0>
400821ec:	001fc6        	j	4008226f <z_add_timeout+0x11f>
400821ef:	589800        	ssxp	f9, a8, a0
400821f2:	5248      	l32i.n	a4, a2, 20
400821f4:	48a8      	l32i.n	a10, a8, 16
400821f6:	42b8      	l32i.n	a11, a2, 16
400821f8:	052497        	blt	a4, a9, 40082201 <z_add_timeout+0xb1>
400821fb:	269947        	bne	a9, a4, 40082225 <z_add_timeout+0xd5>
400821fe:	23bba7        	bgeu	a11, a10, 40082225 <z_add_timeout+0xd5>
40082201:	c0bab0        	sub	a11, a10, a11
40082204:	1c0c      	movi.n	a12, 1
40082206:	023ab7        	bltu	a10, a11, 4008220c <z_add_timeout+0xbc>
40082209:	00a0c2        	movi	a12, 0
4008220c:	c04940        	sub	a4, a9, a4
4008220f:	c044c0        	sub	a4, a4, a12
40082212:	5849      	s32i.n	a4, a8, 20
40082214:	1848      	l32i.n	a4, a8, 4
40082216:	48b9      	s32i.n	a11, a8, 16
40082218:	1249      	s32i.n	a4, a2, 4
4008221a:	0289      	s32i.n	a8, a2, 0
4008221c:	0429      	s32i.n	a2, a4, 0
4008221e:	1829      	s32i.n	a2, a8, 4
40082220:	000886        	j	40082246 <z_add_timeout+0xf6>
40082223:	a00000        	addx4	a0, a0, a0
40082226:	c0ab      	addi.n	a12, a0, 10
40082228:	0dfd      	mov.n	a15, a13
4008222a:	023ba7        	bltu	a11, a10, 40082230 <z_add_timeout+0xe0>
4008222d:	20fee0        	or	a15, a14, a14
40082230:	c04490        	sub	a4, a4, a9
40082233:	c044f0        	sub	a4, a4, a15
40082236:	42a9      	s32i.n	a10, a2, 16
40082238:	5249      	s32i.n	a4, a2, 20
4008223a:	3118c7        	beq	a8, a12, 4008226f <z_add_timeout+0x11f>
4008223d:	002882        	l32i	a8, a8, 0
40082240:	fac856        	bnez	a8, 400821f0 <z_add_timeout+0xa0>
40082243:	000a06        	j	4008226f <z_add_timeout+0x11f>
40082246:	002542        	l32i	a4, a5, 0
40082249:	169247        	bne	a2, a4, 40082263 <z_add_timeout+0x113>
4008224c:	131457        	beq	a4, a5, 40082263 <z_add_timeout+0x113>
4008224f:	ffeaa5        	call8	400820f8 <next_timeout>
40082252:	008a16        	beqz	a10, 4008225e <z_add_timeout+0x10e>
40082255:	f86e21        	l32r	a2, 40080410 <_init_end+0x10>
40082258:	042222        	l32i	a2, a2, 16
4008225b:	0412a7        	beq	a2, a10, 40082263 <z_add_timeout+0x113>
4008225e:	0b0c      	movi.n	a11, 0
40082260:	003d65        	call8	40082638 <sys_clock_set_timeout>
40082263:	13e630        	wsr.ps	a3
40082266:	002010        	rsync
40082269:	000346        	j	4008227a <z_add_timeout+0x12a>
4008226c:	000000        	ill
4008226f:	0259      	s32i.n	a5, a2, 0
40082271:	12c9      	s32i.n	a12, a2, 4
40082273:	0c29      	s32i.n	a2, a12, 0
40082275:	1529      	s32i.n	a2, a5, 4
40082277:	fff2c6        	j	40082246 <z_add_timeout+0xf6>
4008227a:	f01d      	retw.n

4008227c <z_abort_timeout>:
4008227c:	004136        	entry	a1, 32
4008227f:	02ad      	mov.n	a10, a2
40082281:	006320        	rsil	a2, 3
40082284:	0a98      	l32i.n	a9, a10, 0
40082286:	a86c      	movi.n	a8, -22
40082288:	004916        	beqz	a9, 40082290 <z_abort_timeout+0x14>
4008228b:	ffe365        	call8	400820c0 <remove_timeout>
4008228e:	080c      	movi.n	a8, 0
40082290:	13e620        	wsr.ps	a2
40082293:	002010        	rsync
40082296:	082d      	mov.n	a2, a8
40082298:	f01d      	retw.n
	...

4008229c <z_set_timeout_expiry>:
4008229c:	004136        	entry	a1, 32
4008229f:	743030        	extui	a3, a3, 0, 8
400822a2:	006340        	rsil	a4, 3
400822a5:	ffe525        	call8	400820f8 <next_timeout>
400822a8:	00a0c2        	movi	a12, 0
400822ab:	01ca92        	addi	a9, a10, 1
400822ae:	01a082        	movi	a8, 1
400822b1:	0c5d      	mov.n	a5, a12
400822b3:	835890        	moveqz	a5, a8, a9
400822b6:	059d      	mov.n	a9, a5
400822b8:	01aa27        	bge	a10, a2, 400822bd <z_set_timeout_expiry+0x21>
400822bb:	0c8d      	mov.n	a8, a12
400822bd:	208980        	or	a8, a9, a8
400822c0:	0a6807        	bbci	a8, 0, 400822ce <z_set_timeout_expiry+0x32>
400822c3:	072aa6        	blti	a10, 2, 400822ce <z_set_timeout_expiry+0x32>
400822c6:	03bd      	mov.n	a11, a3
400822c8:	43aa20        	min	a10, a10, a2
400822cb:	0036e5        	call8	40082638 <sys_clock_set_timeout>
400822ce:	13e640        	wsr.ps	a4
400822d1:	002010        	rsync
400822d4:	f01d      	retw.n
	...

400822d8 <sys_clock_announce>:
400822d8:	004136        	entry	a1, 32
400822db:	02ad      	mov.n	a10, a2
400822dd:	ff8ea5        	call8	40081bc8 <z_time_slice>
400822e0:	006330        	rsil	a3, 3
400822e3:	f8a661        	l32r	a6, 4008057c <_init_end+0x17c>
400822e6:	f86241        	l32r	a4, 40080470 <_init_end+0x70>
400822e9:	0629      	s32i.n	a2, a6, 0
400822eb:	f86151        	l32r	a5, 40080470 <_init_end+0x70>
400822ee:	000c86        	j	40082324 <sys_clock_announce+0x4c>
400822f1:	989a      	add.n	a9, a8, a9
400822f3:	31bf80        	srai	a11, a8, 31
400822f6:	1a0c      	movi.n	a10, 1
400822f8:	013987        	bltu	a9, a8, 400822fd <sys_clock_announce+0x25>
400822fb:	0a0c      	movi.n	a10, 0
400822fd:	ebea      	add.n	a14, a11, a14
400822ff:	aaea      	add.n	a10, a10, a14
40082301:	1da9      	s32i.n	a10, a13, 4
40082303:	c08c80        	sub	a8, a12, a8
40082306:	4249      	s32i.n	a4, a2, 16
40082308:	5259      	s32i.n	a5, a2, 20
4008230a:	02ad      	mov.n	a10, a2
4008230c:	0d99      	s32i.n	a9, a13, 0
4008230e:	006682        	s32i	a8, a6, 0
40082311:	ffdae5        	call8	400820c0 <remove_timeout>
40082314:	13e630        	wsr.ps	a3
40082317:	002010        	rsync
4008231a:	2238      	l32i.n	a3, a2, 8
4008231c:	02ad      	mov.n	a10, a2
4008231e:	0003e0        	callx8	a3
40082321:	006330        	rsil	a3, 3
40082324:	f89781        	l32r	a8, 40080580 <_init_end+0x180>
40082327:	f897d1        	l32r	a13, 40080584 <_init_end+0x184>
4008232a:	06c8      	l32i.n	a12, a6, 0
4008232c:	0828      	l32i.n	a2, a8, 0
4008232e:	0d98      	l32i.n	a9, a13, 0
40082330:	1de8      	l32i.n	a14, a13, 4
40082332:	31bfc0        	srai	a11, a12, 31
40082335:	129c      	beqz.n	a2, 4008234a <sys_clock_announce+0x72>
40082337:	0f1287        	beq	a2, a8, 4008234a <sys_clock_announce+0x72>
4008233a:	52a8      	l32i.n	a10, a2, 20
4008233c:	4288      	l32i.n	a8, a2, 16
4008233e:	322ba7        	blt	a11, a10, 40082374 <sys_clock_announce+0x9c>
40082341:	ac9ab7        	bne	a10, a11, 400822f1 <sys_clock_announce+0x19>
40082344:	a9bc87        	bgeu	a12, a8, 400822f1 <sys_clock_announce+0x19>
40082347:	000a46        	j	40082374 <sys_clock_announce+0x9c>
4008234a:	9c9a      	add.n	a9, a12, a9
4008234c:	01a022        	movi	a2, 1
4008234f:	0139c7        	bltu	a9, a12, 40082354 <sys_clock_announce+0x7c>
40082352:	020c      	movi.n	a2, 0
40082354:	80bbe0        	add	a11, a11, a14
40082357:	8022b0        	add	a2, a2, a11
4008235a:	1d29      	s32i.n	a2, a13, 4
4008235c:	020c      	movi.n	a2, 0
4008235e:	0d99      	s32i.n	a9, a13, 0
40082360:	0629      	s32i.n	a2, a6, 0
40082362:	ffd965        	call8	400820f8 <next_timeout>
40082365:	02bd      	mov.n	a11, a2
40082367:	002d25        	call8	40082638 <sys_clock_set_timeout>
4008236a:	13e630        	wsr.ps	a3
4008236d:	002010        	rsync
40082370:	f01d      	retw.n
40082372:	c00000        	sub	a0, a0, a0
40082375:	c048      	l32i.n	a4, a0, 48
40082377:	01a052        	movi	a5, 1
4008237a:	023847        	bltu	a8, a4, 40082380 <sys_clock_announce+0xa8>
4008237d:	00a052        	movi	a5, 0
40082380:	c0aab0        	sub	a10, a10, a11
40082383:	c0aa50        	sub	a10, a10, a5
40082386:	4249      	s32i.n	a4, a2, 16
40082388:	52a9      	s32i.n	a10, a2, 20
4008238a:	ffef06        	j	4008234a <sys_clock_announce+0x72>
4008238d:	000000        	ill

40082390 <sys_clock_tick_get>:
40082390:	004136        	entry	a1, 32
40082393:	006340        	rsil	a4, 3
40082396:	003025        	call8	40082698 <sys_clock_elapsed>
40082399:	f87a31        	l32r	a3, 40080584 <_init_end+0x184>
4008239c:	002322        	l32i	a2, a3, 0
4008239f:	012382        	l32i	a8, a3, 4
400823a2:	802a20        	add	a2, a10, a2
400823a5:	130c      	movi.n	a3, 1
400823a7:	0132a7        	bltu	a2, a10, 400823ac <sys_clock_tick_get+0x1c>
400823aa:	030c      	movi.n	a3, 0
400823ac:	338a      	add.n	a3, a3, a8
400823ae:	13e640        	wsr.ps	a4
400823b1:	002010        	rsync
400823b4:	f01d      	retw.n
	...

400823b8 <sys_clock_tick_get_32>:
400823b8:	004136        	entry	a1, 32
400823bb:	fffd65        	call8	40082390 <sys_clock_tick_get>
400823be:	0a2d      	mov.n	a2, a10
400823c0:	f01d      	retw.n
	...

400823c4 <sys_clock_timeout_end_calc>:
400823c4:	004136        	entry	a1, 32
400823c7:	020266        	bnei	a2, -1, 400823cd <sys_clock_timeout_end_calc+0x9>
400823ca:	560326        	beqi	a3, -1, 40082424 <sys_clock_timeout_end_calc+0x60>
400823cd:	208320        	or	a8, a3, a2
400823d0:	98cc      	bnez.n	a8, 400823dd <sys_clock_timeout_end_calc+0x19>
400823d2:	fffbe5        	call8	40082390 <sys_clock_tick_get>
400823d5:	0a2d      	mov.n	a2, a10
400823d7:	001346        	j	40082428 <sys_clock_timeout_end_calc+0x64>
400823da:	000000        	ill
400823dd:	e87c      	movi.n	a8, -2
400823df:	c09820        	sub	a9, a8, a2
400823e2:	1a0c      	movi.n	a10, 1
400823e4:	013897        	bltu	a8, a9, 400823e9 <sys_clock_timeout_end_calc+0x25>
400823e7:	0a0c      	movi.n	a10, 0
400823e9:	f87c      	movi.n	a8, -1
400823eb:	c08830        	sub	a8, a8, a3
400823ee:	c088a0        	sub	a8, a8, a10
400823f1:	007896        	bltz	a8, 400823fc <sys_clock_timeout_end_calc+0x38>
400823f4:	092d      	mov.n	a2, a9
400823f6:	08bd      	mov.n	a11, a8
400823f8:	000b06        	j	40082428 <sys_clock_timeout_end_calc+0x64>
400823fb:	f92500        	lsi	f0, a5, 0x3e4
400823fe:	ff          	.byte 0xff
400823ff:	209220        	or	a9, a2, a2
40082402:	208330        	or	a8, a3, a3
40082405:	0813e6        	bgei	a3, 1, 40082411 <sys_clock_timeout_end_calc+0x4d>
40082408:	001356        	bnez	a3, 4008240d <sys_clock_timeout_end_calc+0x49>
4008240b:	22cc      	bnez.n	a2, 40082411 <sys_clock_timeout_end_calc+0x4d>
4008240d:	190c      	movi.n	a9, 1
4008240f:	080c      	movi.n	a8, 0
40082411:	a9aa      	add.n	a10, a9, a10
40082413:	130c      	movi.n	a3, 1
40082415:	013a97        	bltu	a10, a9, 4008241a <sys_clock_timeout_end_calc+0x56>
40082418:	030c      	movi.n	a3, 0
4008241a:	88ba      	add.n	a8, a8, a11
4008241c:	0a2d      	mov.n	a2, a10
4008241e:	b38a      	add.n	a11, a3, a8
40082420:	000106        	j	40082428 <sys_clock_timeout_end_calc+0x64>
40082423:	f27c00        	rems	a7, a12, a0
40082426:	02bd      	mov.n	a11, a2
40082428:	0b3d      	mov.n	a3, a11
4008242a:	f01d      	retw.n

4008242c <k_free>:
4008242c:	004136        	entry	a1, 32
4008242f:	00b216        	beqz	a2, 4008243e <k_free+0x12>
40082432:	fcc222        	addi	a2, a2, -4
40082435:	0022a2        	l32i	a10, a2, 0
40082438:	20b220        	or	a11, a2, a2
4008243b:	ff3be5        	call8	400817f8 <k_heap_free>
4008243e:	f01d      	retw.n

40082440 <boot_banner>:
40082440:	004136        	entry	a1, 32
40082443:	f851c1        	l32r	a12, 40080588 <_init_end+0x188>
40082446:	f851b1        	l32r	a11, 4008058c <_init_end+0x18c>
40082449:	f851a1        	l32r	a10, 40080590 <_init_end+0x190>
4008244c:	00cfa5        	call8	40083148 <printk>
4008244f:	f01d      	retw.n
40082451:	000000        	ill

40082454 <z_device_state_init>:
40082454:	004136        	entry	a1, 32
40082457:	f01d      	retw.n
40082459:	000000        	ill

4008245c <z_device_is_ready>:
4008245c:	004136        	entry	a1, 32
4008245f:	028d      	mov.n	a8, a2
40082461:	329c      	beqz.n	a2, 40082478 <z_device_is_ready+0x1c>
40082463:	3228      	l32i.n	a2, a2, 12
40082465:	190c      	movi.n	a9, 1
40082467:	0288      	l32i.n	a8, a2, 0
40082469:	00a022        	movi	a2, 0
4008246c:	848080        	extui	a8, a8, 0, 9
4008246f:	ffd882        	addmi	a8, a8, 0xffffff00
40082472:	832980        	moveqz	a2, a9, a8
40082475:	748020        	extui	a8, a2, 0, 8
40082478:	082d      	mov.n	a2, a8
4008247a:	f01d      	retw.n

4008247c <arch_system_halt>:
4008247c:	004136        	entry	a1, 32
4008247f:	006380        	rsil	a8, 3
40082482:	ffff06        	j	40082482 <arch_system_halt+0x6>
40082485:	000000        	ill

40082488 <sys_dlist_remove>:
40082488:	004136        	entry	a1, 32
4008248b:	0288      	l32i.n	a8, a2, 0
4008248d:	1298      	l32i.n	a9, a2, 4
4008248f:	0989      	s32i.n	a8, a9, 0
40082491:	1899      	s32i.n	a9, a8, 4
40082493:	080c      	movi.n	a8, 0
40082495:	0289      	s32i.n	a8, a2, 0
40082497:	1289      	s32i.n	a8, a2, 4
40082499:	f01d      	retw.n
	...

4008249c <z_priq_dumb_best>:
4008249c:	004136        	entry	a1, 32
4008249f:	0288      	l32i.n	a8, a2, 0
400824a1:	188c      	beqz.n	a8, 400824a6 <z_priq_dumb_best+0xa>
400824a3:	019287        	bne	a2, a8, 400824a8 <z_priq_dumb_best+0xc>
400824a6:	080c      	movi.n	a8, 0
400824a8:	082d      	mov.n	a2, a8
400824aa:	f01d      	retw.n

400824ac <xthal_window_spill_nw>:
400824ac:	034820        	rsr.windowbase	a2
400824af:	221b      	addi.n	a2, a2, 1
400824b1:	400200        	ssr	a2
400824b4:	034930        	rsr.windowstart	a3
400824b7:	912030        	srl	a2, a3
400824ba:	a13300        	sll	a3, a3
400824bd:	0bf3d6        	bgez	a3, 40082580 <xthal_window_spill_nw+0xd4>
400824c0:	f53030        	extui	a3, a3, 16, 16
400824c3:	202230        	or	a2, a2, a3
400824c6:	603020        	neg	a3, a2
400824c9:	103320        	and	a3, a3, a2
400824cc:	40f330        	nsau	a3, a3
400824cf:	401300        	ssl	a3
400824d2:	912020        	srl	a2, a2
400824d5:	134920        	wsr.windowstart	a2
400824d8:	034820        	rsr.windowbase	a2
400824db:	1fc222        	addi	a2, a2, 31
400824de:	c03230        	sub	a3, a2, a3
400824e1:	134830        	wsr.windowbase	a3
400824e4:	002010        	rsync
400824e7:	034920        	rsr.windowstart	a2
400824ea:	07a216        	beqz	a2, 40082568 <xthal_window_spill_nw+0xbc>
400824ed:	08e207        	bbsi	a2, 0, 400824f9 <xthal_window_spill_nw+0x4d>
400824f0:	19e217        	bbsi	a2, 1, 4008250d <xthal_window_spill_nw+0x61>
400824f3:	3ae227        	bbsi	a2, 2, 40082531 <xthal_window_spill_nw+0x85>
400824f6:	002306        	j	40082586 <xthal_window_spill_nw+0xda>
400824f9:	f0c932        	addi	a3, a9, -16
400824fc:	0349      	s32i.n	a4, a3, 0
400824fe:	1359      	s32i.n	a5, a3, 4
40082500:	2369      	s32i.n	a6, a3, 8
40082502:	3379      	s32i.n	a7, a3, 12
40082504:	416120        	srli	a6, a2, 1
40082507:	408010        	rotw	1
4008250a:	fff706        	j	400824ea <xthal_window_spill_nw+0x3e>
4008250d:	f0cd32        	addi	a3, a13, -16
40082510:	0349      	s32i.n	a4, a3, 0
40082512:	1359      	s32i.n	a5, a3, 4
40082514:	2369      	s32i.n	a6, a3, 8
40082516:	3379      	s32i.n	a7, a3, 12
40082518:	f4c532        	addi	a3, a5, -12
4008251b:	0338      	l32i.n	a3, a3, 0
4008251d:	e0c332        	addi	a3, a3, -32
40082520:	0389      	s32i.n	a8, a3, 0
40082522:	1399      	s32i.n	a9, a3, 4
40082524:	23a9      	s32i.n	a10, a3, 8
40082526:	33b9      	s32i.n	a11, a3, 12
40082528:	41a220        	srli	a10, a2, 2
4008252b:	408020        	rotw	2
4008252e:	ffee06        	j	400824ea <xthal_window_spill_nw+0x3e>
40082531:	408010        	rotw	1
40082534:	f0cdd2        	addi	a13, a13, -16
40082537:	0d09      	s32i.n	a0, a13, 0
40082539:	1d19      	s32i.n	a1, a13, 4
4008253b:	2d29      	s32i.n	a2, a13, 8
4008253d:	3d39      	s32i.n	a3, a13, 12
4008253f:	f4c132        	addi	a3, a1, -12
40082542:	0338      	l32i.n	a3, a3, 0
40082544:	10cdd2        	addi	a13, a13, 16
40082547:	d0c332        	addi	a3, a3, -48
4008254a:	0349      	s32i.n	a4, a3, 0
4008254c:	1359      	s32i.n	a5, a3, 4
4008254e:	2369      	s32i.n	a6, a3, 8
40082550:	3379      	s32i.n	a7, a3, 12
40082552:	4389      	s32i.n	a8, a3, 16
40082554:	5399      	s32i.n	a9, a3, 20
40082556:	63a9      	s32i.n	a10, a3, 24
40082558:	73b9      	s32i.n	a11, a3, 28
4008255a:	4080f0        	rotw	-1
4008255d:	41e320        	srli	a14, a2, 3
40082560:	408030        	rotw	3
40082563:	ffe0c6        	j	400824ea <xthal_window_spill_nw+0x3e>
40082566:	100000        	and	a0, a0, a0
40082569:	204080        	or	a4, a0, a8
4008256c:	0348      	l32i.n	a4, a3, 0
4008256e:	401200        	ssl	a2
40082571:	120c      	movi.n	a2, 1
40082573:	a12200        	sll	a2, a2
40082576:	134920        	wsr.windowstart	a2
40082579:	002010        	rsync
4008257c:	020c      	movi.n	a2, 0
4008257e:	f00d      	ret.n
40082580:	120c      	movi.n	a2, 1
40082582:	f00d      	ret.n
40082584:	f00000        	subx8	a0, a0, a0
40082587:	1b1122        	l16ui	a2, a1, 54
4008258a:	483022        	lsi	f2, a0, 0x120
4008258d:	e2f703        	lsi	f0, a7, 0x388
40082590:	0b0a      	add.n	a0, a11, a0
40082592:	22f033        	lsi	f3, a0, 136
40082595:	62f711        	l32r	a1, 4005b174 <__umoddi3+0x4def4>
40082598:	3030f7        	bltu	a0, a15, 400825cc <xthal_window_spill+0xc>
4008259b:	130034        	lsi	f3, a0, 76
4008259e:	320040        	orbc	b0, b0, b4
400825a1:	223011        	l32r	a1, 4004ae64 <__umoddi3+0x3dbe4>
400825a4:	202081        	l32r	a8, 4004a624 <__umoddi3+0x3d3a4>
400825a7:	4920f4        	mula.da.hl.ldinc	m2, a0, m0, a15
400825aa:	033013        	lsi	f1, a0, 12
400825ad:	022c03        	lsi	f0, a12, 8
400825b0:	c03230        	sub	a3, a2, a3
400825b3:	134830        	wsr.windowbase	a3
400825b6:	002010        	rsync
400825b9:	220c      	movi.n	a2, 2
400825bb:	f00d      	ret.n
400825bd:	000000        	ill

400825c0 <xthal_window_spill>:
400825c0:	002136        	entry	a1, 16
400825c3:	f7f461        	l32r	a6, 40080594 <_init_end+0x194>
400825c6:	03e650        	rsr.ps	a5
400825c9:	004d      	mov.n	a4, a0
400825cb:	102560        	and	a2, a5, a6
400825ce:	223b      	addi.n	a2, a2, 3
400825d0:	13e620        	wsr.ps	a2
400825d3:	002010        	rsync
400825d6:	ffed45        	call0	400824ac <xthal_window_spill_nw>
400825d9:	040d      	mov.n	a0, a4
400825db:	13e650        	wsr.ps	a5
400825de:	002010        	rsync
400825e1:	f01d      	retw.n
	...

400825e4 <ccompare_isr>:
400825e4:	004136        	entry	a1, 32
400825e7:	0063c0        	rsil	a12, 3
400825ea:	03eaa0        	rsr.ccount	a10
400825ed:	f7ea91        	l32r	a9, 40080598 <_init_end+0x198>
400825f0:	f7eb81        	l32r	a8, 4008059c <_init_end+0x19c>
400825f3:	0029b2        	l32i	a11, a9, 0
400825f6:	c0aab0        	sub	a10, a10, a11
400825f9:	a2aa80        	muluh	a10, a10, a8
400825fc:	f7e981        	l32r	a8, 400805a0 <_init_end+0x1a0>
400825ff:	41a9a0        	srli	a10, a10, 9
40082602:	828a80        	mull	a8, a10, a8
40082605:	8088b0        	add	a8, a8, a11
40082608:	006982        	s32i	a8, a9, 0
4008260b:	13e6c0        	wsr.ps	a12
4008260e:	002010        	rsync
40082611:	ffcc65        	call8	400822d8 <sys_clock_announce>
40082614:	f01d      	retw.n
	...

40082618 <sys_clock_driver_init>:
40082618:	004136        	entry	a1, 32
4008261b:	03ea80        	rsr.ccount	a8
4008261e:	f7e091        	l32r	a9, 400805a0 <_init_end+0x1a0>
40082621:	889a      	add.n	a8, a8, a9
40082623:	13f080        	wsr.ccompare0	a8
40082626:	03e480        	rsr.intenable	a8
40082629:	094c      	movi.n	a9, 64
4008262b:	208890        	or	a8, a8, a9
4008262e:	13e480        	wsr.intenable	a8
40082631:	002010        	rsync
40082634:	020c      	movi.n	a2, 0
40082636:	f01d      	retw.n

40082638 <sys_clock_set_timeout>:
40082638:	004136        	entry	a1, 32
4008263b:	0d0226        	beqi	a2, -1, 4008264c <sys_clock_set_timeout+0x14>
4008263e:	080c      	movi.n	a8, 0
40082640:	0d22a6        	blti	a2, 2, 40082651 <sys_clock_set_timeout+0x19>
40082643:	f7d881        	l32r	a8, 400805a4 <_init_end+0x1a4>
40082646:	072827        	blt	a8, a2, 40082651 <sys_clock_set_timeout+0x19>
40082649:	000086        	j	4008264f <sys_clock_set_timeout+0x17>
4008264c:	f7d621        	l32r	a2, 400805a4 <_init_end+0x1a4>
4008264f:	820b      	addi.n	a8, a2, -1
40082651:	0063e0        	rsil	a14, 3
40082654:	03eac0        	rsr.ccount	a12
40082657:	f7d021        	l32r	a2, 40080598 <_init_end+0x198>
4008265a:	f7d3b1        	l32r	a11, 400805a8 <_init_end+0x1a8>
4008265d:	0298      	l32i.n	a9, a2, 0
4008265f:	f7d0d1        	l32r	a13, 400805a0 <_init_end+0x1a0>
40082662:	c0bb90        	sub	a11, a11, a9
40082665:	82a8d0        	mull	a10, a8, a13
40082668:	bbca      	add.n	a11, a11, a12
4008266a:	f87c      	movi.n	a8, -1
4008266c:	3028b0        	xor	a2, a8, a11
4008266f:	0132a7        	bltu	a2, a10, 40082674 <sys_clock_set_timeout+0x3c>
40082672:	8aba      	add.n	a8, a10, a11
40082674:	f7ca21        	l32r	a2, 4008059c <_init_end+0x19c>
40082677:	a28820        	muluh	a8, a8, a2
4008267a:	e7a322        	movi	a2, 0x3e7
4008267d:	418980        	srli	a8, a8, 9
40082680:	8288d0        	mull	a8, a8, a13
40082683:	898a      	add.n	a8, a9, a8
40082685:	c0c8c0        	sub	a12, a8, a12
40082688:	0132c7        	bltu	a2, a12, 4008268d <sys_clock_set_timeout+0x55>
4008268b:	88da      	add.n	a8, a8, a13
4008268d:	13f080        	wsr.ccompare0	a8
40082690:	13e6e0        	wsr.ps	a14
40082693:	002010        	rsync
40082696:	f01d      	retw.n

40082698 <sys_clock_elapsed>:
40082698:	004136        	entry	a1, 32
4008269b:	006380        	rsil	a8, 3
4008269e:	03ea20        	rsr.ccount	a2
400826a1:	f7bd91        	l32r	a9, 40080598 <_init_end+0x198>
400826a4:	0998      	l32i.n	a9, a9, 0
400826a6:	c02290        	sub	a2, a2, a9
400826a9:	f7bc91        	l32r	a9, 4008059c <_init_end+0x19c>
400826ac:	a22290        	muluh	a2, a2, a9
400826af:	412920        	srli	a2, a2, 9
400826b2:	13e680        	wsr.ps	a8
400826b5:	002010        	rsync
400826b8:	f01d      	retw.n
	...

400826bc <encode_uint>:
400826bc:	006136        	entry	a1, 48
400826bf:	028d      	mov.n	a8, a2
400826c1:	042d      	mov.n	a2, a4
400826c3:	030442        	l8ui	a4, a4, 3
400826c6:	6fa0a2        	movi	a10, 111
400826c9:	bfc492        	addi	a9, a4, -65
400826cc:	0199      	s32i.n	a9, a1, 0
400826ce:	870c      	movi.n	a7, 8
400826d0:	2014a7        	beq	a4, a10, 400826f4 <encode_uint+0x38>
400826d3:	0d3a47        	bltu	a10, a4, 400826e4 <encode_uint+0x28>
400826d6:	a8c442        	addi	a4, a4, -88
400826d9:	0a1c      	movi.n	a10, 16
400826db:	a70c      	movi.n	a7, 10
400826dd:	837a40        	moveqz	a7, a10, a4
400826e0:	000406        	j	400826f4 <encode_uint+0x38>
400826e3:	a0a200        	addx4	a10, a2, a0
400826e6:	071c70        	lsi	f7, a12, 28
400826e9:	0714a7        	beq	a4, a10, 400826f4 <encode_uint+0x38>
400826ec:	88c442        	addi	a4, a4, -120
400826ef:	aa0c      	movi.n	a10, 10
400826f1:	937a40        	movnez	a7, a10, a4
400826f4:	064d      	mov.n	a4, a6
400826f6:	060c      	movi.n	a6, 0
400826f8:	000106        	j	40082700 <encode_uint+0x44>
400826fb:	0a8d00        	add.s	f8, f13, f0
400826fe:	0b3d      	mov.n	a3, a11
40082700:	07cd      	mov.n	a12, a7
40082702:	08ad      	mov.n	a10, a8
40082704:	0d0c      	movi.n	a13, 0
40082706:	03bd      	mov.n	a11, a3
40082708:	1189      	s32i.n	a8, a1, 4
4008270a:	f7a881        	l32r	a8, 400805ac <_init_end+0x1ac>
4008270d:	0008e0        	callx8	a8
40082710:	9c0c      	movi.n	a12, 9
40082712:	74b0a0        	extui	a11, a10, 0, 8
40082715:	1188      	l32i.n	a8, a1, 4
40082717:	063ca7        	bltu	a12, a10, 40082721 <encode_uint+0x65>
4008271a:	30cbb2        	addi	a11, a11, 48
4008271d:	000406        	j	40082731 <encode_uint+0x75>
40082720:	01c800        	slli	a12, a8, 32
40082723:	57cba2        	addi	a10, a11, 87
40082726:	991c      	movi.n	a9, 25
40082728:	74a0a0        	extui	a10, a10, 0, 8
4008272b:	0539c7        	bltu	a9, a12, 40082734 <encode_uint+0x78>
4008272e:	37cbb2        	addi	a11, a11, 55
40082731:	74a0b0        	extui	a10, a11, 0, 8
40082734:	440b      	addi.n	a4, a4, -1
40082736:	0044a2        	s8i	a10, a4, 0
40082739:	07cd      	mov.n	a12, a7
4008273b:	08ad      	mov.n	a10, a8
4008273d:	06dd      	mov.n	a13, a6
4008273f:	03bd      	mov.n	a11, a3
40082741:	1189      	s32i.n	a8, a1, 4
40082743:	f78d81        	l32r	a8, 40080578 <_init_end+0x178>
40082746:	0008e0        	callx8	a8
40082749:	1188      	l32i.n	a8, a1, 4
4008274b:	029637        	bne	a6, a3, 40082751 <encode_uint+0x95>
4008274e:	023877        	bltu	a8, a7, 40082754 <encode_uint+0x98>
40082751:	a73547        	bltu	a5, a4, 400826fc <encode_uint+0x40>
40082754:	001232        	l16ui	a3, a2, 0
40082757:	116357        	bbci	a3, 5, 4008276c <encode_uint+0xb0>
4008275a:	028766        	bnei	a7, 8, 40082760 <encode_uint+0xa4>
4008275d:	000086        	j	40082763 <encode_uint+0xa7>
40082760:	08b766        	bnei	a7, 16, 4008276c <encode_uint+0xb0>
40082763:	020232        	l8ui	a3, a2, 2
40082766:	207730        	or	a7, a7, a3
40082769:	024272        	s8i	a7, a2, 2
4008276c:	042d      	mov.n	a2, a4
4008276e:	f01d      	retw.n

40082770 <cbvprintf>:
40082770:	010136        	entry	a1, 128
40082773:	c159      	s32i.n	a5, a1, 48
40082775:	f159      	s32i.n	a5, a1, 60
40082777:	106122        	s32i	a2, a1, 64
4008277a:	116132        	s32i	a3, a1, 68
4008277d:	048d      	mov.n	a8, a4
4008277f:	d169      	s32i.n	a6, a1, 52
40082781:	e179      	s32i.n	a7, a1, 56
40082783:	050c      	movi.n	a5, 0
40082785:	025086        	j	400830cb <cbvprintf+0x95b>
40082788:	01c832        	addi	a3, a8, 1
4008278b:	126132        	s32i	a3, a1, 72
4008278e:	25a032        	movi	a3, 37
40082791:	1121b2        	l32i	a11, a1, 68
40082794:	02ad      	mov.n	a10, a2
40082796:	021237        	beq	a2, a3, 4008279c <cbvprintf+0x2c>
40082799:	01b8c6        	j	40082e80 <cbvprintf+0x710>
4008279c:	8c1c      	movi.n	a12, 24
4008279e:	0b0c      	movi.n	a11, 0
400827a0:	01ad      	mov.n	a10, a1
400827a2:	156182        	s32i	a8, a1, 84
400827a5:	00a3e5        	call8	400831e4 <memset>
400827a8:	cc0c      	movi.n	a12, 12
400827aa:	0b0c      	movi.n	a11, 0
400827ac:	a18b      	addi.n	a10, a1, 8
400827ae:	00a365        	call8	400831e4 <memset>
400827b1:	152182        	l32i	a8, a1, 84
400827b4:	010832        	l8ui	a3, a8, 1
400827b7:	0c9327        	bne	a3, a2, 400827c7 <cbvprintf+0x57>
400827ba:	282b      	addi.n	a2, a8, 2
400827bc:	532c      	movi.n	a3, 37
400827be:	126122        	s32i	a2, a1, 72
400827c1:	0b4132        	s8i	a3, a1, 11
400827c4:	010286        	j	40082bd2 <cbvprintf+0x462>
400827c7:	020c      	movi.n	a2, 0
400827c9:	136122        	s32i	a2, a1, 76
400827cc:	146122        	s32i	a2, a1, 80
400827cf:	176122        	s32i	a2, a1, 92
400827d2:	02cd      	mov.n	a12, a2
400827d4:	02fd      	mov.n	a15, a2
400827d6:	02ed      	mov.n	a14, a2
400827d8:	02ad      	mov.n	a10, a2
400827da:	029d      	mov.n	a9, a2
400827dc:	bb2c      	movi.n	a11, 43
400827de:	130c      	movi.n	a3, 1
400827e0:	1221d2        	l32i	a13, a1, 72
400827e3:	000d42        	l8ui	a4, a13, 0
400827e6:	0294b7        	bne	a4, a11, 400827ec <cbvprintf+0x7c>
400827e9:	002546        	j	40082882 <cbvprintf+0x112>
400827ec:	113b47        	bltu	a11, a4, 40082801 <cbvprintf+0x91>
400827ef:	02c466        	bnei	a4, 32, 400827f5 <cbvprintf+0x85>
400827f2:	002486        	j	40082888 <cbvprintf+0x118>
400827f5:	3d2c      	movi.n	a13, 35
400827f7:	0294d7        	bne	a4, a13, 400827fd <cbvprintf+0x8d>
400827fa:	002486        	j	40082890 <cbvprintf+0x120>
400827fd:	000406        	j	40082811 <cbvprintf+0xa1>
40082800:	dd2c00        	lsi	f0, a12, 0x374
40082803:	0294d7        	bne	a4, a13, 40082809 <cbvprintf+0x99>
40082806:	0023c6        	j	40082899 <cbvprintf+0x129>
40082809:	0d3c      	movi.n	a13, 48
4008280b:	0294d7        	bne	a4, a13, 40082811 <cbvprintf+0xa1>
4008280e:	002386        	j	400828a0 <cbvprintf+0x130>
40082811:	fa8c      	beqz.n	a10, 40082824 <cbvprintf+0xb4>
40082813:	041132        	l16ui	a3, a1, 8
40082816:	ba7c      	movi.n	a10, -5
40082818:	1199e0        	slli	a9, a9, 2
4008281b:	1033a0        	and	a3, a3, a10
4008281e:	209390        	or	a9, a3, a9
40082821:	045192        	s16i	a9, a1, 8
40082824:	9e8c      	beqz.n	a14, 40082831 <cbvprintf+0xc1>
40082826:	041132        	l16ui	a3, a1, 8
40082829:	890c      	movi.n	a9, 8
4008282b:	203390        	or	a3, a3, a9
4008282e:	045132        	s16i	a3, a1, 8
40082831:	fc8c      	beqz.n	a12, 40082844 <cbvprintf+0xd4>
40082833:	041132        	l16ui	a3, a1, 8
40082836:	fa6c      	movi.n	a10, -17
40082838:	119fc0        	slli	a9, a15, 4
4008283b:	1033a0        	and	a3, a3, a10
4008283e:	203390        	or	a3, a3, a9
40082841:	045132        	s16i	a3, a1, 8
40082844:	142132        	l32i	a3, a1, 80
40082847:	339c      	beqz.n	a3, 4008285e <cbvprintf+0xee>
40082849:	041132        	l16ui	a3, a1, 8
4008284c:	1721d2        	l32i	a13, a1, 92
4008284f:	dfafa2        	movi	a10, -33
40082852:	119db0        	slli	a9, a13, 5
40082855:	1033a0        	and	a3, a3, a10
40082858:	209390        	or	a9, a3, a9
4008285b:	045192        	s16i	a9, a1, 8
4008285e:	329c      	beqz.n	a2, 40082875 <cbvprintf+0x105>
40082860:	132122        	l32i	a2, a1, 76
40082863:	bfaf92        	movi	a9, -65
40082866:	1132a0        	slli	a3, a2, 6
40082869:	041122        	l16ui	a2, a1, 8
4008286c:	102290        	and	a2, a2, a9
4008286f:	202230        	or	a2, a2, a3
40082872:	045122        	s16i	a2, a1, 8
40082875:	2128      	l32i.n	a2, a1, 8
40082877:	434c      	movi.n	a3, 68
40082879:	102320        	and	a2, a3, a2
4008287c:	3c9237        	bne	a2, a3, 400828bc <cbvprintf+0x14c>
4008287f:	000b46        	j	400828b0 <cbvprintf+0x140>
40082882:	03ed      	mov.n	a14, a3
40082884:	000746        	j	400828a5 <cbvprintf+0x135>
40082887:	03cd00        	lsi	f0, a13, 12
4008288a:	03fd      	mov.n	a15, a3
4008288c:	000546        	j	400828a5 <cbvprintf+0x135>
4008288f:	613200        	lsi	f0, a2, 0x184
40082892:	613214        	lsi	f1, a2, 0x184
40082895:	02c617        	bnall	a6, a1, 4008289b <cbvprintf+0x12b>
40082898:	03ad00        	lsi	f0, a13, 12
4008289b:	039d      	mov.n	a9, a3
4008289d:	000106        	j	400828a5 <cbvprintf+0x135>
400828a0:	032d      	mov.n	a2, a3
400828a2:	136132        	s32i	a3, a1, 76
400828a5:	122142        	l32i	a4, a1, 72
400828a8:	441b      	addi.n	a4, a4, 1
400828aa:	126142        	s32i	a4, a1, 72
400828ad:	ffcbc6        	j	400827e0 <cbvprintf+0x70>
400828b0:	041122        	l16ui	a2, a1, 8
400828b3:	bfaf32        	movi	a3, -65
400828b6:	102230        	and	a2, a2, a3
400828b9:	045122        	s16i	a2, a1, 8
400828bc:	041192        	l16ui	a9, a1, 8
400828bf:	80a022        	movi	a2, 128
400828c2:	209920        	or	a9, a9, a2
400828c5:	045192        	s16i	a9, a1, 8
400828c8:	ab2c      	movi.n	a11, 42
400828ca:	122122        	l32i	a2, a1, 72
400828cd:	030c      	movi.n	a3, 0
400828cf:	9a0c      	movi.n	a10, 9
400828d1:	2094b7        	bne	a4, a11, 400828f5 <cbvprintf+0x185>
400828d4:	00a132        	movi	a3, 0x100
400828d7:	209930        	or	a9, a9, a3
400828da:	221b      	addi.n	a2, a2, 1
400828dc:	045192        	s16i	a9, a1, 8
400828df:	000e46        	j	4008291c <cbvprintf+0x1ac>
400828e2:	000000        	ill
400828e5:	1123e0        	slli	a2, a3, 2
400828e8:	323a      	add.n	a3, a2, a3
400828ea:	1133f0        	slli	a3, a3, 1
400828ed:	d0c332        	addi	a3, a3, -48
400828f0:	343a      	add.n	a3, a4, a3
400828f2:	202bb0        	or	a2, a11, a11
400828f5:	000242        	l8ui	a4, a2, 0
400828f8:	b21b      	addi.n	a11, a2, 1
400828fa:	d0c492        	addi	a9, a4, -48
400828fd:	e4ba97        	bgeu	a10, a9, 400828e5 <cbvprintf+0x175>
40082900:	122142        	l32i	a4, a1, 72
40082903:	151427        	beq	a4, a2, 4008291c <cbvprintf+0x1ac>
40082906:	041142        	l16ui	a4, a1, 8
40082909:	3139      	s32i.n	a3, a1, 12
4008290b:	d97c      	movi.n	a9, -3
4008290d:	053f30        	extui	a3, a3, 31, 1
40082910:	1133f0        	slli	a3, a3, 1
40082913:	104490        	and	a4, a4, a9
40082916:	203430        	or	a3, a4, a3
40082919:	045132        	s16i	a3, a1, 8
4008291c:	0002a2        	l8ui	a10, a2, 0
4008291f:	030c      	movi.n	a3, 0
40082921:	d2ca42        	addi	a4, a10, -46
40082924:	190c      	movi.n	a9, 1
40082926:	939340        	movnez	a9, a3, a4
40082929:	041142        	l16ui	a4, a1, 8
4008292c:	ffadb2        	movi	a11, 0xfffffdff
4008292f:	119970        	slli	a9, a9, 9
40082932:	1044b0        	and	a4, a4, a11
40082935:	204490        	or	a4, a4, a9
40082938:	045142        	s16i	a4, a1, 8
4008293b:	e92c      	movi.n	a9, 46
4008293d:	5b9a97        	bne	a10, a9, 4008299c <cbvprintf+0x22c>
40082940:	0102a2        	l8ui	a10, a2, 1
40082943:	a92c      	movi.n	a9, 42
40082945:	071a97        	beq	a10, a9, 40082950 <cbvprintf+0x1e0>
40082948:	221b      	addi.n	a2, a2, 1
4008294a:	990c      	movi.n	a9, 9
4008294c:	000806        	j	40082970 <cbvprintf+0x200>
4008294f:	a43200        	extui	a3, a0, 2, 11
40082952:	443000        	extui	a3, a0, 0, 5
40082955:	514220        	lsi	f2, a2, 0x144
40082958:	222b04        	lsi	f0, a11, 136
4008295b:	000f46        	j	4008299c <cbvprintf+0x22c>
4008295e:	000000        	ill
40082961:	1123e0        	slli	a2, a3, 2
40082964:	323a      	add.n	a3, a2, a3
40082966:	1133f0        	slli	a3, a3, 1
40082969:	d0c332        	addi	a3, a3, -48
4008296c:	343a      	add.n	a3, a4, a3
4008296e:	0a2d      	mov.n	a2, a10
40082970:	000242        	l8ui	a4, a2, 0
40082973:	a21b      	addi.n	a10, a2, 1
40082975:	d0c4b2        	addi	a11, a4, -48
40082978:	e5b9b7        	bgeu	a9, a11, 40082961 <cbvprintf+0x1f1>
4008297b:	2148      	l32i.n	a4, a1, 8
4008297d:	4139      	s32i.n	a3, a1, 16
4008297f:	044140        	extui	a4, a4, 1, 1
40082982:	053f30        	extui	a3, a3, 31, 1
40082985:	203340        	or	a3, a3, a4
40082988:	041142        	l16ui	a4, a1, 8
4008298b:	043030        	extui	a3, a3, 0, 1
4008298e:	d97c      	movi.n	a9, -3
40082990:	1133f0        	slli	a3, a3, 1
40082993:	104490        	and	a4, a4, a9
40082996:	203430        	or	a3, a4, a3
40082999:	045132        	s16i	a3, a1, 8
4008299c:	000292        	l8ui	a9, a2, 0
4008299f:	6aa032        	movi	a3, 106
400829a2:	421b      	addi.n	a4, a2, 1
400829a4:	711937        	beq	a9, a3, 40082a19 <cbvprintf+0x2a9>
400829a7:	103397        	bltu	a3, a9, 400829bb <cbvprintf+0x24b>
400829aa:	c34c      	movi.n	a3, 76
400829ac:	029937        	bne	a9, a3, 400829b2 <cbvprintf+0x242>
400829af:	002546        	j	40082a48 <cbvprintf+0x2d8>
400829b2:	68a032        	movi	a3, 104
400829b5:	1b1937        	beq	a9, a3, 400829d4 <cbvprintf+0x264>
400829b8:	000446        	j	400829cd <cbvprintf+0x25d>
400829bb:	74a032        	movi	a3, 116
400829be:	761937        	beq	a9, a3, 40082a38 <cbvprintf+0x2c8>
400829c1:	7aa032        	movi	a3, 122
400829c4:	601937        	beq	a9, a3, 40082a28 <cbvprintf+0x2b8>
400829c7:	6ca032        	movi	a3, 108
400829ca:	221937        	beq	a9, a3, 400829f0 <cbvprintf+0x280>
400829cd:	024d      	mov.n	a4, a2
400829cf:	0021c6        	j	40082a5a <cbvprintf+0x2ea>
400829d2:	a20000        	muluh	a0, a0, a0
400829d5:	310411        	l32r	a1, 4004ede8 <__umoddi3+0x41b68>
400829d8:	f6f8      	l32i.n	a15, a6, 60
400829da:	0102b2        	l8ui	a11, a2, 1
400829dd:	1033a0        	and	a3, a3, a10
400829e0:	059b97        	bne	a11, a9, 400829e9 <cbvprintf+0x279>
400829e3:	f6b341        	l32r	a4, 400804b0 <_init_end+0xb0>
400829e6:	000606        	j	40082a02 <cbvprintf+0x292>
400829e9:	f6a321        	l32r	a2, 40080478 <_init_end+0x78>
400829ec:	000806        	j	40082a10 <cbvprintf+0x2a0>
400829ef:	11a200        	slli	a10, a2, 16
400829f2:	f13104        	lsi	f0, a1, 0x3c4
400829f5:	02b2f6        	bgeui	a2, 16, 400829fb <cbvprintf+0x28b>
400829f8:	33a001        	l32r	a0, 4004f878 <__umoddi3+0x425f8>
400829fb:	9b9710        	movnez.s	f9, f7, a1
400829fe:	410d      	lsi	f0, a1, 4
40082a00:	40f6a1        	l32r	a10, 40052dd8 <__umoddi3+0x45b58>
40082a03:	322033        	lsi	f3, a0, 200
40082a06:	2b0451        	l32r	a5, 4004d618 <__umoddi3+0x40398>
40082a09:	130642        	l8ui	a4, a6, 19
40082a0c:	9c2100        	lsi	f0, a1, 0x270
40082a0f:	3320f6        	bgeui	a0, 2, 40082a46 <cbvprintf+0x2d6>
40082a12:	513220        	lsi	f2, a2, 0x144
40082a15:	100604        	lsi	f0, a6, 64
40082a18:	e73100        	lsi	f0, a1, 0x39c
40082a1b:	1122f6        	bgeui	a2, 2, 40082a30 <cbvprintf+0x2c0>
40082a1e:	223004        	lsi	f0, a0, 136
40082a21:	e63110        	lsi	f1, a1, 0x398
40082a24:	0ac6f6        	bgeui	a6, 32, 40082a32 <cbvprintf+0x2c2>
40082a27:	e43100        	extui	a3, a0, 1, 15
40082a2a:	1122f6        	bgeui	a2, 2, 40082a3f <cbvprintf+0x2cf>
40082a2d:	223004        	lsi	f0, a0, 136
40082a30:	b03110        	addx8	a3, a1, a1
40082a33:	0706f6        	bgeui	a6, 0x8000, 40082a3e <cbvprintf+0x2ce>
40082a36:	310000        	srai	a0, a0, 16
40082a39:	22f6e0        	orb	b15, b6, b14
40082a3c:	300411        	l32r	a1, 4004ea4c <__umoddi3+0x417cc>
40082a3f:	311022        	l16ui	a2, a0, 98
40082a42:	df          	.byte 0xdf
40082a43:	0306f6        	bgeui	a6, 0x8000, 40082a4a <cbvprintf+0x2da>
40082a46:	310000        	srai	a0, a0, 16
40082a49:	df          	.byte 0xdf
40082a4a:	1122f6        	bgeui	a2, 2, 40082a5f <cbvprintf+0x2ef>
40082a4d:	223004        	lsi	f0, a0, 136
40082a50:	dd3110        	lsi	f1, a1, 0x374
40082a53:	2230f6        	bgeui	a0, 3, 40082a79 <cbvprintf+0x309>
40082a56:	512220        	lsi	f2, a2, 0x144
40082a59:	043204        	lsi	f0, a2, 16
40082a5c:	241b00        	extui	a1, a0, 11, 3
40082a5f:	126122        	s32i	a2, a1, 72
40082a62:	0b4132        	s8i	a3, a1, 11
40082a65:	67a022        	movi	a2, 103
40082a68:	443237        	bltu	a2, a3, 40082ab0 <cbvprintf+0x340>
40082a6b:	65a022        	movi	a2, 101
40082a6e:	023327        	bltu	a3, a2, 40082a74 <cbvprintf+0x304>
40082a71:	003306        	j	40082b41 <cbvprintf+0x3d1>
40082a74:	825c      	movi.n	a2, 88
40082a76:	7e1327        	beq	a3, a2, 40082af8 <cbvprintf+0x388>
40082a79:	1c3237        	bltu	a2, a3, 40082a99 <cbvprintf+0x329>
40082a7c:	124c      	movi.n	a2, 65
40082a7e:	029327        	bne	a3, a2, 40082a84 <cbvprintf+0x314>
40082a81:	002f06        	j	40082b41 <cbvprintf+0x3d1>
40082a84:	02b327        	bgeu	a3, a2, 40082a8a <cbvprintf+0x31a>
40082a87:	004786        	j	40082ba9 <cbvprintf+0x439>
40082a8a:	bbc332        	addi	a3, a3, -69
40082a8d:	743030        	extui	a3, a3, 0, 8
40082a90:	0233f6        	bgeui	a3, 3, 40082a96 <cbvprintf+0x326>
40082a93:	002a86        	j	40082b41 <cbvprintf+0x3d1>
40082a96:	0043c6        	j	40082ba9 <cbvprintf+0x439>
40082a99:	63a022        	movi	a2, 99
40082a9c:	581327        	beq	a3, a2, 40082af8 <cbvprintf+0x388>
40082a9f:	463237        	bltu	a2, a3, 40082ae9 <cbvprintf+0x379>
40082aa2:	61a022        	movi	a2, 97
40082aa5:	021327        	beq	a3, a2, 40082aab <cbvprintf+0x33b>
40082aa8:	003f46        	j	40082ba9 <cbvprintf+0x439>
40082aab:	002486        	j	40082b41 <cbvprintf+0x3d1>
40082aae:	220000        	orb	b0, b0, b0
40082ab1:	2770a0        	lsi	f10, a0, 156
40082ab4:	860293        	lsi	f9, a2, 0x218
40082ab7:	370031        	l32r	a3, 400506b8 <__umoddi3+0x43438>
40082aba:	221432        	l16ui	a3, a4, 68
40082abd:	276ea0        	lsi	f10, a14, 156
40082ac0:	860293        	lsi	f9, a2, 0x218
40082ac3:	370024        	lsi	f2, a0, 220
40082ac6:	222f32        	l32i	a3, a15, 136
40082ac9:	2769a0        	lsi	f10, a9, 156
40082acc:	c61a13        	lsi	f1, a10, 0x318
40082acf:	220035        	call12	400a4ad0 <_iram_end+0x21894>
40082ad2:	2775a0        	lsi	f10, a5, 156
40082ad5:	222013        	lsi	f1, a0, 136
40082ad8:	2778a0        	lsi	f10, a8, 156
40082adb:	221a13        	lsi	f1, a10, 136
40082ade:	2773a0        	lsi	f10, a3, 156
40082ae1:	460293        	lsi	f9, a2, 0x118
40082ae4:	c60026        	beqi	a0, -1, 40082aae <cbvprintf+0x33e>
40082ae7:	2f          	.byte 0x2f
40082ae8:	012200        	slli	a2, a2, 32
40082aeb:	7c0a      	add.n	a7, a12, a0
40082aed:	224084        	lsi	f8, a0, 136
40082af0:	140c10        	extui	a0, a1, 12, 2
40082af3:	0002c6        	j	40082b02 <cbvprintf+0x392>
40082af6:	220000        	orb	b0, b0, b0
40082af9:	7c0a01        	l32r	a0, 40061b24 <__umoddi3+0x548a4>
40082afc:	224084        	lsi	f8, a0, 136
40082aff:	240c10        	extui	a0, a1, 12, 3
40082b02:	202240        	or	a2, a2, a4
40082b05:	0a4122        	s8i	a2, a1, 10
40082b08:	041142        	l16ui	a4, a1, 8
40082b0b:	f6b021        	l32r	a2, 400805cc <_init_end+0x1cc>
40082b0e:	f67691        	l32r	a9, 400804e8 <_init_end+0xe8>
40082b11:	102420        	and	a2, a4, a2
40082b14:	f42020        	extui	a2, a2, 0, 16
40082b17:	f49090        	extui	a9, a9, 0, 16
40082b1a:	079297        	bne	a2, a9, 40082b25 <cbvprintf+0x3b5>
40082b1d:	120c      	movi.n	a2, 1
40082b1f:	202420        	or	a2, a4, a2
40082b22:	045122        	s16i	a2, a1, 8
40082b25:	63a042        	movi	a4, 99
40082b28:	020c      	movi.n	a2, 0
40082b2a:	021347        	beq	a3, a4, 40082b30 <cbvprintf+0x3c0>
40082b2d:	002146        	j	40082bb6 <cbvprintf+0x446>
40082b30:	041142        	l16ui	a4, a1, 8
40082b33:	f6a631        	l32r	a3, 400805cc <_init_end+0x1cc>
40082b36:	103340        	and	a3, a3, a4
40082b39:	140c      	movi.n	a4, 1
40082b3b:	932430        	movnez	a2, a4, a3
40082b3e:	001806        	j	40082ba2 <cbvprintf+0x432>
40082b41:	0a0122        	l8ui	a2, a1, 10
40082b44:	837c      	movi.n	a3, -8
40082b46:	102230        	and	a2, a2, a3
40082b49:	430c      	movi.n	a3, 4
40082b4b:	202230        	or	a2, a2, a3
40082b4e:	0a4122        	s8i	a2, a1, 10
40082b51:	120c      	movi.n	a2, 1
40082b53:	0017c6        	j	40082bb6 <cbvprintf+0x446>
40082b56:	220000        	orb	b0, b0, b0
40082b59:	7c0a01        	l32r	a0, 40061b84 <__umoddi3+0x54904>
40082b5c:	223083        	lsi	f8, a0, 136
40082b5f:	330c10        	clamps	a0, a12, 8
40082b62:	202230        	or	a2, a2, a3
40082b65:	0a4122        	s8i	a2, a1, 10
40082b68:	041132        	l16ui	a3, a1, 8
40082b6b:	f69821        	l32r	a2, 400805cc <_init_end+0x1cc>
40082b6e:	140c      	movi.n	a4, 1
40082b70:	102230        	and	a2, a2, a3
40082b73:	c0d222        	addmi	a2, a2, 0xffffc000
40082b76:	030c      	movi.n	a3, 0
40082b78:	833420        	moveqz	a3, a4, a2
40082b7b:	000846        	j	40082ba0 <cbvprintf+0x430>
40082b7e:	220000        	orb	b0, b0, b0
40082b81:	7c0a01        	l32r	a0, 40061bac <__umoddi3+0x5492c>
40082b84:	223083        	lsi	f8, a0, 136
40082b87:	330c10        	clamps	a0, a12, 8
40082b8a:	202230        	or	a2, a2, a3
40082b8d:	0a4122        	s8i	a2, a1, 10
40082b90:	041132        	l16ui	a3, a1, 8
40082b93:	f68e21        	l32r	a2, 400805cc <_init_end+0x1cc>
40082b96:	140c      	movi.n	a4, 1
40082b98:	102230        	and	a2, a2, a3
40082b9b:	030c      	movi.n	a3, 0
40082b9d:	933420        	movnez	a3, a4, a2
40082ba0:	032d      	mov.n	a2, a3
40082ba2:	742020        	extui	a2, a2, 0, 8
40082ba5:	000346        	j	40082bb6 <cbvprintf+0x446>
40082ba8:	112200        	slli	a2, a2, 16
40082bab:	130c04        	lsi	f0, a12, 76
40082bae:	202230        	or	a2, a2, a3
40082bb1:	045122        	s16i	a2, a1, 8
40082bb4:	020c      	movi.n	a2, 0
40082bb6:	2138      	l32i.n	a3, a1, 8
40082bb8:	d47c      	movi.n	a4, -3
40082bba:	043130        	extui	a3, a3, 1, 1
40082bbd:	202230        	or	a2, a2, a3
40082bc0:	041132        	l16ui	a3, a1, 8
40082bc3:	042020        	extui	a2, a2, 0, 1
40082bc6:	1122f0        	slli	a2, a2, 1
40082bc9:	103340        	and	a3, a3, a4
40082bcc:	202320        	or	a2, a3, a2
40082bcf:	045122        	s16i	a2, a1, 8
40082bd2:	041122        	l16ui	a2, a1, 8
40082bd5:	346287        	bbci	a2, 8, 40082c0d <cbvprintf+0x49d>
40082bd8:	374b      	addi.n	a3, a7, 4
40082bda:	821c      	movi.n	a2, 24
40082bdc:	0ca237        	bge	a2, a3, 40082bec <cbvprintf+0x47c>
40082bdf:	012277        	blt	a2, a7, 40082be4 <cbvprintf+0x474>
40082be2:	432c      	movi.n	a3, 36
40082be4:	037d      	mov.n	a7, a3
40082be6:	f128      	l32i.n	a2, a1, 60
40082be8:	000106        	j	40082bf0 <cbvprintf+0x480>
40082beb:	037d00        	lsi	f0, a13, 12
40082bee:	062d      	mov.n	a2, a6
40082bf0:	223a      	add.n	a2, a2, a3
40082bf2:	fcc222        	addi	a2, a2, -4
40082bf5:	0238      	l32i.n	a3, a2, 0
40082bf7:	0193d6        	bgez	a3, 40082c14 <cbvprintf+0x4a4>
40082bfa:	041122        	l16ui	a2, a1, 8
40082bfd:	440c      	movi.n	a4, 4
40082bff:	202240        	or	a2, a2, a4
40082c02:	045122        	s16i	a2, a1, 8
40082c05:	603030        	neg	a3, a3
40082c08:	000206        	j	40082c14 <cbvprintf+0x4a4>
40082c0b:	7c0000        	lsi	f0, a0, 0x1f0
40082c0e:	6277f3        	lsi	f15, a7, 0x188
40082c11:	313801        	l32r	a0, 4004f0f4 <__umoddi3+0x41e74>
40082c14:	041122        	l16ui	a2, a1, 8
40082c17:	3262a7        	bbci	a2, 10, 40082c4d <cbvprintf+0x4dd>
40082c1a:	474b      	addi.n	a4, a7, 4
40082c1c:	821c      	movi.n	a2, 24
40082c1e:	0ba247        	bge	a2, a4, 40082c2d <cbvprintf+0x4bd>
40082c21:	012277        	blt	a2, a7, 40082c26 <cbvprintf+0x4b6>
40082c24:	442c      	movi.n	a4, 36
40082c26:	047d      	mov.n	a7, a4
40082c28:	f128      	l32i.n	a2, a1, 60
40082c2a:	0000c6        	j	40082c31 <cbvprintf+0x4c1>
40082c2d:	047d      	mov.n	a7, a4
40082c2f:	062d      	mov.n	a2, a6
40082c31:	224a      	add.n	a2, a2, a4
40082c33:	fcc222        	addi	a2, a2, -4
40082c36:	02f8      	l32i.n	a15, a2, 0
40082c38:	018fd6        	bgez	a15, 40082c54 <cbvprintf+0x4e4>
40082c3b:	041122        	l16ui	a2, a1, 8
40082c3e:	ffad42        	movi	a4, 0xfffffdff
40082c41:	102240        	and	a2, a2, a4
40082c44:	045122        	s16i	a2, a1, 8
40082c47:	ff7c      	movi.n	a15, -1
40082c49:	0001c6        	j	40082c54 <cbvprintf+0x4e4>
40082c4c:	ff7c00        	f64cmph	a7, a12, a0, 15
40082c4f:	016297        	bbci	a2, 9, 40082c54 <cbvprintf+0x4e4>
40082c52:	41f8      	l32i.n	a15, a1, 16
40082c54:	21c8      	l32i.n	a12, a1, 8
40082c56:	020c      	movi.n	a2, 0
40082c58:	3129      	s32i.n	a2, a1, 12
40082c5a:	4129      	s32i.n	a2, a1, 16
40082c5c:	2540c0        	extui	a4, a12, 16, 3
40082c5f:	342bc0        	extui	a2, a12, 11, 4
40082c62:	021426        	beqi	a4, 1, 40082c68 <cbvprintf+0x4f8>
40082c65:	0024c6        	j	40082cfc <cbvprintf+0x58c>
40082c68:	42db      	addi.n	a4, a2, 13
40082c6a:	344040        	extui	a4, a4, 0, 4
40082c6d:	0e54f6        	bgeui	a4, 5, 40082c7f <cbvprintf+0x50f>
40082c70:	f65891        	l32r	a9, 400805d0 <_init_end+0x1d0>
40082c73:	1144e0        	slli	a4, a4, 2
40082c76:	494a      	add.n	a4, a9, a4
40082c78:	0448      	l32i.n	a4, a4, 0
40082c7a:	891c      	movi.n	a9, 24
40082c7c:	0004a0        	jx	a4
40082c7f:	974b      	addi.n	a9, a7, 4
40082c81:	8a1c      	movi.n	a10, 24
40082c83:	064d      	mov.n	a4, a6
40082c85:	07aa97        	bge	a10, a9, 40082c90 <cbvprintf+0x520>
40082c88:	022a77        	blt	a10, a7, 40082c8e <cbvprintf+0x51e>
40082c8b:	24a092        	movi	a9, 36
40082c8e:	f148      	l32i.n	a4, a1, 60
40082c90:	449a      	add.n	a4, a4, a9
40082c92:	fcc442        	addi	a4, a4, -4
40082c95:	0448      	l32i.n	a4, a4, 0
40082c97:	097d      	mov.n	a7, a9
40082c99:	0149      	s32i.n	a4, a1, 0
40082c9b:	314f40        	srai	a4, a4, 31
40082c9e:	1149      	s32i.n	a4, a1, 4
40082ca0:	000f06        	j	40082ce0 <cbvprintf+0x570>
40082ca3:	474b00        	lsi	f0, a11, 0x11c
40082ca6:	06ad      	mov.n	a10, a6
40082ca8:	06a947        	bge	a9, a4, 40082cb2 <cbvprintf+0x542>
40082cab:	012977        	blt	a9, a7, 40082cb0 <cbvprintf+0x540>
40082cae:	442c      	movi.n	a4, 36
40082cb0:	f1a8      	l32i.n	a10, a1, 60
40082cb2:	aa4a      	add.n	a10, a10, a4
40082cb4:	fccaa2        	addi	a10, a10, -4
40082cb7:	0a78      	l32i.n	a7, a10, 0
40082cb9:	0179      	s32i.n	a7, a1, 0
40082cbb:	317f70        	srai	a7, a7, 31
40082cbe:	002446        	j	40082d53 <cbvprintf+0x5e3>
40082cc1:	a74b00        	lsi	f0, a11, 0x29c
40082cc4:	064d      	mov.n	a4, a6
40082cc6:	06a9a7        	bge	a9, a10, 40082cd0 <cbvprintf+0x560>
40082cc9:	012977        	blt	a9, a7, 40082cce <cbvprintf+0x55e>
40082ccc:	4a2c      	movi.n	a10, 36
40082cce:	f148      	l32i.n	a4, a1, 60
40082cd0:	44aa      	add.n	a4, a4, a10
40082cd2:	fcc442        	addi	a4, a4, -4
40082cd5:	0448      	l32i.n	a4, a4, 0
40082cd7:	0a7d      	mov.n	a7, a10
40082cd9:	0149      	s32i.n	a4, a1, 0
40082cdb:	314f40        	srai	a4, a4, 31
40082cde:	1149      	s32i.n	a4, a1, 4
40082ce0:	041266        	bnei	a2, 1, 40082ce8 <cbvprintf+0x578>
40082ce3:	002ec6        	j	40082da2 <cbvprintf+0x632>
40082ce6:	260000        	lsi	f0, a0, 152
40082ce9:	460222        	l8ui	a2, a2, 70
40082cec:	420044        	lsi	f4, a0, 0x108
40082cef:	490091        	l32r	a9, 400550f0 <__umoddi3+0x47e70>
40082cf2:	4f4001        	l32r	a0, 400569f4 <__umoddi3+0x49774>
40082cf5:	114931        	l32r	a3, 4004721c <__umoddi3+0x39f9c>
40082cf8:	004106        	j	40082e00 <cbvprintf+0x690>
40082cfb:	242600        	extui	a2, a0, 6, 3
40082cfe:	2c8602        	lsi	f0, a6, 176
40082d01:	42db00        	xorb	b13, b11, b0
40082d04:	344040        	extui	a4, a4, 0, 4
40082d07:	7554f6        	bgeui	a4, 5, 40082d80 <cbvprintf+0x610>
40082d0a:	f63291        	l32r	a9, 400805d4 <_init_end+0x1d4>
40082d0d:	1144e0        	slli	a4, a4, 2
40082d10:	494a      	add.n	a4, a9, a4
40082d12:	0448      	l32i.n	a4, a4, 0
40082d14:	0004a0        	jx	a4
40082d17:	0b01b2        	l8ui	a11, a1, 11
40082d1a:	63a0a2        	movi	a10, 99
40082d1d:	474b      	addi.n	a4, a7, 4
40082d1f:	891c      	movi.n	a9, 24
40082d21:	179ba7        	bne	a11, a10, 40082d3c <cbvprintf+0x5cc>
40082d24:	06ad      	mov.n	a10, a6
40082d26:	06a947        	bge	a9, a4, 40082d30 <cbvprintf+0x5c0>
40082d29:	012977        	blt	a9, a7, 40082d2e <cbvprintf+0x5be>
40082d2c:	442c      	movi.n	a4, 36
40082d2e:	f1a8      	l32i.n	a10, a1, 60
40082d30:	aa4a      	add.n	a10, a10, a4
40082d32:	fccaa2        	addi	a10, a10, -4
40082d35:	001a72        	l16ui	a7, a10, 0
40082d38:	0004c6        	j	40082d4f <cbvprintf+0x5df>
40082d3b:	06ad00        	lsi	f0, a13, 24
40082d3e:	06a947        	bge	a9, a4, 40082d48 <cbvprintf+0x5d8>
40082d41:	012977        	blt	a9, a7, 40082d46 <cbvprintf+0x5d6>
40082d44:	442c      	movi.n	a4, 36
40082d46:	f1a8      	l32i.n	a10, a1, 60
40082d48:	aa4a      	add.n	a10, a10, a4
40082d4a:	fccaa2        	addi	a10, a10, -4
40082d4d:	0a78      	l32i.n	a7, a10, 0
40082d4f:	0179      	s32i.n	a7, a1, 0
40082d51:	070c      	movi.n	a7, 0
40082d53:	1179      	s32i.n	a7, a1, 4
40082d55:	00dfc6        	j	400830d8 <cbvprintf+0x968>
40082d58:	847c      	movi.n	a4, -8
40082d5a:	777b      	addi.n	a7, a7, 7
40082d5c:	107740        	and	a7, a7, a4
40082d5f:	478b      	addi.n	a4, a7, 8
40082d61:	8a1c      	movi.n	a10, 24
40082d63:	069d      	mov.n	a9, a6
40082d65:	07aa47        	bge	a10, a4, 40082d70 <cbvprintf+0x600>
40082d68:	022a77        	blt	a10, a7, 40082d6e <cbvprintf+0x5fe>
40082d6b:	28a042        	movi	a4, 40
40082d6e:	f198      	l32i.n	a9, a1, 60
40082d70:	994a      	add.n	a9, a9, a4
40082d72:	f8c992        	addi	a9, a9, -8
40082d75:	09a8      	l32i.n	a10, a9, 0
40082d77:	19b8      	l32i.n	a11, a9, 4
40082d79:	01a9      	s32i.n	a10, a1, 0
40082d7b:	11b9      	s32i.n	a11, a1, 4
40082d7d:	00d5c6        	j	400830d8 <cbvprintf+0x968>
40082d80:	974b      	addi.n	a9, a7, 4
40082d82:	8a1c      	movi.n	a10, 24
40082d84:	064d      	mov.n	a4, a6
40082d86:	06aa97        	bge	a10, a9, 40082d90 <cbvprintf+0x620>
40082d89:	012a77        	blt	a10, a7, 40082d8e <cbvprintf+0x61e>
40082d8c:	492c      	movi.n	a9, 36
40082d8e:	f148      	l32i.n	a4, a1, 60
40082d90:	449a      	add.n	a4, a4, a9
40082d92:	fcc442        	addi	a4, a4, -4
40082d95:	0448      	l32i.n	a4, a4, 0
40082d97:	097d      	mov.n	a7, a9
40082d99:	0149      	s32i.n	a4, a1, 0
40082d9b:	040c      	movi.n	a4, 0
40082d9d:	1149      	s32i.n	a4, a1, 4
40082d9f:	051266        	bnei	a2, 1, 40082da8 <cbvprintf+0x638>
40082da2:	000142        	l8ui	a4, a1, 0
40082da5:	000146        	j	40082dae <cbvprintf+0x63e>
40082da8:	542266        	bnei	a2, 2, 40082e00 <cbvprintf+0x690>
40082dab:	001142        	l16ui	a4, a1, 0
40082dae:	0149      	s32i.n	a4, a1, 0
40082db0:	040c      	movi.n	a4, 0
40082db2:	ffd006        	j	40082cf6 <cbvprintf+0x586>
40082db5:	274466        	bnei	a4, 4, 40082de0 <cbvprintf+0x670>
40082db8:	777b      	addi.n	a7, a7, 7
40082dba:	847c      	movi.n	a4, -8
40082dbc:	109740        	and	a9, a7, a4
40082dbf:	798b      	addi.n	a7, a9, 8
40082dc1:	8a1c      	movi.n	a10, 24
40082dc3:	064d      	mov.n	a4, a6
40082dc5:	07aa77        	bge	a10, a7, 40082dd0 <cbvprintf+0x660>
40082dc8:	022a97        	blt	a10, a9, 40082dce <cbvprintf+0x65e>
40082dcb:	28a072        	movi	a7, 40
40082dce:	f148      	l32i.n	a4, a1, 60
40082dd0:	447a      	add.n	a4, a4, a7
40082dd2:	f8c442        	addi	a4, a4, -8
40082dd5:	04a8      	l32i.n	a10, a4, 0
40082dd7:	14b8      	l32i.n	a11, a4, 4
40082dd9:	01a9      	s32i.n	a10, a1, 0
40082ddb:	11b9      	s32i.n	a11, a1, 4
40082ddd:	0007c6        	j	40082e00 <cbvprintf+0x690>
40082de0:	1c3466        	bnei	a4, 3, 40082e00 <cbvprintf+0x690>
40082de3:	974b      	addi.n	a9, a7, 4
40082de5:	8a1c      	movi.n	a10, 24
40082de7:	064d      	mov.n	a4, a6
40082de9:	07aa97        	bge	a10, a9, 40082df4 <cbvprintf+0x684>
40082dec:	022a77        	blt	a10, a7, 40082df2 <cbvprintf+0x682>
40082def:	24a092        	movi	a9, 36
40082df2:	f148      	l32i.n	a4, a1, 60
40082df4:	449a      	add.n	a4, a4, a9
40082df6:	fcc442        	addi	a4, a4, -4
40082df9:	0448      	l32i.n	a4, a4, 0
40082dfb:	207990        	or	a7, a9, a9
40082dfe:	0149      	s32i.n	a4, a1, 0
40082e00:	1490c0        	extui	a9, a12, 0, 2
40082e03:	015916        	beqz	a9, 40082e1c <cbvprintf+0x6ac>
40082e06:	1221d2        	l32i	a13, a1, 72
40082e09:	1121b2        	l32i	a11, a1, 68
40082e0c:	1021a2        	l32i	a10, a1, 64
40082e0f:	08cd      	mov.n	a12, a8
40082e11:	002d25        	call8	400830e4 <outs>
40082e14:	2c5a96        	bltz	a10, 400830dd <cbvprintf+0x96d>
40082e17:	55aa      	add.n	a5, a5, a10
40082e19:	00aac6        	j	400830c8 <cbvprintf+0x958>
40082e1c:	0b01a2        	l8ui	a10, a1, 11
40082e1f:	6ea042        	movi	a4, 110
40082e22:	029a47        	bne	a10, a4, 40082e28 <cbvprintf+0x6b8>
40082e25:	005006        	j	40082f69 <cbvprintf+0x7f9>
40082e28:	2434a7        	bltu	a4, a10, 40082e50 <cbvprintf+0x6e0>
40082e2b:	63a022        	movi	a2, 99
40082e2e:	7e1a27        	beq	a10, a2, 40082eb0 <cbvprintf+0x740>
40082e31:	0c32a7        	bltu	a2, a10, 40082e41 <cbvprintf+0x6d1>
40082e34:	522c      	movi.n	a2, 37
40082e36:	1121b2        	l32i	a11, a1, 68
40082e39:	431a27        	beq	a10, a2, 40082e80 <cbvprintf+0x710>
40082e3c:	825c      	movi.n	a2, 88
40082e3e:	000dc6        	j	40082e79 <cbvprintf+0x709>
40082e41:	64a022        	movi	a2, 100
40082e44:	781a27        	beq	a10, a2, 40082ec0 <cbvprintf+0x750>
40082e47:	69a022        	movi	a2, 105
40082e4a:	721a27        	beq	a10, a2, 40082ec0 <cbvprintf+0x750>
40082e4d:	009dc6        	j	400830c8 <cbvprintf+0x958>
40082e50:	73a022        	movi	a2, 115
40082e53:	371a27        	beq	a10, a2, 40082e8e <cbvprintf+0x71e>
40082e56:	1632a7        	bltu	a2, a10, 40082e70 <cbvprintf+0x700>
40082e59:	6fa022        	movi	a2, 111
40082e5c:	029a27        	bne	a10, a2, 40082e62 <cbvprintf+0x6f2>
40082e5f:	002386        	j	40082ef1 <cbvprintf+0x781>
40082e62:	70a022        	movi	a2, 112
40082e65:	029a27        	bne	a10, a2, 40082e6b <cbvprintf+0x6fb>
40082e68:	003146        	j	40082f31 <cbvprintf+0x7c1>
40082e6b:	009646        	j	400830c8 <cbvprintf+0x958>
40082e6e:	220000        	orb	b0, b0, b0
40082e71:	2775a0        	lsi	f10, a5, 156
40082e74:	7a1a      	add.n	a7, a10, a1
40082e76:	78a022        	movi	a2, 120
40082e79:	741a27        	beq	a10, a2, 40082ef1 <cbvprintf+0x781>
40082e7c:	009206        	j	400830c8 <cbvprintf+0x958>
40082e7f:	218200        	srai	a8, a0, 2
40082e82:	08e010        	lsx	f14, a0, a1
40082e85:	3a9600        	lsi	f0, a6, 232
40082e88:	551b25        	call8	400d803c <_text_end+0x4b7c>
40082e8b:	008e46        	j	400830c8 <cbvprintf+0x958>
40082e8e:	002142        	l32i	a4, a1, 0
40082e91:	00bf96        	bltz	a15, 40082ea0 <cbvprintf+0x730>
40082e94:	20bff0        	or	a11, a15, a15
40082e97:	20a440        	or	a10, a4, a4
40082e9a:	003165        	call8	400831b0 <strnlen>
40082e9d:	000146        	j	40082ea6 <cbvprintf+0x736>
40082ea0:	20a440        	or	a10, a4, a4
40082ea3:	002f65        	call8	40083198 <strlen>
40082ea6:	8024a0        	add	a2, a4, a10
40082ea9:	00a092        	movi	a9, 0
40082eac:	003a46        	j	40082f99 <cbvprintf+0x829>
40082eaf:	012800        	slli	a2, a8, 32
40082eb2:	18c142        	addi	a4, a1, 24
40082eb5:	184122        	s8i	a2, a1, 24
40082eb8:	19c122        	addi	a2, a1, 25
40082ebb:	003a86        	j	40082fa9 <cbvprintf+0x839>
40082ebe:	a20000        	muluh	a0, a0, a0
40082ec1:	0c0411        	l32r	a1, 40045ed4 <__umoddi3+0x38c54>
40082ec4:	2a2082        	l32i	a8, a0, 168
40082ec7:	b92c10        	lsi	f1, a12, 0x2e4
40082eca:	62cc      	bnez.n	a2, 40082ed4 <cbvprintf+0x764>
40082ecc:	04a4a0        	extui	a10, a10, 4, 1
40082ecf:	092c      	movi.n	a9, 32
40082ed1:	8392a0        	moveqz	a9, a2, a10
40082ed4:	1128      	l32i.n	a2, a1, 4
40082ed6:	0148      	l32i.n	a4, a1, 0
40082ed8:	0152d6        	bgez	a2, 40082ef1 <cbvprintf+0x781>
40082edb:	609040        	neg	a9, a4
40082ede:	0a0c      	movi.n	a10, 0
40082ee0:	140c      	movi.n	a4, 1
40082ee2:	834a90        	moveqz	a4, a10, a9
40082ee5:	602020        	neg	a2, a2
40082ee8:	c02240        	sub	a2, a2, a4
40082eeb:	0199      	s32i.n	a9, a1, 0
40082eed:	1129      	s32i.n	a2, a1, 4
40082eef:	d92c      	movi.n	a9, 45
40082ef1:	0021a2        	l32i	a10, a1, 0
40082ef4:	0121b2        	l32i	a11, a1, 4
40082ef7:	2ec1e2        	addi	a14, a1, 46
40082efa:	18c1d2        	addi	a13, a1, 24
40082efd:	08c1c2        	addi	a12, a1, 8
40082f00:	166192        	s32i	a9, a1, 88
40082f03:	1561f2        	s32i	a15, a1, 84
40082f06:	ff7b65        	call8	400826bc <encode_uint>
40082f09:	1521f2        	l32i	a15, a1, 84
40082f0c:	162192        	l32i	a9, a1, 88
40082f0f:	0a4d      	mov.n	a4, a10
40082f11:	2ec122        	addi	a2, a1, 46
40082f14:	081f96        	bltz	a15, 40082f99 <cbvprintf+0x829>
40082f17:	0411b2        	l16ui	a11, a1, 8
40082f1a:	bfafc2        	movi	a12, -65
40082f1d:	10bbc0        	and	a11, a11, a12
40082f20:	c0a240        	sub	a10, a2, a4
40082f23:	0451b2        	s16i	a11, a1, 8
40082f26:	6fbaf7        	bgeu	a10, a15, 40082f99 <cbvprintf+0x829>
40082f29:	c0ffa0        	sub	a15, a15, a10
40082f2c:	31f9      	s32i.n	a15, a1, 12
40082f2e:	0019c6        	j	40082f99 <cbvprintf+0x829>
40082f31:	0021a2        	l32i	a10, a1, 0
40082f34:	069a16        	beqz	a10, 40082fa1 <cbvprintf+0x831>
40082f37:	20b990        	or	a11, a9, a9
40082f3a:	2ec1e2        	addi	a14, a1, 46
40082f3d:	18c1d2        	addi	a13, a1, 24
40082f40:	08c1c2        	addi	a12, a1, 8
40082f43:	166192        	s32i	a9, a1, 88
40082f46:	1561f2        	s32i	a15, a1, 84
40082f49:	ff7725        	call8	400826bc <encode_uint>
40082f4c:	051122        	l16ui	a2, a1, 10
40082f4f:	0a4d      	mov.n	a4, a10
40082f51:	efa0a2        	movi	a10, 239
40082f54:	1022a0        	and	a2, a2, a10
40082f57:	f5a0a1        	l32r	a10, 400805d8 <_init_end+0x1d8>
40082f5a:	162192        	l32i	a9, a1, 88
40082f5d:	2022a0        	or	a2, a2, a10
40082f60:	055122        	s16i	a2, a1, 10
40082f63:	1521f2        	l32i	a15, a1, 84
40082f66:	ffe9c6        	j	40082f11 <cbvprintf+0x7a1>
40082f69:	0138      	l32i.n	a3, a1, 0
40082f6b:	0282b6        	bltui	a2, 8, 40082f71 <cbvprintf+0x801>
40082f6e:	005586        	j	400830c8 <cbvprintf+0x958>
40082f71:	1142e0        	slli	a4, a2, 2
40082f74:	f59a21        	l32r	a2, 400805dc <_init_end+0x1dc>
40082f77:	224a      	add.n	a2, a2, a4
40082f79:	0228      	l32i.n	a2, a2, 0
40082f7b:	0002a0        	jx	a2
40082f7e:	004352        	s8i	a5, a3, 0
40082f81:	0050c6        	j	400830c8 <cbvprintf+0x958>
40082f84:	005352        	s16i	a5, a3, 0
40082f87:	004f46        	j	400830c8 <cbvprintf+0x958>
40082f8a:	312f50        	srai	a2, a5, 31
40082f8d:	0359      	s32i.n	a5, a3, 0
40082f8f:	1329      	s32i.n	a2, a3, 4
40082f91:	004cc6        	j	400830c8 <cbvprintf+0x958>
40082f94:	0359      	s32i.n	a5, a3, 0
40082f96:	004b86        	j	400830c8 <cbvprintf+0x958>
40082f99:	c4cc      	bnez.n	a4, 40082fa9 <cbvprintf+0x839>
40082f9b:	004a46        	j	400830c8 <cbvprintf+0x958>
40082f9e:	000000        	ill
40082fa1:	f58321        	l32r	a2, 400805b0 <_init_end+0x1b0>
40082fa4:	f58441        	l32r	a4, 400805b4 <_init_end+0x1b4>
40082fa7:	0a9d      	mov.n	a9, a10
40082fa9:	c0a240        	sub	a10, a2, a4
40082fac:	098c      	beqz.n	a9, 40082fb0 <cbvprintf+0x840>
40082fae:	aa1b      	addi.n	a10, a10, 1
40082fb0:	0a01b2        	l8ui	a11, a1, 10
40082fb3:	056b47        	bbci	a11, 4, 40082fbc <cbvprintf+0x84c>
40082fb6:	aa2b      	addi.n	a10, a10, 2
40082fb8:	000146        	j	40082fc1 <cbvprintf+0x851>
40082fbb:	6b3700        	ole.s	b3, f7, f0
40082fbe:	aa1b01        	l32r	a0, 4006d82c <__udivmoddi4+0x8c38>
40082fc1:	31c8      	l32i.n	a12, a1, 12
40082fc3:	aaca      	add.n	a10, a10, a12
40082fc5:	036b67        	bbci	a11, 6, 40082fcc <cbvprintf+0x85c>
40082fc8:	41b8      	l32i.n	a11, a1, 16
40082fca:	aaba      	add.n	a10, a10, a11
40082fcc:	6213a6        	blti	a3, 1, 40083032 <cbvprintf+0x8c2>
40082fcf:	21c8      	l32i.n	a12, a1, 8
40082fd1:	c033a0        	sub	a3, a3, a10
40082fd4:	04c2c0        	extui	a12, a12, 2, 1
40082fd7:	057c56        	bnez	a12, 40083032 <cbvprintf+0x8c2>
40082fda:	0411a2        	l16ui	a10, a1, 8
40082fdd:	3b6a67        	bbci	a10, 6, 4008301c <cbvprintf+0x8ac>
40082fe0:	e9bc      	beqz.n	a9, 40083022 <cbvprintf+0x8b2>
40082fe2:	1121b2        	l32i	a11, a1, 68
40082fe5:	102182        	l32i	a8, a1, 64
40082fe8:	1561c2        	s32i	a12, a1, 84
40082feb:	09ad      	mov.n	a10, a9
40082fed:	0008e0        	callx8	a8
40082ff0:	1521c2        	l32i	a12, a1, 84
40082ff3:	0e6a96        	bltz	a10, 400830dd <cbvprintf+0x96d>
40082ff6:	551b      	addi.n	a5, a5, 1
40082ff8:	0c9d      	mov.n	a9, a12
40082ffa:	000906        	j	40083022 <cbvprintf+0x8b2>
40082ffd:	1121b2        	l32i	a11, a1, 68
40083000:	102182        	l32i	a8, a1, 64
40083003:	0cad      	mov.n	a10, a12
40083005:	166192        	s32i	a9, a1, 88
40083008:	1561c2        	s32i	a12, a1, 84
4008300b:	0008e0        	callx8	a8
4008300e:	03bd      	mov.n	a11, a3
40083010:	162192        	l32i	a9, a1, 88
40083013:	1521c2        	l32i	a12, a1, 84
40083016:	00ead6        	bgez	a10, 40083028 <cbvprintf+0x8b8>
40083019:	003006        	j	400830dd <cbvprintf+0x96d>
4008301c:	0c2c      	movi.n	a12, 32
4008301e:	000086        	j	40083024 <cbvprintf+0x8b4>
40083021:	0c3c00        	lsi	f0, a12, 48
40083024:	03bd      	mov.n	a11, a3
40083026:	535a      	add.n	a5, a3, a5
40083028:	c085b0        	sub	a8, a5, a11
4008302b:	3b0b      	addi.n	a3, a11, -1
4008302d:	cc1be6        	bgei	a11, 1, 40082ffd <cbvprintf+0x88d>
40083030:	085d      	mov.n	a5, a8
40083032:	f98c      	beqz.n	a9, 40083045 <cbvprintf+0x8d5>
40083034:	1121b2        	l32i	a11, a1, 68
40083037:	102182        	l32i	a8, a1, 64
4008303a:	20a990        	or	a10, a9, a9
4008303d:	0008e0        	callx8	a8
40083040:	099a96        	bltz	a10, 400830dd <cbvprintf+0x96d>
40083043:	551b      	addi.n	a5, a5, 1
40083045:	2198      	l32i.n	a9, a1, 8
40083047:	02f947        	bbsi	a9, 20, 4008304d <cbvprintf+0x8dd>
4008304a:	0f7937        	bbci	a9, 19, 4008305d <cbvprintf+0x8ed>
4008304d:	1121b2        	l32i	a11, a1, 68
40083050:	102182        	l32i	a8, a1, 64
40083053:	0a3c      	movi.n	a10, 48
40083055:	0008e0        	callx8	a8
40083058:	081a96        	bltz	a10, 400830dd <cbvprintf+0x96d>
4008305b:	551b      	addi.n	a5, a5, 1
4008305d:	0a0192        	l8ui	a9, a1, 10
40083060:	106947        	bbci	a9, 4, 40083074 <cbvprintf+0x904>
40083063:	1121b2        	l32i	a11, a1, 68
40083066:	0b01a2        	l8ui	a10, a1, 11
40083069:	102182        	l32i	a8, a1, 64
4008306c:	0008e0        	callx8	a8
4008306f:	06aa96        	bltz	a10, 400830dd <cbvprintf+0x96d>
40083072:	551b      	addi.n	a5, a5, 1
40083074:	3198      	l32i.n	a9, a1, 12
40083076:	995a      	add.n	a9, a9, a5
40083078:	000546        	j	40083091 <cbvprintf+0x921>
4008307b:	1121b2        	l32i	a11, a1, 68
4008307e:	102182        	l32i	a8, a1, 64
40083081:	166192        	s32i	a9, a1, 88
40083084:	0a3c      	movi.n	a10, 48
40083086:	0008e0        	callx8	a8
40083089:	162192        	l32i	a9, a1, 88
4008308c:	04da96        	bltz	a10, 400830dd <cbvprintf+0x96d>
4008308f:	551b      	addi.n	a5, a5, 1
40083091:	c0a950        	sub	a10, a9, a5
40083094:	e31ae6        	bgei	a10, 1, 4008307b <cbvprintf+0x90b>
40083097:	1121b2        	l32i	a11, a1, 68
4008309a:	1021a2        	l32i	a10, a1, 64
4008309d:	02dd      	mov.n	a13, a2
4008309f:	04cd      	mov.n	a12, a4
400830a1:	000425        	call8	400830e4 <outs>
400830a4:	035a96        	bltz	a10, 400830dd <cbvprintf+0x96d>
400830a7:	5a5a      	add.n	a5, a10, a5
400830a9:	335a      	add.n	a3, a3, a5
400830ab:	0004c6        	j	400830c2 <cbvprintf+0x952>
400830ae:	000000        	ill
400830b1:	1121b2        	l32i	a11, a1, 68
400830b4:	102122        	l32i	a2, a1, 64
400830b7:	20a0a2        	movi	a10, 32
400830ba:	0002e0        	callx8	a2
400830bd:	01ca96        	bltz	a10, 400830dd <cbvprintf+0x96d>
400830c0:	551b      	addi.n	a5, a5, 1
400830c2:	c02350        	sub	a2, a3, a5
400830c5:	e812e6        	bgei	a2, 1, 400830b1 <cbvprintf+0x941>
400830c8:	122182        	l32i	a8, a1, 72
400830cb:	000822        	l8ui	a2, a8, 0
400830ce:	128c      	beqz.n	a2, 400830d3 <cbvprintf+0x963>
400830d0:	fdad06        	j	40082788 <cbvprintf+0x18>
400830d3:	05ad      	mov.n	a10, a5
400830d5:	000106        	j	400830dd <cbvprintf+0x96d>
400830d8:	047d      	mov.n	a7, a4
400830da:	ff4886        	j	40082e00 <cbvprintf+0x690>
400830dd:	0a2d      	mov.n	a2, a10
400830df:	f01d      	retw.n
400830e1:	000000        	ill

400830e4 <outs>:
400830e4:	004136        	entry	a1, 32
400830e7:	060c      	movi.n	a6, 0
400830e9:	000306        	j	400830f9 <outs+0x15>
400830ec:	0008a2        	l8ui	a10, a8, 0
400830ef:	03bd      	mov.n	a11, a3
400830f1:	0002e0        	callx8	a2
400830f4:	016a96        	bltz	a10, 4008310e <outs+0x2a>
400830f7:	661b      	addi.n	a6, a6, 1
400830f9:	846a      	add.n	a8, a4, a6
400830fb:	ed3857        	bltu	a8, a5, 400830ec <outs+0x8>
400830fe:	358c      	beqz.n	a5, 40083105 <outs+0x21>
40083100:	06ad      	mov.n	a10, a6
40083102:	000206        	j	4008310e <outs+0x2a>
40083105:	000892        	l8ui	a9, a8, 0
40083108:	fe0956        	bnez	a9, 400830ec <outs+0x8>
4008310b:	fffc46        	j	40083100 <outs+0x1c>
4008310e:	0a2d      	mov.n	a2, a10
40083110:	f01d      	retw.n
	...

40083114 <char_out>:
40083114:	004136        	entry	a1, 32
40083117:	0388      	l32i.n	a8, a3, 0
40083119:	02ad      	mov.n	a10, a2
4008311b:	881b      	addi.n	a8, a8, 1
4008311d:	0389      	s32i.n	a8, a3, 0
4008311f:	f53031        	l32r	a3, 400805e0 <_init_end+0x1e0>
40083122:	002332        	l32i	a3, a3, 0
40083125:	0003e0        	callx8	a3
40083128:	0a2d      	mov.n	a2, a10
4008312a:	f01d      	retw.n

4008312c <vprintk>:
4008312c:	008136        	entry	a1, 64
4008312f:	f52da1        	l32r	a10, 400805e4 <_init_end+0x1e4>
40083132:	00a082        	movi	a8, 0
40083135:	20d330        	or	a13, a3, a3
40083138:	20e440        	or	a14, a4, a4
4008313b:	05fd      	mov.n	a15, a5
4008313d:	02cd      	mov.n	a12, a2
4008313f:	01bd      	mov.n	a11, a1
40083141:	0189      	s32i.n	a8, a1, 0
40083143:	ff62e5        	call8	40082770 <cbvprintf>
40083146:	f01d      	retw.n

40083148 <printk>:
40083148:	00a136        	entry	a1, 80
4008314b:	10c1c2        	addi	a12, a1, 16
4008314e:	30c1b2        	addi	a11, a1, 48
40083151:	4d0c      	movi.n	a13, 4
40083153:	02ad      	mov.n	a10, a2
40083155:	5139      	s32i.n	a3, a1, 20
40083157:	6149      	s32i.n	a4, a1, 24
40083159:	7159      	s32i.n	a5, a1, 28
4008315b:	8169      	s32i.n	a6, a1, 32
4008315d:	9179      	s32i.n	a7, a1, 36
4008315f:	11c9      	s32i.n	a12, a1, 4
40083161:	01b9      	s32i.n	a11, a1, 0
40083163:	21d9      	s32i.n	a13, a1, 8
40083165:	fffc65        	call8	4008312c <vprintk>
40083168:	f01d      	retw.n
	...

4008316c <console_out>:
4008316c:	004136        	entry	a1, 32
4008316f:	f51e31        	l32r	a3, 400805e8 <_init_end+0x1e8>
40083172:	0a9266        	bnei	a2, 10, 40083180 <console_out+0x14>
40083175:	03a8      	l32i.n	a10, a3, 0
40083177:	2a88      	l32i.n	a8, a10, 8
40083179:	db0c      	movi.n	a11, 13
4008317b:	1888      	l32i.n	a8, a8, 4
4008317d:	0008e0        	callx8	a8
40083180:	03a8      	l32i.n	a10, a3, 0
40083182:	2a38      	l32i.n	a3, a10, 8
40083184:	74b020        	extui	a11, a2, 0, 8
40083187:	1338      	l32i.n	a3, a3, 4
40083189:	0003e0        	callx8	a3
4008318c:	f01d      	retw.n
	...

40083190 <__start>:
40083190:	004136        	entry	a1, 32
40083193:	fd45a5        	call8	400805ec <__esp_platform_start>
40083196:	f01d      	retw.n

40083198 <strlen>:
40083198:	004136        	entry	a1, 32
4008319b:	080c      	movi.n	a8, 0
4008319d:	000046        	j	400831a2 <strlen+0xa>
400831a0:	881b      	addi.n	a8, a8, 1
400831a2:	928a      	add.n	a9, a2, a8
400831a4:	000992        	l8ui	a9, a9, 0
400831a7:	ff5956        	bnez	a9, 400831a0 <strlen+0x8>
400831aa:	082d      	mov.n	a2, a8
400831ac:	f01d      	retw.n
	...

400831b0 <strnlen>:
400831b0:	004136        	entry	a1, 32
400831b3:	080c      	movi.n	a8, 0
400831b5:	000046        	j	400831ba <strnlen+0xa>
400831b8:	881b      	addi.n	a8, a8, 1
400831ba:	928a      	add.n	a9, a2, a8
400831bc:	000992        	l8ui	a9, a9, 0
400831bf:	198c      	beqz.n	a9, 400831c4 <strnlen+0x14>
400831c1:	f33837        	bltu	a8, a3, 400831b8 <strnlen+0x8>
400831c4:	082d      	mov.n	a2, a8
400831c6:	f01d      	retw.n

400831c8 <strcmp>:
400831c8:	004136        	entry	a1, 32
400831cb:	0000c6        	j	400831d2 <strcmp+0xa>
400831ce:	221b      	addi.n	a2, a2, 1
400831d0:	331b      	addi.n	a3, a3, 1
400831d2:	000282        	l8ui	a8, a2, 0
400831d5:	000392        	l8ui	a9, a3, 0
400831d8:	029897        	bne	a8, a9, 400831de <strcmp+0x16>
400831db:	fef856        	bnez	a8, 400831ce <strcmp+0x6>
400831de:	c02890        	sub	a2, a8, a9
400831e1:	f01d      	retw.n
	...

400831e4 <memset>:
400831e4:	004136        	entry	a1, 32
400831e7:	74b030        	extui	a11, a3, 0, 8
400831ea:	028d      	mov.n	a8, a2
400831ec:	000286        	j	400831fa <memset+0x16>
400831ef:	441600        	extui	a1, a0, 6, 5
400831f2:	48b204        	lsi	f0, a2, 0x120
400831f5:	440b00        	extui	a0, a0, 11, 5
400831f8:	881b      	addi.n	a8, a8, 1
400831fa:	149080        	extui	a9, a8, 0, 2
400831fd:	08cd      	mov.n	a12, a8
400831ff:	fed956        	bnez	a9, 400831f0 <memset+0xc>
40083202:	743030        	extui	a3, a3, 0, 8
40083205:	11a380        	slli	a10, a3, 8
40083208:	203a30        	or	a3, a10, a3
4008320b:	11a300        	slli	a10, a3, 16
4008320e:	203a30        	or	a3, a10, a3
40083211:	41a240        	srli	a10, a4, 2
40083214:	11dae0        	slli	a13, a10, 2
40083217:	ed8a      	add.n	a14, a13, a8
40083219:	0000c6        	j	40083220 <memset+0x3c>
4008321c:	0839      	s32i.n	a3, a8, 0
4008321e:	884b      	addi.n	a8, a8, 4
40083220:	f898e7        	bne	a8, a14, 4008321c <memset+0x38>
40083223:	11aae0        	slli	a10, a10, 2
40083226:	c044a0        	sub	a4, a4, a10
40083229:	000206        	j	40083235 <memset+0x51>
4008322c:	39da      	add.n	a3, a9, a13
4008322e:	3c3a      	add.n	a3, a12, a3
40083230:	0043b2        	s8i	a11, a3, 0
40083233:	991b      	addi.n	a9, a9, 1
40083235:	f39497        	bne	a4, a9, 4008322c <memset+0x48>
40083238:	f01d      	retw.n
	...

Disassembly of section .flash.text:

400d0020 <_image_irom_vaddr>:
400d0020:	020c      	movi.n	a2, 0
400d0022:	3ffb      	addi.n	a3, a15, 15
400d0024:	0a58      	l32i.n	a5, a10, 0
400d0026:	ff3f40        	f64cmph	a3, a15, a4, 15
400d0029:	ff          	.byte 0xff
400d002a:	bf          	.byte 0xbf
400d002b:	ff          	.byte 0xff
400d002c:	0a0000        	add.s	f0, f0, f0
400d002f:	0a7600        	add.s	f7, f6, f0
400d0032:	003f40        	lsi	f4, a15, 0
400d0035:	004000        	break	0, 0
400d0038:	0a8c      	beqz.n	a10, 400d003c <_image_irom_vaddr+0x1c>
400d003a:	973f40        	lsi	f4, a15, 0x25c
400d003d:	400a      	add.n	a4, a0, a0
400d003f:	3f          	.byte 0x3f
400d0040:	002710        	lsi	f1, a7, 0
400d0043:	000000        	ill
400d0046:	000000        	ill
400d0049:	3ffb00        	f64cmph	a15, a11, a0, 3
400d004c:	ff          	.byte 0xff
400d004d:	7f          	.byte 0x7f
400d004e:	ff0000        	f64cmph	a0, a0, a0, 15
400d0051:	ff          	.byte 0xff
400d0052:	6c0003        	lsi	f0, a0, 0x1b0
400d0055:	3f4000        	f64cmph	a4, a0, a0, 3
400d0058:	ff          	.byte 0xff
400d0059:	8f          	.byte 0x8f
400d005a:	ff          	.byte 0xff
400d005b:	ff          	.byte 0xff
400d005c:	f44000        	extui	a4, a0, 0, 16
400d005f:	3f          	.byte 0x3f
400d0060:	9f0c      	movi.n	a15, 9
400d0062:	fc4000        	lsi	f0, a0, 0x3f0
400d0065:	3f4004        	lsi	f0, a0, 252
400d0068:	010c      	movi.n	a1, 0
400d006a:	003f40        	lsi	f4, a15, 0
400d006d:	000020        	lsi	f2, a0, 0
400d0070:	ff          	.byte 0xff
400d0071:	df          	.byte 0xdf
400d0072:	ff          	.byte 0xff
400d0073:	ff          	.byte 0xff
400d0074:	001000        	movsp	a0, a0
400d0077:	efff00        	f64cmph	a15, a15, a0, 14
400d007a:	ff          	.byte 0xff
400d007b:	ff          	.byte 0xff
400d007c:	ffc000        	f64cmph	a12, a0, a0, 15
400d007f:	ff          	.byte 0xff
400d0080:	ff          	.byte 0xff
400d0081:	ff          	.byte 0xff
400d0082:	0f          	.byte 0xf
400d0083:	000000        	ill
400d0086:	00fff0        	lsi	f15, a15, 0
400d0089:	3d09      	s32i.n	a0, a13, 12
400d008b:	b40000        	extui	a0, a0, 0, 12
400d008e:	ff04c4        	lsi	f12, a4, 0x3fc
400d0091:	ff          	.byte 0xff
400d0092:	ff          	.byte 0xff
400d0093:	4240f7        	ball	a0, a15, 400d00d9 <_image_irom_vaddr+0xb9>
400d0096:	0f          	.byte 0xf
400d0097:	ffff00        	f64cmph	a15, a15, a0, 15
400d009a:	0f          	.byte 0xf
400d009b:	ff          	.byte 0xff
400d009c:	ff          	.byte 0xff
400d009d:	ff          	.byte 0xff
400d009e:	00ff80        	lsi	f8, a15, 0
400d00a1:	008000        	any4	b0, b0:b1:b2:b3
400d00a4:	ff          	.byte 0xff
400d00a5:	ff          	.byte 0xff
400d00a6:	7f          	.byte 0x7f
400d00a7:	ff          	.byte 0xff
400d00a8:	008000        	any4	b0, b0:b1:b2:b3
400d00ab:	7fff00        	f64cmph	a15, a15, a0, 7
400d00ae:	ff          	.byte 0xff
400d00af:	ff          	.byte 0xff
400d00b0:	ff          	.byte 0xff
400d00b1:	ffff80        	f64cmph	a15, a15, a8, 15
400d00b4:	ff          	.byte 0xff
400d00b5:	ff          	.byte 0xff
400d00b6:	ff          	.byte 0xff
400d00b7:	000080        	ret
400d00ba:	ff8000        	f64cmph	a8, a0, a0, 15
400d00bd:	ff          	.byte 0xff
400d00be:	ff          	.byte 0xff
400d00bf:	7f          	.byte 0x7f
400d00c0:	f40000        	extui	a0, a0, 0, 16
400d00c3:	3f          	.byte 0x3f
400d00c4:	f50000        	extui	a0, a0, 16, 16
400d00c7:	3f          	.byte 0x3f
400d00c8:	f6e000        	lsi	f0, a0, 0x3d8
400d00cb:	3f          	.byte 0x3f
400d00cc:	f40000        	extui	a0, a0, 0, 16
400d00cf:	3f          	.byte 0x3f
400d00d0:	f50000        	extui	a0, a0, 16, 16
400d00d3:	3f          	.byte 0x3f
400d00d4:	000000        	ill
400d00d7:	000060        	lsi	f6, a0, 0
400d00da:	006001        	l32r	a0, 4009025c <_iram_end+0xd020>
400d00dd:	6002e0        	lsi	f14, a2, 0x180
400d00e0:	f5a014        	lsi	f1, a0, 0x3d4
400d00e3:	3f          	.byte 0x3f
400d00e4:	0ab8      	l32i.n	a11, a10, 0
400d00e6:	c03f40        	sub	a3, a15, a4
400d00e9:	400a      	add.n	a4, a0, a0
400d00eb:	3f          	.byte 0x3f
400d00ec:	003c      	movi.n	a0, 48
400d00ee:	7c3ff0        	lsi	f15, a15, 0x1f0
400d00f1:	3ff480        	f64cmph	a15, a4, a8, 3
400d00f4:	ff          	.byte 0xff
400d00f5:	ffffc7        	bbsi	a15, 28, 400d00f8 <_image_irom_vaddr+0xd8>
400d00f8:	f48070        	extui	a8, a7, 0, 16
400d00fb:	3f          	.byte 0x3f
400d00fc:	ff          	.byte 0xff
400d00fd:	ff          	.byte 0xff
400d00fe:	ff          	.byte 0xff
400d00ff:	0000e7        	bnone	a0, a14, 400d0103 <_image_irom_vaddr+0xe3>
400d0102:	b40800        	extui	a0, a0, 8, 12
400d0105:	3ff480        	f64cmph	a15, a4, a8, 3
400d0108:	4c4b      	addi.n	a4, a12, 4
400d010a:	4c4b      	addi.n	a4, a12, 4
400d010c:	007d54        	lsi	f5, a13, 0
400d010f:	800040        	add	a0, a0, a4
400d0112:	683ff4        	lsi	f15, a15, 0x1a0
400d0115:	3ffb04        	lsi	f0, a11, 252
400d0118:	f48030        	extui	a8, a3, 0, 16
400d011b:	3f          	.byte 0x3f
400d011c:	040000        	extui	a0, a0, 0, 1
400d011f:	848c00        	extui	a8, a0, 12, 9
400d0122:	df3ff4        	lsi	f15, a15, 0x37c
400d0125:	e73ff7        	bltu	a15, a15, 400d0110 <_image_irom_vaddr+0xf0>
400d0128:	060000        	lsi	f0, a0, 24
400d012b:	ffff00        	f64cmph	a15, a15, a0, 15
400d012e:	cf          	.byte 0xcf
400d012f:	ff          	.byte 0xff
400d0130:	080000        	lsx	f0, a0, a0
400d0133:	ffff00        	f64cmph	a15, a15, a0, 15
400d0136:	fffff7        	bbsi	a15, 31, 400d0139 <_image_irom_vaddr+0x119>
400d0139:	ff          	.byte 0xff
400d013a:	fff9      	s32i.n	a15, a15, 60
400d013c:	801c      	movi.n	a0, 24
400d013e:	3f3ff4        	lsi	f15, a15, 252
400d0141:	ffffc0        	f64cmph	a15, a15, a12, 15
400d0144:	008534        	lsi	f3, a5, 0
400d0147:	ffff40        	f64cmph	a15, a15, a4, 15
400d014a:	ff          	.byte 0xff
400d014b:	3f          	.byte 0x3f
400d014c:	000000        	ill
400d014f:	ffff20        	f64cmph	a15, a15, a2, 15
400d0152:	ff          	.byte 0xff
400d0153:	df          	.byte 0xdf
400d0154:	6e          	.byte 0x6e
400d0155:	400b      	addi.n	a4, a0, -1
400d0157:	3f          	.byte 0x3f
400d0158:	0b5d      	mov.n	a5, a11
400d015a:	4c3f40        	lsi	f4, a15, 0x130
400d015d:	400b      	addi.n	a4, a0, -1
400d015f:	3f          	.byte 0x3f
400d0160:	0b3b      	addi.n	a0, a11, 3
400d0162:	2a3f40        	mul.s	f3, f15, f4
400d0165:	400b      	addi.n	a4, a0, -1
400d0167:	3f          	.byte 0x3f
400d0168:	0b19      	s32i.n	a1, a11, 0
400d016a:	083f40        	lsx	f3, a15, a4
400d016d:	400b      	addi.n	a4, a0, -1
400d016f:	3f          	.byte 0x3f
400d0170:	0041a4        	lsi	f10, a1, 0
400d0173:	80b040        	add	a11, a0, a4
400d0176:	fe3ff4        	lsi	f15, a15, 0x3f8
400d0179:	ff          	.byte 0xff
400d017a:	000000        	ill
400d017d:	3ff660        	f64cmph	a15, a6, a6, 3
400d0180:	0adb      	addi.n	a0, a10, 13
400d0182:	013f40        	slli	a3, a15, 28
400d0185:	000100        	lsi	f0, a1, 0
400d0188:	f66004        	lsi	f0, a0, 0x3d8
400d018b:	3f          	.byte 0x3f
400d018c:	bf          	.byte 0xbf
400d018d:	fbfa      	add.n	a15, a11, a15
400d018f:	ff          	.byte 0xff
400d0190:	000000        	ill
400d0193:	081b10        	lsx	f1, a11, a1
400d0196:	081b      	addi.n	a0, a8, 1
400d0198:	fff000        	f64cmph	a15, a0, a0, 15
400d019b:	0f          	.byte 0xf
400d019c:	07a120        	lsi	f2, a1, 28
400d019f:	de8300        	f64iter	a8, a3, a0, 1, 1
400d01a2:	431b      	addi.n	a4, a3, 1
400d01a4:	0081b3        	lsip	f11, a1, 0
400d01a7:	49f000        	s32e	a0, a0, -4
400d01aa:	680002        	l8ui	a0, a0, 104
400d01ad:	3ff5f0        	f64cmph	a15, a5, a15, 3
400d01b0:	006000        	rsil	a0, 0
400d01b3:	9fff00        	f64cmph	a15, a15, a0, 9
400d01b6:	ff          	.byte 0xff
400d01b7:	ff          	.byte 0xff
400d01b8:	ff0000        	f64cmph	a0, a0, a0, 15
400d01bb:	7f          	.byte 0x7f
400d01bc:	ff          	.byte 0xff
400d01bd:	ff          	.byte 0xff
400d01be:	ff8000        	f64cmph	a8, a0, a0, 15
400d01c1:	ff          	.byte 0xff
400d01c2:	ff          	.byte 0xff
400d01c3:	0b7f01        	l32r	a0, 40092fc0 <_iram_end+0xfd84>
400d01c6:	883f40        	lsi	f4, a15, 0x220
400d01c9:	400b      	addi.n	a4, a0, -1
400d01cb:	3f          	.byte 0x3f
400d01cc:	f06c      	movi.n	a0, -17
400d01ce:	f83ff5        	call12	400c85cc <_iram_end+0x45390>
400d01d1:	cf          	.byte 0xcf
400d01d2:	ff4000        	f64cmph	a4, a0, a0, 15
400d01d5:	ef          	.byte 0xef
400d01d6:	ff          	.byte 0xff
400d01d7:	7f          	.byte 0x7f
400d01d8:	81b320        	src	a11, a3, a2
400d01db:	400000        	ssr	a0
400d01de:	9c0f42        	l8ui	a4, a15, 156
400d01e1:	3f4005        	call0	4010f5e4 <_etext+0x3c124>
400d01e4:	400bc3        	lsi	f12, a11, 0x100
400d01e7:	3f          	.byte 0x3f
400d01e8:	400bd0        	lsi	f13, a11, 0x100
400d01eb:	3f          	.byte 0x3f
400d01ec:	400c14        	lsi	f1, a12, 0x100
400d01ef:	3f          	.byte 0x3f
400d01f0:	0c58      	l32i.n	a5, a12, 0
400d01f2:	ff3f40        	f64cmph	a3, a15, a4, 15
400d01f5:	3f          	.byte 0x3f
400d01f6:	ffffc0        	f64cmph	a15, a15, a12, 15
400d01f9:	ff          	.byte 0xff
400d01fa:	44fe01        	l32r	a0, 400a15f4 <_iram_end+0x1e3b8>
400d01fd:	6000e0        	neg	a0, a14
400d0200:	03ff00        	lsi	f0, a15, 12
400d0203:	bfff00        	f64cmph	a15, a15, a0, 11
400d0206:	fffd      	lsi	f15, a15, 60
400d0208:	7f          	.byte 0x7f
400d0209:	400c      	movi.n	a0, 4
400d020b:	3f          	.byte 0x3f
400d020c:	400cb7        	bnone	a12, a11, 400d0250 <_image_irom_vaddr+0x230>
400d020f:	3f          	.byte 0x3f
400d0210:	0d0b      	addi.n	a0, a13, -1
400d0212:	083f40        	lsx	f3, a15, a4
400d0215:	3ff660        	f64cmph	a15, a6, a6, 3
400d0218:	ff          	.byte 0xff
400d0219:	fffc00        	f64cmph	a15, a12, a0, 15
400d021c:	180000        	lsxp	f0, a0, a0
400d021f:	927800        	lsi	f0, a8, 0x248
400d0222:	004000        	break	0, 0
400d0225:	002000        	isync
400d0228:	020000        	andb	b0, b0, b0
400d022b:	000000        	ill
400d022e:	000010        	lsi	f1, a0, 0
400d0231:	020000        	andb	b0, b0, b0
400d0234:	000000        	ill
400d0237:	000004        	lsi	f0, a0, 0
400d023a:	000001        	l32r	a0, 4009023c <_iram_end+0xd000>
400d023d:	0008      	l32i.n	a0, a0, 0
400d023f:	060000        	lsi	f0, a0, 24
400d0242:	c03f40        	sub	a3, a15, a4
400d0245:	3ff000        	f64cmph	a15, a0, a0, 3
400d0248:	00cc      	bnez.n	a0, 400d024c <_image_irom_vaddr+0x22c>
400d024a:	1c3ff0        	lsi	f15, a15, 112
400d024d:	3ff000        	f64cmph	a15, a0, a0, 3
400d0250:	001c00        	movsp	a0, a12
400d0253:	00c400        	lsi	f0, a4, 0
400d0256:	d03ff0        	subx2	a3, a15, a15
400d0259:	3ff000        	f64cmph	a15, a0, a0, 3
400d025c:	f00020        	subx8	a0, a0, a2
400d025f:	3f          	.byte 0x3f
400d0260:	046c      	movi.n	a4, -32
400d0262:	3ffb      	addi.n	a3, a15, 15
400d0264:	05dc      	bnez.n	a5, 400d0278 <_image_irom_vaddr+0x258>
400d0266:	3ffb      	addi.n	a3, a15, 15
400d0268:	068c      	beqz.n	a6, 400d026c <_image_irom_vaddr+0x24c>
400d026a:	183f40        	lsxp	f3, a15, a4
400d026d:	3f4007        	ball	a0, a0, 400d02b0 <_image_irom_vaddr+0x290>
400d0270:	0398      	l32i.n	a9, a3, 0
400d0272:	3ffb      	addi.n	a3, a15, 15
400d0274:	fb0280        	f64addc	a8, a2, 0, 0
400d0277:	3f          	.byte 0x3f
400d0278:	400d30        	lsi	f3, a13, 0x100
400d027b:	3f          	.byte 0x3f
400d027c:	fb0014        	lsi	f1, a0, 0x3ec
400d027f:	3f          	.byte 0x3f
400d0280:	0d39      	s32i.n	a3, a13, 0
400d0282:	803f40        	add	a3, a15, a4
400d0285:	3ffb05        	call0	40110238 <_etext+0x3cd78>
400d0288:	047c      	movi.n	a4, -16
400d028a:	3ffb      	addi.n	a3, a15, 15
400d028c:	400d40        	lsi	f4, a13, 0x100
400d028f:	3f          	.byte 0x3f
400d0290:	fb0480        	f64addc	a8, a4, 0, 0
400d0293:	3f          	.byte 0x3f
400d0294:	0d2000        	lsi	f0, a0, 52
400d0297:	ffff40        	f64cmph	a15, a15, a4, 15
400d029a:	ffffc1        	l32r	a12, 400d0298 <_image_irom_vaddr+0x278>
400d029d:	ff          	.byte 0xff
400d029e:	fe          	.byte 0xfe
400d029f:	ff          	.byte 0xff
400d02a0:	f3e000        	lsi	f0, a0, 0x3cc
400d02a3:	bf          	.byte 0xbf
400d02a4:	ff          	.byte 0xff
400d02a5:	df          	.byte 0xdf
400d02a6:	630ff3        	lsi	f15, a15, 0x18c
400d02a9:	400d      	lsi	f0, a0, 0
400d02ab:	3f          	.byte 0x3f
400d02ac:	0806c0        	lsx	f0, a6, a12
400d02af:	ffff40        	f64cmph	a15, a15, a4, 15
400d02b2:	3f          	.byte 0x3f
400d02b3:	0478c0        	extui	a7, a12, 8, 1
400d02b6:	3ffb      	addi.n	a3, a15, 15
400d02b8:	c1ec      	bnez.n	a1, 400d02e8 <_image_irom_vaddr+0x2c8>
400d02ba:	1c4000        	lsi	f0, a0, 112
400d02bd:	0068      	l32i.n	a6, a0, 0
400d02bf:	091840        	l32e	a4, a8, -60
400d02c2:	ff3f40        	f64cmph	a3, a15, a4, 15
400d02c5:	04c4b3        	ssip	f11, a4, 16
400d02c8:	400040        	lsi	f4, a0, 0x100
400d02cb:	3f          	.byte 0x3f
400d02cc:	0d6d      	mov.n	a6, a13
400d02ce:	ff3f40        	f64cmph	a3, a15, a4, 15
400d02d1:	ff          	.byte 0xff
400d02d2:	ffffe7        	bbsi	a15, 30, 400d02d5 <_image_irom_vaddr+0x2b5>
400d02d5:	ff          	.byte 0xff
400d02d6:	fffb      	addi.n	a15, a15, 15
400d02d8:	0081d4        	lsi	f13, a1, 0
400d02db:	058440        	extui	a8, a4, 20, 1
400d02de:	3ffb      	addi.n	a3, a15, 15
400d02e0:	fb0224        	lsi	f2, a2, 0x3ec
400d02e3:	3f          	.byte 0x3f
400d02e4:	316c      	movi.n	a1, -29
400d02e6:	4008      	l32i.n	a0, a0, 16
400d02e8:	000000        	ill
400d02eb:	1fff06        	j	400d82eb <_etext+0x4e2b>
400d02ee:	fffc      	bnez.n	a15, 400d0331 <main+0x9>
400d02f0:	01dc      	bnez.n	a1, 400d0304 <_image_irom_vaddr+0x2e4>
400d02f2:	3ffb      	addi.n	a3, a15, 15
400d02f4:	ff          	.byte 0xff
400d02f5:	3ffb05        	call0	401102a8 <_etext+0x3cde8>
400d02f8:	0807a4        	lsi	f10, a7, 32
400d02fb:	ffff40        	f64cmph	a15, a15, a4, 15
400d02fe:	ef          	.byte 0xef
400d02ff:	0e          	.byte 0xe
400d0300:	ff          	.byte 0xff
400d0301:	fffff3        	lsi	f15, a15, 0x3fc
400d0304:	000c00        	lsi	f0, a12, 0
400d0307:	301c00        	xor	a1, a12, a0
400d030a:	1c6001        	l32r	a0, 4009748c <_iram_end+0x14250>
400d030d:	600270        	lsi	f7, a2, 0x180
400d0310:	f53000        	extui	a3, a0, 16, 16
400d0313:	3f          	.byte 0x3f
400d0314:	030016        	beqz	a0, 400d0348 <main+0x20>
400d0317:	9edc00        	f64iter	a13, a12, a0, 1, 0
400d031a:	ff4000        	f64cmph	a4, a0, a0, 15
400d031d:	ff          	.byte 0xff
400d031e:	ff          	.byte 0xff
400d031f:	ff          	.byte 0xff
400d0320:	0048      	l32i.n	a4, a0, 0
400d0322:	103f40        	and	a3, a15, a4
400d0325:	000100        	lsi	f0, a1, 0

400d0328 <main>:
400d0328:	004136        	entry	a1, 32
400d032b:	ff3d21        	l32r	a2, 400d0020 <_image_irom_vaddr>
400d032e:	20a220        	or	a10, a2, a2
400d0331:	b212a5        	call8	4008245c <z_device_is_ready>
400d0334:	005a56        	bnez	a10, 400d033d <main+0x15>
400d0337:	ff3ba1        	l32r	a10, 400d0024 <_image_irom_vaddr+0x4>
400d033a:	b2e0e5        	call8	40083148 <printk>
400d033d:	042292        	l32i	a9, a2, 16
400d0340:	ff3ab1        	l32r	a11, 400d0028 <_image_irom_vaddr+0x8>
400d0343:	002982        	l32i	a8, a9, 0
400d0346:	22a8      	l32i.n	a10, a2, 8
400d0348:	1088b0        	and	a8, a8, a11
400d034b:	0989      	s32i.n	a8, a9, 0
400d034d:	ff37c1        	l32r	a12, 400d002c <_image_irom_vaddr+0xc>
400d0350:	0a88      	l32i.n	a8, a10, 0
400d0352:	6b1c      	movi.n	a11, 22
400d0354:	02ad      	mov.n	a10, a2
400d0356:	0008e0        	callx8	a8
400d0359:	005ad6        	bgez	a10, 400d0362 <main+0x3a>
400d035c:	ff35a1        	l32r	a10, 400d0030 <_image_irom_vaddr+0x10>
400d035f:	b2dea5        	call8	40083148 <printk>
400d0362:	2288      	l32i.n	a8, a2, 8
400d0364:	ff34b1        	l32r	a11, 400d0034 <_image_irom_vaddr+0x14>
400d0367:	5888      	l32i.n	a8, a8, 20
400d0369:	02ad      	mov.n	a10, a2
400d036b:	0008e0        	callx8	a8
400d036e:	ff32b1        	l32r	a11, 400d0038 <_image_irom_vaddr+0x18>
400d0371:	ff32a1        	l32r	a10, 400d003c <_image_irom_vaddr+0x1c>
400d0374:	b2dd25        	call8	40083148 <printk>
400d0377:	ff33b1        	l32r	a11, 400d0044 <_image_irom_vaddr+0x24>
400d037a:	ff31a1        	l32r	a10, 400d0040 <_image_irom_vaddr+0x20>
400d037d:	b1c525        	call8	40081fd0 <z_impl_k_sleep>
400d0380:	fff786        	j	400d0362 <main+0x3a>
	...

400d0384 <__printk_hook_install>:
400d0384:	004136        	entry	a1, 32
400d0387:	ff3081        	l32r	a8, 400d0048 <_image_irom_vaddr+0x28>
400d038a:	0829      	s32i.n	a2, a8, 0
400d038c:	f01d      	retw.n
	...

400d0390 <z_thread_entry>:
400d0390:	004136        	entry	a1, 32
400d0393:	20c550        	or	a12, a5, a5
400d0396:	20b440        	or	a11, a4, a4
400d0399:	03ad      	mov.n	a10, a3
400d039b:	0002e0        	callx8	a2
400d039e:	b1c6a5        	call8	40082008 <z_impl_z_current_get>
400d03a1:	b1cfe5        	call8	400820a0 <z_impl_k_thread_abort>

400d03a4 <chunk_field>:
400d03a4:	004136        	entry	a1, 32
400d03a7:	1133d0        	slli	a3, a3, 3
400d03aa:	323a      	add.n	a3, a2, a3
400d03ac:	ff2881        	l32r	a8, 400d004c <_image_irom_vaddr+0x2c>
400d03af:	2228      	l32i.n	a2, a2, 8
400d03b1:	0bb827        	bgeu	a8, a2, 400d03c0 <chunk_field+0x1c>
400d03b4:	1144e0        	slli	a4, a4, 2
400d03b7:	334a      	add.n	a3, a3, a4
400d03b9:	0328      	l32i.n	a2, a3, 0
400d03bb:	000246        	j	400d03c8 <chunk_field+0x24>
400d03be:	f00000        	subx8	a0, a0, a0
400d03c1:	4a1144        	mula.da.lh.ldinc	m1, a1, m0, a4
400d03c4:	132233        	lsi	f3, a2, 76
400d03c7:	f01d00        	subx8	a1, a13, a0
	...

400d03cc <chunk_set>:
400d03cc:	004136        	entry	a1, 32
400d03cf:	1133d0        	slli	a3, a3, 3
400d03d2:	323a      	add.n	a3, a2, a3
400d03d4:	ff1e81        	l32r	a8, 400d004c <_image_irom_vaddr+0x2c>
400d03d7:	2228      	l32i.n	a2, a2, 8
400d03d9:	0bb827        	bgeu	a8, a2, 400d03e8 <chunk_set+0x1c>
400d03dc:	1144e0        	slli	a4, a4, 2
400d03df:	334a      	add.n	a3, a3, a4
400d03e1:	0359      	s32i.n	a5, a3, 0
400d03e3:	000246        	j	400d03f0 <chunk_set+0x24>
400d03e6:	f00000        	subx8	a0, a0, a0
400d03e9:	4a1144        	mula.da.lh.ldinc	m1, a1, m0, a4
400d03ec:	535233        	lsi	f3, a2, 0x14c
400d03ef:	f01d00        	subx8	a1, a13, a0
	...

400d03f4 <chunk_size>:
400d03f4:	004136        	entry	a1, 32
400d03f7:	1c0c      	movi.n	a12, 1
400d03f9:	03bd      	mov.n	a11, a3
400d03fb:	02ad      	mov.n	a10, a2
400d03fd:	fffa65        	call8	400d03a4 <chunk_field>
400d0400:	4121a0        	srli	a2, a10, 1
400d0403:	f01d      	retw.n
400d0405:	000000        	ill

400d0408 <set_chunk_used>:
400d0408:	004136        	entry	a1, 32
400d040b:	1133d0        	slli	a3, a3, 3
400d040e:	323a      	add.n	a3, a2, a3
400d0410:	ff0f81        	l32r	a8, 400d004c <_image_irom_vaddr+0x2c>
400d0413:	2228      	l32i.n	a2, a2, 8
400d0415:	17b827        	bgeu	a8, a2, 400d0430 <set_chunk_used+0x28>
400d0418:	1388      	l32i.n	a8, a3, 4
400d041a:	648c      	beqz.n	a4, 400d0424 <set_chunk_used+0x1c>
400d041c:	120c      	movi.n	a2, 1
400d041e:	208820        	or	a8, a8, a2
400d0421:	000106        	j	400d0429 <set_chunk_used+0x21>
400d0424:	e27c      	movi.n	a2, -2
400d0426:	108820        	and	a8, a8, a2
400d0429:	1389      	s32i.n	a8, a3, 4
400d042b:	000586        	j	400d0445 <set_chunk_used+0x3d>
400d042e:	820000        	mull	a0, a0, a0
400d0431:	8c0113        	lsi	f1, a1, 0x230
400d0434:	120c64        	lsi	f6, a12, 72
400d0437:	208820        	or	a8, a8, a2
400d043a:	000106        	j	400d0442 <set_chunk_used+0x3a>
400d043d:	e27c      	movi.n	a2, -2
400d043f:	108820        	and	a8, a8, a2
400d0442:	015382        	s16i	a8, a3, 2
400d0445:	f01d      	retw.n
	...

400d0448 <set_chunk_size>:
400d0448:	004136        	entry	a1, 32
400d044b:	11d4f0        	slli	a13, a4, 1
400d044e:	01a0c2        	movi	a12, 1
400d0451:	20b330        	or	a11, a3, a3
400d0454:	20a220        	or	a10, a2, a2
400d0457:	fff765        	call8	400d03cc <chunk_set>
400d045a:	f01d      	retw.n

400d045c <mem_to_chunkid>:
400d045c:	004136        	entry	a1, 32
400d045f:	fefba1        	l32r	a10, 400d004c <_image_irom_vaddr+0x2c>
400d0462:	2298      	l32i.n	a9, a2, 8
400d0464:	880c      	movi.n	a8, 8
400d0466:	023a97        	bltu	a10, a9, 400d046c <mem_to_chunkid+0x10>
400d0469:	04a082        	movi	a8, 4
400d046c:	c03380        	sub	a3, a3, a8
400d046f:	c02320        	sub	a2, a3, a2
400d0472:	412320        	srli	a2, a2, 3
400d0475:	f01d      	retw.n
	...

400d0478 <bucket_idx>:
400d0478:	004136        	entry	a1, 32
400d047b:	fef491        	l32r	a9, 400d004c <_image_irom_vaddr+0x2c>
400d047e:	2228      	l32i.n	a2, a2, 8
400d0480:	880c      	movi.n	a8, 8
400d0482:	023927        	bltu	a9, a2, 400d0488 <bucket_idx+0x10>
400d0485:	04a082        	movi	a8, 4
400d0488:	888b      	addi.n	a8, a8, 8
400d048a:	412380        	srli	a2, a8, 3
400d048d:	331b      	addi.n	a3, a3, 1
400d048f:	c03320        	sub	a3, a3, a2
400d0492:	40f330        	nsau	a3, a3
400d0495:	f21c      	movi.n	a2, 31
400d0497:	c02230        	sub	a2, a2, a3
400d049a:	f01d      	retw.n

400d049c <merge_chunks>:
400d049c:	004136        	entry	a1, 32
400d049f:	03bd      	mov.n	a11, a3
400d04a1:	02ad      	mov.n	a10, a2
400d04a3:	fff525        	call8	400d03f4 <chunk_size>
400d04a6:	04bd      	mov.n	a11, a4
400d04a8:	0a5d      	mov.n	a5, a10
400d04aa:	02ad      	mov.n	a10, a2
400d04ac:	fff465        	call8	400d03f4 <chunk_size>
400d04af:	55aa      	add.n	a5, a5, a10
400d04b1:	05cd      	mov.n	a12, a5
400d04b3:	03bd      	mov.n	a11, a3
400d04b5:	02ad      	mov.n	a10, a2
400d04b7:	fff925        	call8	400d0448 <set_chunk_size>
400d04ba:	04bd      	mov.n	a11, a4
400d04bc:	02ad      	mov.n	a10, a2
400d04be:	fff365        	call8	400d03f4 <chunk_size>
400d04c1:	b4aa      	add.n	a11, a4, a10
400d04c3:	05dd      	mov.n	a13, a5
400d04c5:	0c0c      	movi.n	a12, 0
400d04c7:	02ad      	mov.n	a10, a2
400d04c9:	fff025        	call8	400d03cc <chunk_set>
400d04cc:	f01d      	retw.n
	...

400d04d0 <split_chunks>:
400d04d0:	004136        	entry	a1, 32
400d04d3:	20b330        	or	a11, a3, a3
400d04d6:	20a220        	or	a10, a2, a2
400d04d9:	fff1a5        	call8	400d03f4 <chunk_size>
400d04dc:	c06430        	sub	a6, a4, a3
400d04df:	c05340        	sub	a5, a3, a4
400d04e2:	55aa      	add.n	a5, a5, a10
400d04e4:	06cd      	mov.n	a12, a6
400d04e6:	03bd      	mov.n	a11, a3
400d04e8:	20a220        	or	a10, a2, a2
400d04eb:	fff5e5        	call8	400d0448 <set_chunk_size>
400d04ee:	05cd      	mov.n	a12, a5
400d04f0:	04bd      	mov.n	a11, a4
400d04f2:	02ad      	mov.n	a10, a2
400d04f4:	fff525        	call8	400d0448 <set_chunk_size>
400d04f7:	06dd      	mov.n	a13, a6
400d04f9:	0c0c      	movi.n	a12, 0
400d04fb:	04bd      	mov.n	a11, a4
400d04fd:	02ad      	mov.n	a10, a2
400d04ff:	ffece5        	call8	400d03cc <chunk_set>
400d0502:	04bd      	mov.n	a11, a4
400d0504:	02ad      	mov.n	a10, a2
400d0506:	ffeee5        	call8	400d03f4 <chunk_size>
400d0509:	b4aa      	add.n	a11, a4, a10
400d050b:	05dd      	mov.n	a13, a5
400d050d:	0c0c      	movi.n	a12, 0
400d050f:	02ad      	mov.n	a10, a2
400d0511:	ffeba5        	call8	400d03cc <chunk_set>
400d0514:	f01d      	retw.n
	...

400d0518 <free_list_remove_bidx>:
400d0518:	004136        	entry	a1, 32
400d051b:	3c0c      	movi.n	a12, 3
400d051d:	03bd      	mov.n	a11, a3
400d051f:	02ad      	mov.n	a10, a2
400d0521:	ffe825        	call8	400d03a4 <chunk_field>
400d0524:	0a6d      	mov.n	a6, a10
400d0526:	544b      	addi.n	a5, a4, 4
400d0528:	1a93a7        	bne	a3, a10, 400d0546 <free_list_remove_bidx+0x2e>
400d052b:	e37c      	movi.n	a3, -2
400d052d:	401400        	ssl	a4
400d0530:	813330        	src	a3, a3, a3
400d0533:	3248      	l32i.n	a4, a2, 12
400d0535:	1155e0        	slli	a5, a5, 2
400d0538:	104430        	and	a4, a4, a3
400d053b:	3249      	s32i.n	a4, a2, 12
400d053d:	525a      	add.n	a5, a2, a5
400d053f:	020c      	movi.n	a2, 0
400d0541:	0529      	s32i.n	a2, a5, 0
400d0543:	000a46        	j	400d0570 <free_list_remove_bidx+0x58>
400d0546:	20b330        	or	a11, a3, a3
400d0549:	2c0c      	movi.n	a12, 2
400d054b:	20a220        	or	a10, a2, a2
400d054e:	1155e0        	slli	a5, a5, 2
400d0551:	ffe525        	call8	400d03a4 <chunk_field>
400d0554:	525a      	add.n	a5, a2, a5
400d0556:	0abd      	mov.n	a11, a10
400d0558:	0a3d      	mov.n	a3, a10
400d055a:	06dd      	mov.n	a13, a6
400d055c:	3c0c      	movi.n	a12, 3
400d055e:	02ad      	mov.n	a10, a2
400d0560:	0569      	s32i.n	a6, a5, 0
400d0562:	ffe6a5        	call8	400d03cc <chunk_set>
400d0565:	03dd      	mov.n	a13, a3
400d0567:	2c0c      	movi.n	a12, 2
400d0569:	06bd      	mov.n	a11, a6
400d056b:	02ad      	mov.n	a10, a2
400d056d:	ffe5e5        	call8	400d03cc <chunk_set>
400d0570:	f01d      	retw.n
	...

400d0574 <free_list_remove>:
400d0574:	004136        	entry	a1, 32
400d0577:	20b330        	or	a11, a3, a3
400d057a:	02ad      	mov.n	a10, a2
400d057c:	ffe765        	call8	400d03f4 <chunk_size>
400d057f:	feb391        	l32r	a9, 400d004c <_image_irom_vaddr+0x2c>
400d0582:	2288      	l32i.n	a8, a2, 8
400d0584:	02b987        	bgeu	a9, a8, 400d058a <free_list_remove+0x16>
400d0587:	0f1a26        	beqi	a10, 1, 400d059a <free_list_remove+0x26>
400d058a:	0abd      	mov.n	a11, a10
400d058c:	02ad      	mov.n	a10, a2
400d058e:	ffeea5        	call8	400d0478 <bucket_idx>
400d0591:	0acd      	mov.n	a12, a10
400d0593:	03bd      	mov.n	a11, a3
400d0595:	02ad      	mov.n	a10, a2
400d0597:	fff825        	call8	400d0518 <free_list_remove_bidx>
400d059a:	f01d      	retw.n

400d059c <alloc_chunk>:
400d059c:	006136        	entry	a1, 48
400d059f:	20a220        	or	a10, a2, a2
400d05a2:	20b330        	or	a11, a3, a3
400d05a5:	ffed25        	call8	400d0478 <bucket_idx>
400d05a8:	118ae0        	slli	a8, a10, 2
400d05ab:	806280        	add	a6, a2, a8
400d05ae:	024d      	mov.n	a4, a2
400d05b0:	4628      	l32i.n	a2, a6, 16
400d05b2:	0a5d      	mov.n	a5, a10
400d05b4:	0129      	s32i.n	a2, a1, 0
400d05b6:	92ac      	beqz.n	a2, 400d05e3 <alloc_chunk+0x47>
400d05b8:	370c      	movi.n	a7, 3
400d05ba:	4628      	l32i.n	a2, a6, 16
400d05bc:	04ad      	mov.n	a10, a4
400d05be:	20b220        	or	a11, a2, a2
400d05c1:	ffe325        	call8	400d03f4 <chunk_size>
400d05c4:	043a37        	bltu	a10, a3, 400d05cc <alloc_chunk+0x30>
400d05c7:	05cd      	mov.n	a12, a5
400d05c9:	001006        	j	400d060d <alloc_chunk+0x71>
400d05cc:	20b220        	or	a11, a2, a2
400d05cf:	03a0c2        	movi	a12, 3
400d05d2:	04ad      	mov.n	a10, a4
400d05d4:	ffdce5        	call8	400d03a4 <chunk_field>
400d05d7:	0128      	l32i.n	a2, a1, 0
400d05d9:	46a9      	s32i.n	a10, a6, 16
400d05db:	770b      	addi.n	a7, a7, -1
400d05dd:	0212a7        	beq	a2, a10, 400d05e3 <alloc_chunk+0x47>
400d05e0:	fd6756        	bnez	a7, 400d05ba <alloc_chunk+0x1e>
400d05e3:	251b      	addi.n	a2, a5, 1
400d05e5:	f87c      	movi.n	a8, -1
400d05e7:	401200        	ssl	a2
400d05ea:	a18800        	sll	a8, a8
400d05ed:	3428      	l32i.n	a2, a4, 12
400d05ef:	102820        	and	a2, a8, a2
400d05f2:	e29c      	beqz.n	a2, 400d0614 <alloc_chunk+0x78>
400d05f4:	60c020        	neg	a12, a2
400d05f7:	10cc20        	and	a12, a12, a2
400d05fa:	40fcc0        	nsau	a12, a12
400d05fd:	60c0c0        	neg	a12, a12
400d0600:	23cc22        	addi	a2, a12, 35
400d0603:	1122e0        	slli	a2, a2, 2
400d0606:	242a      	add.n	a2, a4, a2
400d0608:	0228      	l32i.n	a2, a2, 0
400d060a:	1fccc2        	addi	a12, a12, 31
400d060d:	02bd      	mov.n	a11, a2
400d060f:	04ad      	mov.n	a10, a4
400d0611:	fff065        	call8	400d0518 <free_list_remove_bidx>
400d0614:	f01d      	retw.n
	...

400d0618 <free_list_add>:
400d0618:	004136        	entry	a1, 32
400d061b:	03bd      	mov.n	a11, a3
400d061d:	02ad      	mov.n	a10, a2
400d061f:	ffdd65        	call8	400d03f4 <chunk_size>
400d0622:	fe8a51        	l32r	a5, 400d004c <_image_irom_vaddr+0x2c>
400d0625:	2248      	l32i.n	a4, a2, 8
400d0627:	05b547        	bgeu	a5, a4, 400d0630 <free_list_add+0x18>
400d062a:	021a66        	bnei	a10, 1, 400d0630 <free_list_add+0x18>
400d062d:	001bc6        	j	400d06a0 <free_list_add+0x88>
400d0630:	0abd      	mov.n	a11, a10
400d0632:	02ad      	mov.n	a10, a2
400d0634:	ffe425        	call8	400d0478 <bucket_idx>
400d0637:	118ae0        	slli	a8, a10, 2
400d063a:	828a      	add.n	a8, a2, a8
400d063c:	4848      	l32i.n	a4, a8, 16
400d063e:	44ec      	bnez.n	a4, 400d0666 <free_list_add+0x4e>
400d0640:	140c      	movi.n	a4, 1
400d0642:	401a00        	ssl	a10
400d0645:	a14400        	sll	a4, a4
400d0648:	32a8      	l32i.n	a10, a2, 12
400d064a:	03dd      	mov.n	a13, a3
400d064c:	20aa40        	or	a10, a10, a4
400d064f:	32a9      	s32i.n	a10, a2, 12
400d0651:	2c0c      	movi.n	a12, 2
400d0653:	03bd      	mov.n	a11, a3
400d0655:	4839      	s32i.n	a3, a8, 16
400d0657:	02ad      	mov.n	a10, a2
400d0659:	ffd725        	call8	400d03cc <chunk_set>
400d065c:	03dd      	mov.n	a13, a3
400d065e:	3c0c      	movi.n	a12, 3
400d0660:	03bd      	mov.n	a11, a3
400d0662:	000d46        	j	400d069b <free_list_add+0x83>
400d0665:	a0c200        	addx4	a12, a2, a0
400d0668:	b44002        	s8i	a0, a0, 180
400d066b:	a22020        	muluh	a2, a0, a2
400d066e:	d36520        	movt	a6, a5, b2
400d0671:	ff          	.byte 0xff
400d0672:	0add      	mov.n	a13, a10
400d0674:	0a5d      	mov.n	a5, a10
400d0676:	2c0c      	movi.n	a12, 2
400d0678:	03bd      	mov.n	a11, a3
400d067a:	02ad      	mov.n	a10, a2
400d067c:	ffd4e5        	call8	400d03cc <chunk_set>
400d067f:	04dd      	mov.n	a13, a4
400d0681:	3c0c      	movi.n	a12, 3
400d0683:	03bd      	mov.n	a11, a3
400d0685:	02ad      	mov.n	a10, a2
400d0687:	ffd465        	call8	400d03cc <chunk_set>
400d068a:	03dd      	mov.n	a13, a3
400d068c:	3c0c      	movi.n	a12, 3
400d068e:	05bd      	mov.n	a11, a5
400d0690:	02ad      	mov.n	a10, a2
400d0692:	ffd3a5        	call8	400d03cc <chunk_set>
400d0695:	03dd      	mov.n	a13, a3
400d0697:	2c0c      	movi.n	a12, 2
400d0699:	04bd      	mov.n	a11, a4
400d069b:	02ad      	mov.n	a10, a2
400d069d:	ffd2e5        	call8	400d03cc <chunk_set>
400d06a0:	f01d      	retw.n
	...

400d06a4 <free_chunk>:
400d06a4:	004136        	entry	a1, 32
400d06a7:	03bd      	mov.n	a11, a3
400d06a9:	02ad      	mov.n	a10, a2
400d06ab:	ffd4a5        	call8	400d03f4 <chunk_size>
400d06ae:	43aa      	add.n	a4, a3, a10
400d06b0:	1c0c      	movi.n	a12, 1
400d06b2:	04bd      	mov.n	a11, a4
400d06b4:	02ad      	mov.n	a10, a2
400d06b6:	ffcee5        	call8	400d03a4 <chunk_field>
400d06b9:	16ea07        	bbsi	a10, 0, 400d06d3 <free_chunk+0x2f>
400d06bc:	04bd      	mov.n	a11, a4
400d06be:	02ad      	mov.n	a10, a2
400d06c0:	ffeb25        	call8	400d0574 <free_list_remove>
400d06c3:	03bd      	mov.n	a11, a3
400d06c5:	02ad      	mov.n	a10, a2
400d06c7:	ffd2e5        	call8	400d03f4 <chunk_size>
400d06ca:	c3aa      	add.n	a12, a3, a10
400d06cc:	03bd      	mov.n	a11, a3
400d06ce:	02ad      	mov.n	a10, a2
400d06d0:	ffdca5        	call8	400d049c <merge_chunks>
400d06d3:	0c0c      	movi.n	a12, 0
400d06d5:	03bd      	mov.n	a11, a3
400d06d7:	02ad      	mov.n	a10, a2
400d06d9:	ffcca5        	call8	400d03a4 <chunk_field>
400d06dc:	c053a0        	sub	a5, a3, a10
400d06df:	1c0c      	movi.n	a12, 1
400d06e1:	05bd      	mov.n	a11, a5
400d06e3:	02ad      	mov.n	a10, a2
400d06e5:	ffcbe5        	call8	400d03a4 <chunk_field>
400d06e8:	0440a0        	extui	a4, a10, 0, 1
400d06eb:	44ec      	bnez.n	a4, 400d0713 <free_chunk+0x6f>
400d06ed:	05bd      	mov.n	a11, a5
400d06ef:	02ad      	mov.n	a10, a2
400d06f1:	ffe825        	call8	400d0574 <free_list_remove>
400d06f4:	03bd      	mov.n	a11, a3
400d06f6:	04cd      	mov.n	a12, a4
400d06f8:	02ad      	mov.n	a10, a2
400d06fa:	ffcaa5        	call8	400d03a4 <chunk_field>
400d06fd:	c0b3a0        	sub	a11, a3, a10
400d0700:	03cd      	mov.n	a12, a3
400d0702:	02ad      	mov.n	a10, a2
400d0704:	ffd965        	call8	400d049c <merge_chunks>
400d0707:	03bd      	mov.n	a11, a3
400d0709:	04cd      	mov.n	a12, a4
400d070b:	02ad      	mov.n	a10, a2
400d070d:	ffc965        	call8	400d03a4 <chunk_field>
400d0710:	c033a0        	sub	a3, a3, a10
400d0713:	03bd      	mov.n	a11, a3
400d0715:	02ad      	mov.n	a10, a2
400d0717:	fff025        	call8	400d0618 <free_list_add>
400d071a:	f01d      	retw.n

400d071c <sys_heap_free>:
400d071c:	004136        	entry	a1, 32
400d071f:	01b316        	beqz	a3, 400d073e <sys_heap_free+0x22>
400d0722:	0228      	l32i.n	a2, a2, 0
400d0724:	03bd      	mov.n	a11, a3
400d0726:	20a220        	or	a10, a2, a2
400d0729:	ffd325        	call8	400d045c <mem_to_chunkid>
400d072c:	0abd      	mov.n	a11, a10
400d072e:	0a3d      	mov.n	a3, a10
400d0730:	0c0c      	movi.n	a12, 0
400d0732:	02ad      	mov.n	a10, a2
400d0734:	ffcd25        	call8	400d0408 <set_chunk_used>
400d0737:	03bd      	mov.n	a11, a3
400d0739:	02ad      	mov.n	a10, a2
400d073b:	fff6a5        	call8	400d06a4 <free_chunk>
400d073e:	f01d      	retw.n

400d0740 <sys_heap_alloc>:
400d0740:	004136        	entry	a1, 32
400d0743:	0228      	l32i.n	a2, a2, 0
400d0745:	005356        	bnez	a3, 400d074e <sys_heap_alloc+0xe>
400d0748:	020c      	movi.n	a2, 0
400d074a:	001886        	j	400d07b0 <sys_heap_alloc+0x70>
400d074d:	228800        	orb	b8, b8, b0
400d0750:	414330        	srli	a4, a3, 3
400d0753:	f1b487        	bgeu	a4, a8, 400d0748 <sys_heap_alloc+0x8>
400d0756:	fe3d91        	l32r	a9, 400d004c <_image_irom_vaddr+0x2c>
400d0759:	840c      	movi.n	a4, 8
400d075b:	013987        	bltu	a9, a8, 400d0760 <sys_heap_alloc+0x20>
400d075e:	440c      	movi.n	a4, 4
400d0760:	337b      	addi.n	a3, a3, 7
400d0762:	334a      	add.n	a3, a3, a4
400d0764:	413330        	srli	a3, a3, 3
400d0767:	03bd      	mov.n	a11, a3
400d0769:	02ad      	mov.n	a10, a2
400d076b:	ffe325        	call8	400d059c <alloc_chunk>
400d076e:	0a4d      	mov.n	a4, a10
400d0770:	fd4a16        	beqz	a10, 400d0748 <sys_heap_alloc+0x8>
400d0773:	0abd      	mov.n	a11, a10
400d0775:	02ad      	mov.n	a10, a2
400d0777:	ffc7e5        	call8	400d03f4 <chunk_size>
400d077a:	13b3a7        	bgeu	a3, a10, 400d0791 <sys_heap_alloc+0x51>
400d077d:	343a      	add.n	a3, a4, a3
400d077f:	04bd      	mov.n	a11, a4
400d0781:	02ad      	mov.n	a10, a2
400d0783:	20c330        	or	a12, a3, a3
400d0786:	ffd4a5        	call8	400d04d0 <split_chunks>
400d0789:	03bd      	mov.n	a11, a3
400d078b:	20a220        	or	a10, a2, a2
400d078e:	ffe8a5        	call8	400d0618 <free_list_add>
400d0791:	20b440        	or	a11, a4, a4
400d0794:	01a0c2        	movi	a12, 1
400d0797:	20a220        	or	a10, a2, a2
400d079a:	ffc6e5        	call8	400d0408 <set_chunk_used>
400d079d:	fe2b91        	l32r	a9, 400d004c <_image_irom_vaddr+0x2c>
400d07a0:	2288      	l32i.n	a8, a2, 8
400d07a2:	1144d0        	slli	a4, a4, 3
400d07a5:	830c      	movi.n	a3, 8
400d07a7:	013987        	bltu	a9, a8, 400d07ac <sys_heap_alloc+0x6c>
400d07aa:	430c      	movi.n	a3, 4
400d07ac:	443a      	add.n	a4, a4, a3
400d07ae:	224a      	add.n	a2, a2, a4
400d07b0:	f01d      	retw.n
	...

400d07b4 <sys_heap_aligned_alloc>:
400d07b4:	004136        	entry	a1, 32
400d07b7:	0268      	l32i.n	a6, a2, 0
400d07b9:	605030        	neg	a5, a3
400d07bc:	105530        	and	a5, a5, a3
400d07bf:	02ad      	mov.n	a10, a2
400d07c1:	2698      	l32i.n	a9, a6, 8
400d07c3:	fe2221        	l32r	a2, 400d004c <_image_irom_vaddr+0x2c>
400d07c6:	141357        	beq	a3, a5, 400d07de <sys_heap_aligned_alloc+0x2a>
400d07c9:	c03350        	sub	a3, a3, a5
400d07cc:	4b0c      	movi.n	a11, 4
400d07ce:	02b297        	bgeu	a2, a9, 400d07d4 <sys_heap_aligned_alloc+0x20>
400d07d1:	08a0b2        	movi	a11, 8
400d07d4:	6385b0        	minu	a8, a5, a11
400d07d7:	057d      	mov.n	a7, a5
400d07d9:	035d      	mov.n	a5, a3
400d07db:	000646        	j	400d07f8 <sys_heap_aligned_alloc+0x44>
400d07de:	04a082        	movi	a8, 4
400d07e1:	02b297        	bgeu	a2, a9, 400d07e7 <sys_heap_aligned_alloc+0x33>
400d07e4:	08a082        	movi	a8, 8
400d07e7:	00a072        	movi	a7, 0
400d07ea:	0a3857        	bltu	a8, a5, 400d07f8 <sys_heap_aligned_alloc+0x44>
400d07ed:	04bd      	mov.n	a11, a4
400d07ef:	fff525        	call8	400d0740 <sys_heap_alloc>
400d07f2:	0a2d      	mov.n	a2, a10
400d07f4:	002906        	j	400d089c <sys_heap_aligned_alloc+0xe8>
400d07f7:	54cc00        	extui	a12, a0, 12, 6
400d07fa:	020c      	movi.n	a2, 0
400d07fc:	002706        	j	400d089c <sys_heap_aligned_alloc+0xe8>
400d07ff:	400000        	ssr	a0
400d0802:	974123        	ssi	f2, a1, 0x25c
400d0805:	31f2b2        	s32ri	a11, a2, 196
400d0808:	7bfe11        	l32r	a1, 400af800 <_iram_end+0x2c5c4>
400d080b:	bb5ab4        	lsi	f11, a10, 0x2ec
400d080e:	820c      	movi.n	a2, 8
400d0810:	013397        	bltu	a3, a9, 400d0815 <sys_heap_aligned_alloc+0x61>
400d0813:	420c      	movi.n	a2, 4
400d0815:	c0bb80        	sub	a11, a11, a8
400d0818:	bb2a      	add.n	a11, a11, a2
400d081a:	41b3b0        	srli	a11, a11, 3
400d081d:	06ad      	mov.n	a10, a6
400d081f:	ffd7e5        	call8	400d059c <alloc_chunk>
400d0822:	0a3d      	mov.n	a3, a10
400d0824:	fd2a16        	beqz	a10, 400d07fa <sys_heap_aligned_alloc+0x46>
400d0827:	112ad0        	slli	a2, a10, 3
400d082a:	2698      	l32i.n	a9, a6, 8
400d082c:	fe08a1        	l32r	a10, 400d004c <_image_irom_vaddr+0x2c>
400d082f:	880c      	movi.n	a8, 8
400d0831:	013a97        	bltu	a10, a9, 400d0836 <sys_heap_aligned_alloc+0x82>
400d0834:	480c      	movi.n	a8, 4
400d0836:	272a      	add.n	a2, a7, a2
400d0838:	228a      	add.n	a2, a2, a8
400d083a:	262a      	add.n	a2, a6, a2
400d083c:	850b      	addi.n	a8, a5, -1
400d083e:	228a      	add.n	a2, a2, a8
400d0840:	605050        	neg	a5, a5
400d0843:	102250        	and	a2, a2, a5
400d0846:	c02270        	sub	a2, a2, a7
400d0849:	424a      	add.n	a4, a2, a4
400d084b:	447b      	addi.n	a4, a4, 7
400d084d:	877c      	movi.n	a7, -8
400d084f:	02bd      	mov.n	a11, a2
400d0851:	06ad      	mov.n	a10, a6
400d0853:	104470        	and	a4, a4, a7
400d0856:	ffc065        	call8	400d045c <mem_to_chunkid>
400d0859:	c04460        	sub	a4, a4, a6
400d085c:	0a5d      	mov.n	a5, a10
400d085e:	214340        	srai	a4, a4, 3
400d0861:	0fb3a7        	bgeu	a3, a10, 400d0874 <sys_heap_aligned_alloc+0xc0>
400d0864:	0acd      	mov.n	a12, a10
400d0866:	03bd      	mov.n	a11, a3
400d0868:	06ad      	mov.n	a10, a6
400d086a:	ffc665        	call8	400d04d0 <split_chunks>
400d086d:	03bd      	mov.n	a11, a3
400d086f:	06ad      	mov.n	a10, a6
400d0871:	ffda65        	call8	400d0618 <free_list_add>
400d0874:	05bd      	mov.n	a11, a5
400d0876:	06ad      	mov.n	a10, a6
400d0878:	ffb7a5        	call8	400d03f4 <chunk_size>
400d087b:	a5aa      	add.n	a10, a5, a10
400d087d:	0fb4a7        	bgeu	a4, a10, 400d0890 <sys_heap_aligned_alloc+0xdc>
400d0880:	05bd      	mov.n	a11, a5
400d0882:	06ad      	mov.n	a10, a6
400d0884:	04cd      	mov.n	a12, a4
400d0886:	ffc4a5        	call8	400d04d0 <split_chunks>
400d0889:	04bd      	mov.n	a11, a4
400d088b:	06ad      	mov.n	a10, a6
400d088d:	ffd8a5        	call8	400d0618 <free_list_add>
400d0890:	01a0c2        	movi	a12, 1
400d0893:	20b550        	or	a11, a5, a5
400d0896:	20a660        	or	a10, a6, a6
400d0899:	ffb6e5        	call8	400d0408 <set_chunk_used>
400d089c:	f01d      	retw.n
	...

400d08a0 <sys_heap_init>:
400d08a0:	004136        	entry	a1, 32
400d08a3:	fdeb51        	l32r	a5, 400d0050 <_image_irom_vaddr+0x30>
400d08a6:	08a092        	movi	a9, 8
400d08a9:	023547        	bltu	a5, a4, 400d08af <sys_heap_init+0xf>
400d08ac:	04a092        	movi	a9, 4
400d08af:	c04490        	sub	a4, a4, a9
400d08b2:	f8af82        	movi	a8, -8
400d08b5:	537b      	addi.n	a5, a3, 7
400d08b7:	334a      	add.n	a3, a3, a4
400d08b9:	105580        	and	a5, a5, a8
400d08bc:	103380        	and	a3, a3, a8
400d08bf:	c03350        	sub	a3, a3, a5
400d08c2:	0259      	s32i.n	a5, a2, 0
400d08c4:	413330        	srli	a3, a3, 3
400d08c7:	040c      	movi.n	a4, 0
400d08c9:	2539      	s32i.n	a3, a5, 8
400d08cb:	3549      	s32i.n	a4, a5, 12
400d08cd:	03bd      	mov.n	a11, a3
400d08cf:	05ad      	mov.n	a10, a5
400d08d1:	ffba65        	call8	400d0478 <bucket_idx>
400d08d4:	112ae0        	slli	a2, a10, 2
400d08d7:	1bc222        	addi	a2, a2, 27
400d08da:	412320        	srli	a2, a2, 3
400d08dd:	10c592        	addi	a9, a5, 16
400d08e0:	048d      	mov.n	a8, a4
400d08e2:	000146        	j	400d08eb <sys_heap_init+0x4b>
400d08e5:	0949      	s32i.n	a4, a9, 0
400d08e7:	881b      	addi.n	a8, a8, 1
400d08e9:	994b      	addi.n	a9, a9, 4
400d08eb:	f6aa87        	bge	a10, a8, 400d08e5 <sys_heap_init+0x45>
400d08ee:	02cd      	mov.n	a12, a2
400d08f0:	05ad      	mov.n	a10, a5
400d08f2:	0b0c      	movi.n	a11, 0
400d08f4:	ffb525        	call8	400d0448 <set_chunk_size>
400d08f7:	0d0c      	movi.n	a13, 0
400d08f9:	0dcd      	mov.n	a12, a13
400d08fb:	0dbd      	mov.n	a11, a13
400d08fd:	05ad      	mov.n	a10, a5
400d08ff:	fface5        	call8	400d03cc <chunk_set>
400d0902:	05ad      	mov.n	a10, a5
400d0904:	1c0c      	movi.n	a12, 1
400d0906:	0b0c      	movi.n	a11, 0
400d0908:	ffafe5        	call8	400d0408 <set_chunk_used>
400d090b:	c04320        	sub	a4, a3, a2
400d090e:	04cd      	mov.n	a12, a4
400d0910:	02bd      	mov.n	a11, a2
400d0912:	05ad      	mov.n	a10, a5
400d0914:	ffb325        	call8	400d0448 <set_chunk_size>
400d0917:	02dd      	mov.n	a13, a2
400d0919:	02bd      	mov.n	a11, a2
400d091b:	05ad      	mov.n	a10, a5
400d091d:	0c0c      	movi.n	a12, 0
400d091f:	ffaae5        	call8	400d03cc <chunk_set>
400d0922:	03bd      	mov.n	a11, a3
400d0924:	05ad      	mov.n	a10, a5
400d0926:	0c0c      	movi.n	a12, 0
400d0928:	ffb1e5        	call8	400d0448 <set_chunk_size>
400d092b:	04dd      	mov.n	a13, a4
400d092d:	03bd      	mov.n	a11, a3
400d092f:	05ad      	mov.n	a10, a5
400d0931:	0c0c      	movi.n	a12, 0
400d0933:	ffa9a5        	call8	400d03cc <chunk_set>
400d0936:	03bd      	mov.n	a11, a3
400d0938:	05ad      	mov.n	a10, a5
400d093a:	1c0c      	movi.n	a12, 1
400d093c:	ffaca5        	call8	400d0408 <set_chunk_used>
400d093f:	02bd      	mov.n	a11, a2
400d0941:	05ad      	mov.n	a10, a5
400d0943:	ffcd65        	call8	400d0618 <free_list_add>
400d0946:	f01d      	retw.n

400d0948 <pinmux_set>:
400d0948:	004136        	entry	a1, 32
400d094b:	2974f6        	bgeui	a4, 7, 400d0978 <pinmux_set+0x30>
400d094e:	722c      	movi.n	a2, 39
400d0950:	243237        	bltu	a2, a3, 400d0978 <pinmux_set+0x30>
400d0953:	fdc081        	l32r	a8, 400d0054 <_image_irom_vaddr+0x34>
400d0956:	1133e0        	slli	a3, a3, 2
400d0959:	383a      	add.n	a3, a8, a3
400d095b:	0328      	l32i.n	a2, a3, 0
400d095d:	fdbe31        	l32r	a3, 400d0058 <_image_irom_vaddr+0x38>
400d0960:	0020c0        	memw
400d0963:	0288      	l32i.n	a8, a2, 0
400d0965:	114440        	slli	a4, a4, 12
400d0968:	108830        	and	a8, a8, a3
400d096b:	208840        	or	a8, a8, a4
400d096e:	0020c0        	memw
400d0971:	0289      	s32i.n	a8, a2, 0
400d0973:	020c      	movi.n	a2, 0
400d0975:	000046        	j	400d097a <pinmux_set+0x32>
400d0978:	a26c      	movi.n	a2, -22
400d097a:	f01d      	retw.n

400d097c <pinmux_get>:
400d097c:	004136        	entry	a1, 32
400d097f:	782c      	movi.n	a8, 39
400d0981:	a26c      	movi.n	a2, -22
400d0983:	153837        	bltu	a8, a3, 400d099c <pinmux_get+0x20>
400d0986:	fdb381        	l32r	a8, 400d0054 <_image_irom_vaddr+0x34>
400d0989:	1133e0        	slli	a3, a3, 2
400d098c:	383a      	add.n	a3, a8, a3
400d098e:	0328      	l32i.n	a2, a3, 0
400d0990:	0020c0        	memw
400d0993:	0238      	l32i.n	a3, a2, 0
400d0995:	020c      	movi.n	a2, 0
400d0997:	243c30        	extui	a3, a3, 12, 3
400d099a:	0439      	s32i.n	a3, a4, 0
400d099c:	f01d      	retw.n
	...

400d09a0 <pinmux_input>:
400d09a0:	006136        	entry	a1, 48
400d09a3:	744040        	extui	a4, a4, 0, 8
400d09a6:	03ad      	mov.n	a10, a3
400d09a8:	04ac      	beqz.n	a4, 400d09cc <pinmux_input+0x2c>
400d09aa:	a26c      	movi.n	a2, -22
400d09ac:	681466        	bnei	a4, 1, 400d0a18 <pinmux_input+0x78>
400d09af:	fda921        	l32r	a2, 400d0054 <_image_irom_vaddr+0x34>
400d09b2:	11a3e0        	slli	a10, a3, 2
400d09b5:	a2aa      	add.n	a10, a2, a10
400d09b7:	0a88      	l32i.n	a8, a10, 0
400d09b9:	00a242        	movi	a4, 0x200
400d09bc:	0020c0        	memw
400d09bf:	0828      	l32i.n	a2, a8, 0
400d09c1:	202240        	or	a2, a2, a4
400d09c4:	0020c0        	memw
400d09c7:	0829      	s32i.n	a2, a8, 0
400d09c9:	001246        	j	400d0a16 <pinmux_input+0x76>
400d09cc:	f41c      	movi.n	a4, 31
400d09ce:	fda321        	l32r	a2, 400d005c <_image_irom_vaddr+0x3c>
400d09d1:	0f2437        	blt	a4, a3, 400d09e4 <pinmux_input+0x44>
400d09d4:	180c      	movi.n	a8, 1
400d09d6:	401300        	ssl	a3
400d09d9:	a18800        	sll	a8, a8
400d09dc:	0020c0        	memw
400d09df:	9289      	s32i.n	a8, a2, 36
400d09e1:	000906        	j	400d0a09 <pinmux_input+0x69>
400d09e4:	0020c0        	memw
400d09e7:	c248      	l32i.n	a4, a2, 48
400d09e9:	180c      	movi.n	a8, 1
400d09eb:	401300        	ssl	a3
400d09ee:	a18800        	sll	a8, a8
400d09f1:	0020c0        	memw
400d09f4:	0149      	s32i.n	a4, a1, 0
400d09f6:	748080        	extui	a8, a8, 0, 8
400d09f9:	0020c0        	memw
400d09fc:	004182        	s8i	a8, a1, 0
400d09ff:	0020c0        	memw
400d0a02:	0148      	l32i.n	a4, a1, 0
400d0a04:	0020c0        	memw
400d0a07:	c249      	s32i.n	a4, a2, 48
400d0a09:	0d0c      	movi.n	a13, 0
400d0a0b:	0dcd      	mov.n	a12, a13
400d0a0d:	00a1b2        	movi	a11, 0x100
400d0a10:	fd9481        	l32r	a8, 400d0060 <_image_irom_vaddr+0x40>
400d0a13:	0008e0        	callx8	a8
400d0a16:	020c      	movi.n	a2, 0
400d0a18:	f01d      	retw.n
	...

400d0a1c <pinmux_pullup>:
400d0a1c:	004136        	entry	a1, 32
400d0a1f:	744040        	extui	a4, a4, 0, 8
400d0a22:	a48c      	beqz.n	a4, 400d0a30 <pinmux_pullup+0x14>
400d0a24:	a26c      	movi.n	a2, -22
400d0a26:	021426        	beqi	a4, 1, 400d0a2c <pinmux_pullup+0x10>
400d0a29:	004246        	j	400d0b36 <pinmux_pullup+0x11a>
400d0a2c:	002086        	j	400d0ab2 <pinmux_pullup+0x96>
400d0a2f:	722c00        	lsi	f0, a12, 0x1c8
400d0a32:	1183e0        	slli	a8, a3, 2
400d0a35:	1f3237        	bltu	a2, a3, 400d0a58 <pinmux_pullup+0x3c>
400d0a38:	fd8b31        	l32r	a3, 400d0064 <_image_irom_vaddr+0x44>
400d0a3b:	338a      	add.n	a3, a3, a8
400d0a3d:	0338      	l32i.n	a3, a3, 0
400d0a3f:	015396        	bltz	a3, 400d0a58 <pinmux_pullup+0x3c>
400d0a42:	1123d0        	slli	a2, a3, 3
400d0a45:	fd8891        	l32r	a9, 400d0068 <_image_irom_vaddr+0x48>
400d0a48:	c08230        	sub	a8, a2, a3
400d0a4b:	1188d0        	slli	a8, a8, 3
400d0a4e:	898a      	add.n	a8, a9, a8
400d0a50:	58a8      	l32i.n	a10, a8, 20
400d0a52:	4aec      	bnez.n	a10, 400d0a7a <pinmux_pullup+0x5e>
400d0a54:	000c46        	j	400d0a89 <pinmux_pullup+0x6d>
400d0a57:	7f2100        	f64cmph	a2, a1, a0, 7
400d0a5a:	42fd      	lsi	f15, a2, 8
400d0a5c:	ae          	.byte 0xae
400d0a5d:	ff          	.byte 0xff
400d0a5e:	228a      	add.n	a2, a2, a8
400d0a60:	0228      	l32i.n	a2, a2, 0
400d0a62:	0020c0        	memw
400d0a65:	0238      	l32i.n	a3, a2, 0
400d0a67:	103340        	and	a3, a3, a4
400d0a6a:	0020c0        	memw
400d0a6d:	0239      	s32i.n	a3, a2, 0
400d0a6f:	0020c0        	memw
400d0a72:	0238      	l32i.n	a3, a2, 0
400d0a74:	80a042        	movi	a4, 128
400d0a77:	001a06        	j	400d0ae3 <pinmux_pullup+0xc7>
400d0a7a:	0888      	l32i.n	a8, a8, 0
400d0a7c:	0020c0        	memw
400d0a7f:	0848      	l32i.n	a4, a8, 0
400d0a81:	20aa40        	or	a10, a10, a4
400d0a84:	0020c0        	memw
400d0a87:	08a9      	s32i.n	a10, a8, 0
400d0a89:	c02230        	sub	a2, a2, a3
400d0a8c:	1122d0        	slli	a2, a2, 3
400d0a8f:	292a      	add.n	a2, a9, a2
400d0a91:	4288      	l32i.n	a8, a2, 16
400d0a93:	48cc      	bnez.n	a8, 400d0a9b <pinmux_pullup+0x7f>
400d0a95:	7aaf22        	movi	a2, -134
400d0a98:	002686        	j	400d0b36 <pinmux_pullup+0x11a>
400d0a9b:	0238      	l32i.n	a3, a2, 0
400d0a9d:	f27c      	movi.n	a2, -1
400d0a9f:	0020c0        	memw
400d0aa2:	0348      	l32i.n	a4, a3, 0
400d0aa4:	302280        	xor	a2, a2, a8
400d0aa7:	102240        	and	a2, a2, a4
400d0aaa:	0020c0        	memw
400d0aad:	0329      	s32i.n	a2, a3, 0
400d0aaf:	002046        	j	400d0b34 <pinmux_pullup+0x118>
400d0ab2:	722c      	movi.n	a2, 39
400d0ab4:	1183e0        	slli	a8, a3, 2
400d0ab7:	093237        	bltu	a2, a3, 400d0ac4 <pinmux_pullup+0xa8>
400d0aba:	fd6a31        	l32r	a3, 400d0064 <_image_irom_vaddr+0x44>
400d0abd:	338a      	add.n	a3, a3, a8
400d0abf:	03a8      	l32i.n	a10, a3, 0
400d0ac1:	02bad6        	bgez	a10, 400d0af0 <pinmux_pullup+0xd4>
400d0ac4:	fd6421        	l32r	a2, 400d0054 <_image_irom_vaddr+0x34>
400d0ac7:	7faf42        	movi	a4, -129
400d0aca:	228a      	add.n	a2, a2, a8
400d0acc:	0228      	l32i.n	a2, a2, 0
400d0ace:	0020c0        	memw
400d0ad1:	0238      	l32i.n	a3, a2, 0
400d0ad3:	103340        	and	a3, a3, a4
400d0ad6:	0020c0        	memw
400d0ad9:	0239      	s32i.n	a3, a2, 0
400d0adb:	0020c0        	memw
400d0ade:	0238      	l32i.n	a3, a2, 0
400d0ae0:	00a142        	movi	a4, 0x100
400d0ae3:	203340        	or	a3, a3, a4
400d0ae6:	0020c0        	memw
400d0ae9:	0239      	s32i.n	a3, a2, 0
400d0aeb:	001146        	j	400d0b34 <pinmux_pullup+0x118>
400d0aee:	d00000        	subx2	a0, a0, a0
400d0af1:	112a      	add.n	a1, a1, a2
400d0af3:	fd5d91        	l32r	a9, 400d0068 <_image_irom_vaddr+0x48>
400d0af6:	c082a0        	sub	a8, a2, a10
400d0af9:	1188d0        	slli	a8, a8, 3
400d0afc:	898a      	add.n	a8, a9, a8
400d0afe:	58b8      	l32i.n	a11, a8, 20
400d0b00:	4b9c      	beqz.n	a11, 400d0b18 <pinmux_pullup+0xfc>
400d0b02:	0838      	l32i.n	a3, a8, 0
400d0b04:	f87c      	movi.n	a8, -1
400d0b06:	0020c0        	memw
400d0b09:	002342        	l32i	a4, a3, 0
400d0b0c:	3088b0        	xor	a8, a8, a11
400d0b0f:	108840        	and	a8, a8, a4
400d0b12:	0020c0        	memw
400d0b15:	006382        	s32i	a8, a3, 0
400d0b18:	c022a0        	sub	a2, a2, a10
400d0b1b:	1122d0        	slli	a2, a2, 3
400d0b1e:	292a      	add.n	a2, a9, a2
400d0b20:	4288      	l32i.n	a8, a2, 16
400d0b22:	f6f816        	beqz	a8, 400d0a95 <pinmux_pullup+0x79>
400d0b25:	0228      	l32i.n	a2, a2, 0
400d0b27:	0020c0        	memw
400d0b2a:	0238      	l32i.n	a3, a2, 0
400d0b2c:	208830        	or	a8, a8, a3
400d0b2f:	0020c0        	memw
400d0b32:	0289      	s32i.n	a8, a2, 0
400d0b34:	020c      	movi.n	a2, 0
400d0b36:	f01d      	retw.n

400d0b38 <i2c_hal_master_handle_tx_event>:
400d0b38:	004136        	entry	a1, 32
400d0b3b:	0022a2        	l32i	a10, a2, 0
400d0b3e:	20b330        	or	a11, a3, a3
400d0b41:	0232a5        	call8	400d2e6c <i2c_ll_master_get_event>
400d0b44:	002382        	l32i	a8, a3, 0
400d0b47:	0248b6        	bltui	a8, 4, 400d0b4d <i2c_hal_master_handle_tx_event+0x15>
400d0b4a:	165866        	bnei	a8, 5, 400d0b64 <i2c_hal_master_handle_tx_event+0x2c>
400d0b4d:	0228      	l32i.n	a2, a2, 0
400d0b4f:	57aa32        	movi	a3, 0xfffffa57
400d0b52:	0020c0        	memw
400d0b55:	a288      	l32i.n	a8, a2, 40
400d0b57:	108830        	and	a8, a8, a3
400d0b5a:	0020c0        	memw
400d0b5d:	a289      	s32i.n	a8, a2, 40
400d0b5f:	000186        	j	400d0b69 <i2c_hal_master_handle_tx_event+0x31>
400d0b62:	660000        	lsi	f0, a0, 0x198
400d0b65:	0948      	l32i.n	a4, a9, 0
400d0b67:	0228      	l32i.n	a2, a2, 0
400d0b69:	a8a532        	movi	a3, 0x5a8
400d0b6c:	0020c0        	memw
400d0b6f:	9239      	s32i.n	a3, a2, 36
400d0b71:	f01d      	retw.n
	...

400d0b74 <i2c_hal_master_handle_rx_event>:
400d0b74:	004136        	entry	a1, 32
400d0b77:	0022a2        	l32i	a10, a2, 0
400d0b7a:	20b330        	or	a11, a3, a3
400d0b7d:	022ee5        	call8	400d2e6c <i2c_ll_master_get_event>
400d0b80:	002382        	l32i	a8, a3, 0
400d0b83:	0248b6        	bltui	a8, 4, 400d0b89 <i2c_hal_master_handle_rx_event+0x15>
400d0b86:	165866        	bnei	a8, 5, 400d0ba0 <i2c_hal_master_handle_rx_event+0x2c>
400d0b89:	0228      	l32i.n	a2, a2, 0
400d0b8b:	57ae32        	movi	a3, 0xfffffe57
400d0b8e:	0020c0        	memw
400d0b91:	a288      	l32i.n	a8, a2, 40
400d0b93:	108830        	and	a8, a8, a3
400d0b96:	0020c0        	memw
400d0b99:	a289      	s32i.n	a8, a2, 40
400d0b9b:	000186        	j	400d0ba5 <i2c_hal_master_handle_rx_event+0x31>
400d0b9e:	660000        	lsi	f0, a0, 0x198
400d0ba1:	0948      	l32i.n	a4, a9, 0
400d0ba3:	0228      	l32i.n	a2, a2, 0
400d0ba5:	a8a132        	movi	a3, 0x1a8
400d0ba8:	0020c0        	memw
400d0bab:	9239      	s32i.n	a3, a2, 36
400d0bad:	f01d      	retw.n
	...

400d0bb0 <i2c_hal_txfifo_rst>:
400d0bb0:	004136        	entry	a1, 32
400d0bb3:	0288      	l32i.n	a8, a2, 0
400d0bb5:	fd2da1        	l32r	a10, 400d006c <_image_irom_vaddr+0x4c>
400d0bb8:	0020c0        	memw
400d0bbb:	6898      	l32i.n	a9, a8, 24
400d0bbd:	2099a0        	or	a9, a9, a10
400d0bc0:	0020c0        	memw
400d0bc3:	6899      	s32i.n	a9, a8, 24
400d0bc5:	0020c0        	memw
400d0bc8:	6898      	l32i.n	a9, a8, 24
400d0bca:	fd29a1        	l32r	a10, 400d0070 <_image_irom_vaddr+0x50>
400d0bcd:	1099a0        	and	a9, a9, a10
400d0bd0:	0020c0        	memw
400d0bd3:	6899      	s32i.n	a9, a8, 24
400d0bd5:	f01d      	retw.n
	...

400d0bd8 <i2c_hal_rxfifo_rst>:
400d0bd8:	004136        	entry	a1, 32
400d0bdb:	0288      	l32i.n	a8, a2, 0
400d0bdd:	fd25a1        	l32r	a10, 400d0074 <_image_irom_vaddr+0x54>
400d0be0:	0020c0        	memw
400d0be3:	6898      	l32i.n	a9, a8, 24
400d0be5:	2099a0        	or	a9, a9, a10
400d0be8:	0020c0        	memw
400d0beb:	6899      	s32i.n	a9, a8, 24
400d0bed:	0020c0        	memw
400d0bf0:	6898      	l32i.n	a9, a8, 24
400d0bf2:	fd21a1        	l32r	a10, 400d0078 <_image_irom_vaddr+0x58>
400d0bf5:	1099a0        	and	a9, a9, a10
400d0bf8:	0020c0        	memw
400d0bfb:	6899      	s32i.n	a9, a8, 24
400d0bfd:	f01d      	retw.n
	...

400d0c00 <i2c_hal_set_scl_timing>:
400d0c00:	004136        	entry	a1, 32
400d0c03:	02a8      	l32i.n	a10, a2, 0
400d0c05:	fd1db1        	l32r	a11, 400d007c <_image_irom_vaddr+0x5c>
400d0c08:	0020c0        	memw
400d0c0b:	0a98      	l32i.n	a9, a10, 0
400d0c0d:	d44040        	extui	a4, a4, 0, 14
400d0c10:	1099b0        	and	a9, a9, a11
400d0c13:	209940        	or	a9, a9, a4
400d0c16:	0020c0        	memw
400d0c19:	0a99      	s32i.n	a9, a10, 0
400d0c1b:	0020c0        	memw
400d0c1e:	ea88      	l32i.n	a8, a10, 56
400d0c20:	d43030        	extui	a3, a3, 0, 14
400d0c23:	1088b0        	and	a8, a8, a11
400d0c26:	208830        	or	a8, a8, a3
400d0c29:	0020c0        	memw
400d0c2c:	ea89      	s32i.n	a8, a10, 56
400d0c2e:	f01d      	retw.n

400d0c30 <i2c_hal_set_tout>:
400d0c30:	004136        	entry	a1, 32
400d0c33:	0298      	l32i.n	a9, a2, 0
400d0c35:	fd1281        	l32r	a8, 400d0080 <_image_irom_vaddr+0x60>
400d0c38:	fd13a1        	l32r	a10, 400d0084 <_image_irom_vaddr+0x64>
400d0c3b:	103380        	and	a3, a3, a8
400d0c3e:	0020c0        	memw
400d0c41:	3988      	l32i.n	a8, a9, 12
400d0c43:	1088a0        	and	a8, a8, a10
400d0c46:	208830        	or	a8, a8, a3
400d0c49:	0020c0        	memw
400d0c4c:	3989      	s32i.n	a8, a9, 12
400d0c4e:	f01d      	retw.n

400d0c50 <i2c_hal_set_stop_timing>:
400d0c50:	004136        	entry	a1, 32
400d0c53:	0298      	l32i.n	a9, a2, 0
400d0c55:	00aca2        	movi	a10, 0xfffffc00
400d0c58:	0020c0        	memw
400d0c5b:	132982        	l32i	a8, a9, 76
400d0c5e:	943030        	extui	a3, a3, 0, 10
400d0c61:	1088a0        	and	a8, a8, a10
400d0c64:	208830        	or	a8, a8, a3
400d0c67:	0020c0        	memw
400d0c6a:	136982        	s32i	a8, a9, 76
400d0c6d:	0020c0        	memw
400d0c70:	122982        	l32i	a8, a9, 72
400d0c73:	fd02a1        	l32r	a10, 400d007c <_image_irom_vaddr+0x5c>
400d0c76:	d44040        	extui	a4, a4, 0, 14
400d0c79:	1088a0        	and	a8, a8, a10
400d0c7c:	208840        	or	a8, a8, a4
400d0c7f:	0020c0        	memw
400d0c82:	126982        	s32i	a8, a9, 72
400d0c85:	f01d      	retw.n
	...

400d0c88 <i2c_hal_get_tout>:
400d0c88:	004136        	entry	a1, 32
400d0c8b:	0288      	l32i.n	a8, a2, 0
400d0c8d:	fcfc91        	l32r	a9, 400d0080 <_image_irom_vaddr+0x60>
400d0c90:	0020c0        	memw
400d0c93:	3888      	l32i.n	a8, a8, 12
400d0c95:	108890        	and	a8, a8, a9
400d0c98:	0389      	s32i.n	a8, a3, 0
400d0c9a:	f01d      	retw.n

400d0c9c <i2c_hal_set_bus_timing>:
400d0c9c:	004136        	entry	a1, 32
400d0c9f:	020366        	bnei	a3, -1, 400d0ca5 <i2c_hal_set_bus_timing+0x9>
400d0ca2:	fcf931        	l32r	a3, 400d0088 <_image_irom_vaddr+0x68>
400d0ca5:	fcf981        	l32r	a8, 400d008c <_image_irom_vaddr+0x6c>
400d0ca8:	fcf5e1        	l32r	a14, 400d007c <_image_irom_vaddr+0x5c>
400d0cab:	c23830        	quou	a3, a8, a3
400d0cae:	0288      	l32i.n	a8, a2, 0
400d0cb0:	41a130        	srli	a10, a3, 1
400d0cb3:	0020c0        	memw
400d0cb6:	08b8      	l32i.n	a11, a8, 0
400d0cb8:	d4d0a0        	extui	a13, a10, 0, 14
400d0cbb:	10bbe0        	and	a11, a11, a14
400d0cbe:	20bbd0        	or	a11, a11, a13
400d0cc1:	0020c0        	memw
400d0cc4:	08b9      	s32i.n	a11, a8, 0
400d0cc6:	0020c0        	memw
400d0cc9:	e8b8      	l32i.n	a11, a8, 56
400d0ccb:	00acc2        	movi	a12, 0xfffffc00
400d0cce:	10bbe0        	and	a11, a11, a14
400d0cd1:	20bbd0        	or	a11, a11, a13
400d0cd4:	0020c0        	memw
400d0cd7:	e8b9      	s32i.n	a11, a8, 56
400d0cd9:	0020c0        	memw
400d0cdc:	c8b8      	l32i.n	a11, a8, 48
400d0cde:	943230        	extui	a3, a3, 2, 10
400d0ce1:	10bbc0        	and	a11, a11, a12
400d0ce4:	203b30        	or	a3, a11, a3
400d0ce7:	0020c0        	memw
400d0cea:	c839      	s32i.n	a3, a8, 48
400d0cec:	0020c0        	memw
400d0cef:	d838      	l32i.n	a3, a8, 52
400d0cf1:	f490a0        	extui	a9, a10, 0, 16
400d0cf4:	94b190        	extui	a11, a9, 1, 10
400d0cf7:	1033c0        	and	a3, a3, a12
400d0cfa:	2033b0        	or	a3, a3, a11
400d0cfd:	0020c0        	memw
400d0d00:	d839      	s32i.n	a3, a8, 52
400d0d02:	0020c0        	memw
400d0d05:	112832        	l32i	a3, a8, 68
400d0d08:	94a0a0        	extui	a10, a10, 0, 10
400d0d0b:	1033c0        	and	a3, a3, a12
400d0d0e:	2033a0        	or	a3, a3, a10
400d0d11:	0020c0        	memw
400d0d14:	116832        	s32i	a3, a8, 68
400d0d17:	0020c0        	memw
400d0d1a:	1328b2        	l32i	a11, a8, 76
400d0d1d:	10bbc0        	and	a11, a11, a12
400d0d20:	20bba0        	or	a11, a11, a10
400d0d23:	0020c0        	memw
400d0d26:	1368b2        	s32i	a11, a8, 76
400d0d29:	0020c0        	memw
400d0d2c:	1028b2        	l32i	a11, a8, 64
400d0d2f:	10bbc0        	and	a11, a11, a12
400d0d32:	20aba0        	or	a10, a11, a10
400d0d35:	0020c0        	memw
400d0d38:	1068a2        	s32i	a10, a8, 64
400d0d3b:	0020c0        	memw
400d0d3e:	122832        	l32i	a3, a8, 72
400d0d41:	fcd0a1        	l32r	a10, 400d0084 <_image_irom_vaddr+0x64>
400d0d44:	1033e0        	and	a3, a3, a14
400d0d47:	2033d0        	or	a3, a3, a13
400d0d4a:	0020c0        	memw
400d0d4d:	126832        	s32i	a3, a8, 72
400d0d50:	1139e0        	slli	a3, a9, 2
400d0d53:	993a      	add.n	a9, a9, a3
400d0d55:	0020c0        	memw
400d0d58:	3838      	l32i.n	a3, a8, 12
400d0d5a:	1199e0        	slli	a9, a9, 2
400d0d5d:	f49090        	extui	a9, a9, 0, 16
400d0d60:	1033a0        	and	a3, a3, a10
400d0d63:	209390        	or	a9, a3, a9
400d0d66:	0020c0        	memw
400d0d69:	3899      	s32i.n	a9, a8, 12
400d0d6b:	f01d      	retw.n
400d0d6d:	000000        	ill

400d0d70 <i2c_hal_master_init>:
400d0d70:	006136        	entry	a1, 48
400d0d73:	0288      	l32i.n	a8, a2, 0
400d0d75:	0020c0        	memw
400d0d78:	3e2892        	l32i	a9, a8, 248
400d0d7b:	1299      	s32i.n	a9, a2, 4
400d0d7d:	020c      	movi.n	a2, 0
400d0d7f:	0020c0        	memw
400d0d82:	0129      	s32i.n	a2, a1, 0
400d0d84:	0020c0        	memw
400d0d87:	0198      	l32i.n	a9, a1, 0
400d0d89:	021c      	movi.n	a2, 16
400d0d8b:	209920        	or	a9, a9, a2
400d0d8e:	0020c0        	memw
400d0d91:	0199      	s32i.n	a9, a1, 0
400d0d93:	0020c0        	memw
400d0d96:	0198      	l32i.n	a9, a1, 0
400d0d98:	120c      	movi.n	a2, 1
400d0d9a:	209920        	or	a9, a9, a2
400d0d9d:	0020c0        	memw
400d0da0:	0199      	s32i.n	a9, a1, 0
400d0da2:	0020c0        	memw
400d0da5:	0198      	l32i.n	a9, a1, 0
400d0da7:	220c      	movi.n	a2, 2
400d0da9:	209920        	or	a9, a9, a2
400d0dac:	0020c0        	memw
400d0daf:	0199      	s32i.n	a9, a1, 0
400d0db1:	0020c0        	memw
400d0db4:	0128      	l32i.n	a2, a1, 0
400d0db6:	0020c0        	memw
400d0db9:	1829      	s32i.n	a2, a8, 4
400d0dbb:	0020c0        	memw
400d0dbe:	6898      	l32i.n	a9, a8, 24
400d0dc0:	ffab22        	movi	a2, 0xfffffbff
400d0dc3:	109920        	and	a9, a9, a2
400d0dc6:	0020c0        	memw
400d0dc9:	6899      	s32i.n	a9, a8, 24
400d0dcb:	0020c0        	memw
400d0dce:	1898      	l32i.n	a9, a8, 4
400d0dd0:	bfaf22        	movi	a2, -65
400d0dd3:	109920        	and	a9, a9, a2
400d0dd6:	0020c0        	memw
400d0dd9:	1899      	s32i.n	a9, a8, 4
400d0ddb:	0020c0        	memw
400d0dde:	1898      	l32i.n	a9, a8, 4
400d0de0:	7faf22        	movi	a2, -129
400d0de3:	109920        	and	a9, a9, a2
400d0de6:	0020c0        	memw
400d0de9:	1899      	s32i.n	a9, a8, 4
400d0deb:	0020c0        	memw
400d0dee:	6898      	l32i.n	a9, a8, 24
400d0df0:	fc9f21        	l32r	a2, 400d006c <_image_irom_vaddr+0x4c>
400d0df3:	209920        	or	a9, a9, a2
400d0df6:	0020c0        	memw
400d0df9:	6899      	s32i.n	a9, a8, 24
400d0dfb:	0020c0        	memw
400d0dfe:	6898      	l32i.n	a9, a8, 24
400d0e00:	fc9c21        	l32r	a2, 400d0070 <_image_irom_vaddr+0x50>
400d0e03:	109920        	and	a9, a9, a2
400d0e06:	0020c0        	memw
400d0e09:	6899      	s32i.n	a9, a8, 24
400d0e0b:	0020c0        	memw
400d0e0e:	6898      	l32i.n	a9, a8, 24
400d0e10:	fc9921        	l32r	a2, 400d0074 <_image_irom_vaddr+0x54>
400d0e13:	209920        	or	a9, a9, a2
400d0e16:	0020c0        	memw
400d0e19:	6899      	s32i.n	a9, a8, 24
400d0e1b:	0020c0        	memw
400d0e1e:	6898      	l32i.n	a9, a8, 24
400d0e20:	fc9621        	l32r	a2, 400d0078 <_image_irom_vaddr+0x58>
400d0e23:	109920        	and	a9, a9, a2
400d0e26:	0020c0        	memw
400d0e29:	6899      	s32i.n	a9, a8, 24
400d0e2b:	f01d      	retw.n
400d0e2d:	000000        	ill

400d0e30 <uart_hal_set_sclk>:
400d0e30:	004136        	entry	a1, 32
400d0e33:	0298      	l32i.n	a9, a2, 0
400d0e35:	1a0c      	movi.n	a10, 1
400d0e37:	080c      	movi.n	a8, 0
400d0e39:	838a30        	moveqz	a8, a10, a3
400d0e3c:	013850        	slli	a3, a8, 27
400d0e3f:	fc94a1        	l32r	a10, 400d0090 <_image_irom_vaddr+0x70>
400d0e42:	0020c0        	memw
400d0e45:	8988      	l32i.n	a8, a9, 32
400d0e47:	1088a0        	and	a8, a8, a10
400d0e4a:	208830        	or	a8, a8, a3
400d0e4d:	0020c0        	memw
400d0e50:	8989      	s32i.n	a8, a9, 32
400d0e52:	f01d      	retw.n

400d0e54 <uart_hal_set_baudrate>:
400d0e54:	004136        	entry	a1, 32
400d0e57:	0298      	l32i.n	a9, a2, 0
400d0e59:	fc8c81        	l32r	a8, 400d008c <_image_irom_vaddr+0x6c>
400d0e5c:	0020c0        	memw
400d0e5f:	0829a2        	l32i	a10, a9, 32
400d0e62:	02fab7        	bbsi	a10, 27, 400d0e68 <uart_hal_set_baudrate+0x14>
400d0e65:	fc8b81        	l32r	a8, 400d0094 <_image_irom_vaddr+0x74>
400d0e68:	1188c0        	slli	a8, a8, 4
400d0e6b:	c23830        	quou	a3, a8, a3
400d0e6e:	118380        	slli	a8, a3, 8
400d0e71:	41ac80        	srli	a10, a8, 12
400d0e74:	fc84b1        	l32r	a11, 400d0084 <_image_irom_vaddr+0x64>
400d0e77:	0020c0        	memw
400d0e7a:	5988      	l32i.n	a8, a9, 20
400d0e7c:	343030        	extui	a3, a3, 0, 4
400d0e7f:	1088b0        	and	a8, a8, a11
400d0e82:	2088a0        	or	a8, a8, a10
400d0e85:	0020c0        	memw
400d0e88:	5989      	s32i.n	a8, a9, 20
400d0e8a:	0020c0        	memw
400d0e8d:	5988      	l32i.n	a8, a9, 20
400d0e8f:	fc82a1        	l32r	a10, 400d0098 <_image_irom_vaddr+0x78>
400d0e92:	0133c0        	slli	a3, a3, 20
400d0e95:	1088a0        	and	a8, a8, a10
400d0e98:	203830        	or	a3, a8, a3
400d0e9b:	0020c0        	memw
400d0e9e:	5939      	s32i.n	a3, a9, 20
400d0ea0:	f01d      	retw.n
	...

400d0ea4 <uart_hal_set_hw_flow_ctrl>:
400d0ea4:	004136        	entry	a1, 32
400d0ea7:	744040        	extui	a4, a4, 0, 8
400d0eaa:	0288      	l32i.n	a8, a2, 0
400d0eac:	286307        	bbci	a3, 0, 400d0ed8 <uart_hal_set_hw_flow_ctrl+0x34>
400d0eaf:	0020c0        	memw
400d0eb2:	9898      	l32i.n	a9, a8, 36
400d0eb4:	fc7aa1        	l32r	a10, 400d009c <_image_irom_vaddr+0x7c>
400d0eb7:	644040        	extui	a4, a4, 0, 7
400d0eba:	114400        	slli	a4, a4, 16
400d0ebd:	1099a0        	and	a9, a9, a10
400d0ec0:	209940        	or	a9, a9, a4
400d0ec3:	0020c0        	memw
400d0ec6:	9899      	s32i.n	a9, a8, 36
400d0ec8:	0020c0        	memw
400d0ecb:	9848      	l32i.n	a4, a8, 36
400d0ecd:	fc7491        	l32r	a9, 400d00a0 <_image_irom_vaddr+0x80>
400d0ed0:	204490        	or	a4, a4, a9
400d0ed3:	000306        	j	400d0ee3 <uart_hal_set_hw_flow_ctrl+0x3f>
400d0ed6:	c00000        	sub	a0, a0, a0
400d0ed9:	480020        	ssx	f0, a0, a2
400d0edc:	9198      	l32i.n	a9, a1, 36
400d0ede:	90fc71        	l32r	a7, 400b52d0 <_iram_end+0x32094>
400d0ee1:	c01044        	lsi	f4, a0, 0x300
400d0ee4:	490020        	s32e	a2, a0, -64
400d0ee7:	c098      	l32i.n	a9, a0, 48
400d0ee9:	480020        	ssx	f0, a0, a2
400d0eec:	1788      	l32i.n	a8, a7, 4
400d0eee:	310863        	lsi	f6, a8, 196
400d0ef1:	6e          	.byte 0x6e
400d0ef2:	30fc      	bnez.n	a0, 400d0f29 <uart_hal_set_rx_timeout+0x1>
400d0ef4:	462044        	lsi	f4, a0, 0x118
400d0ef7:	310001        	l32r	a0, 4009d2f8 <_iram_end+0x1a0bc>
400d0efa:	fc6c      	movi.n	a12, -17
400d0efc:	104430        	and	a4, a4, a3
400d0eff:	0020c0        	memw
400d0f02:	8849      	s32i.n	a4, a8, 32
400d0f04:	f01d      	retw.n
	...

400d0f08 <uart_hal_set_txfifo_empty_thr>:
400d0f08:	004136        	entry	a1, 32
400d0f0b:	0298      	l32i.n	a9, a2, 0
400d0f0d:	643030        	extui	a3, a3, 0, 7
400d0f10:	118380        	slli	a8, a3, 8
400d0f13:	fc67a1        	l32r	a10, 400d00b0 <_image_irom_vaddr+0x90>
400d0f16:	0020c0        	memw
400d0f19:	9938      	l32i.n	a3, a9, 36
400d0f1b:	1033a0        	and	a3, a3, a10
400d0f1e:	203380        	or	a3, a3, a8
400d0f21:	0020c0        	memw
400d0f24:	9939      	s32i.n	a3, a9, 36
400d0f26:	f01d      	retw.n

400d0f28 <uart_hal_set_rx_timeout>:
400d0f28:	004136        	entry	a1, 32
400d0f2b:	02ad      	mov.n	a10, a2
400d0f2d:	022c25        	call8	400d31f0 <uart_hal_get_symb_len>
400d0f30:	743030        	extui	a3, a3, 0, 8
400d0f33:	0298      	l32i.n	a9, a2, 0
400d0f35:	82aa30        	mull	a10, a10, a3
400d0f38:	0020c0        	memw
400d0f3b:	8928      	l32i.n	a2, a9, 32
400d0f3d:	f4a0a0        	extui	a10, a10, 0, 16
400d0f40:	8a7b      	addi.n	a8, a10, 7
400d0f42:	418380        	srli	a8, a8, 3
400d0f45:	05f2b7        	bbsi	a2, 27, 400d0f4e <uart_hal_set_rx_timeout+0x26>
400d0f48:	11aad0        	slli	a10, a10, 3
400d0f4b:	f480a0        	extui	a8, a10, 0, 16
400d0f4e:	68ac      	beqz.n	a8, 400d0f78 <uart_hal_set_rx_timeout+0x50>
400d0f50:	0020c0        	memw
400d0f53:	9938      	l32i.n	a3, a9, 36
400d0f55:	fc5721        	l32r	a2, 400d00b4 <_image_irom_vaddr+0x94>
400d0f58:	648080        	extui	a8, a8, 0, 7
400d0f5b:	103320        	and	a3, a3, a2
400d0f5e:	018880        	slli	a8, a8, 24
400d0f61:	208380        	or	a8, a3, a8
400d0f64:	0020c0        	memw
400d0f67:	9989      	s32i.n	a8, a9, 36
400d0f69:	0020c0        	memw
400d0f6c:	9938      	l32i.n	a3, a9, 36
400d0f6e:	fc5221        	l32r	a2, 400d00b8 <_image_irom_vaddr+0x98>
400d0f71:	203320        	or	a3, a3, a2
400d0f74:	0002c6        	j	400d0f83 <uart_hal_set_rx_timeout+0x5b>
400d0f77:	20c000        	or	a12, a0, a0
400d0f7a:	993800        	lsi	f0, a8, 0x264
400d0f7d:	fc4f21        	l32r	a2, 400d00bc <_image_irom_vaddr+0x9c>
400d0f80:	103320        	and	a3, a3, a2
400d0f83:	0020c0        	memw
400d0f86:	9939      	s32i.n	a3, a9, 36
400d0f88:	f01d      	retw.n
	...

400d0f8c <uart_hal_rxfifo_rst>:
400d0f8c:	006136        	entry	a1, 48
400d0f8f:	0288      	l32i.n	a8, a2, 0
400d0f91:	fc4ea1        	l32r	a10, 400d00cc <_image_irom_vaddr+0xac>
400d0f94:	fc4b91        	l32r	a9, 400d00c0 <_image_irom_vaddr+0xa0>
400d0f97:	0b18a7        	beq	a8, a10, 400d0fa6 <uart_hal_rxfifo_rst+0x1a>
400d0f9a:	fc4da1        	l32r	a10, 400d00d0 <_image_irom_vaddr+0xb0>
400d0f9d:	fc4991        	l32r	a9, 400d00c4 <_image_irom_vaddr+0xa4>
400d0fa0:	0218a7        	beq	a8, a10, 400d0fa6 <uart_hal_rxfifo_rst+0x1a>
400d0fa3:	fc4991        	l32r	a9, 400d00c8 <_image_irom_vaddr+0xa8>
400d0fa6:	0020c0        	memw
400d0fa9:	78a8      	l32i.n	a10, a8, 28
400d0fab:	0020c0        	memw
400d0fae:	01a9      	s32i.n	a10, a1, 0
400d0fb0:	0020c0        	memw
400d0fb3:	0001a2        	l8ui	a10, a1, 0
400d0fb6:	0020c0        	memw
400d0fb9:	1828b2        	l32i	a11, a8, 96
400d0fbc:	74a0a0        	extui	a10, a10, 0, 8
400d0fbf:	0020c0        	memw
400d0fc2:	11b9      	s32i.n	a11, a1, 4
400d0fc4:	1adc      	bnez.n	a10, 400d0fd9 <uart_hal_rxfifo_rst+0x4d>
400d0fc6:	0020c0        	memw
400d0fc9:	11b8      	l32i.n	a11, a1, 4
400d0fcb:	0020c0        	memw
400d0fce:	11a8      	l32i.n	a10, a1, 4
400d0fd0:	a4b2b0        	extui	a11, a11, 2, 11
400d0fd3:	a4ada0        	extui	a10, a10, 13, 11
400d0fd6:	071ba7        	beq	a11, a10, 400d0fe1 <uart_hal_rxfifo_rst+0x55>
400d0fd9:	0020c0        	memw
400d0fdc:	09a8      	l32i.n	a10, a9, 0
400d0fde:	fff106        	j	400d0fa6 <uart_hal_rxfifo_rst+0x1a>
400d0fe1:	f01d      	retw.n
	...

400d0fe4 <uart_hal_write_txfifo>:
400d0fe4:	006136        	entry	a1, 48
400d0fe7:	0022b2        	l32i	a11, a2, 0
400d0fea:	0020c0        	memw
400d0fed:	072b82        	l32i	a8, a11, 28
400d0ff0:	0020c0        	memw
400d0ff3:	006182        	s32i	a8, a1, 0
400d0ff6:	0020c0        	memw
400d0ff9:	020182        	l8ui	a8, a1, 2
400d0ffc:	749080        	extui	a9, a8, 0, 8
400d0fff:	80a082        	movi	a8, 128
400d1002:	c08890        	sub	a8, a8, a9
400d1005:	f4a080        	extui	a10, a8, 0, 16
400d1008:	f49040        	extui	a9, a4, 0, 16
400d100b:	0234a7        	bltu	a4, a10, 400d1011 <uart_hal_write_txfifo+0x2d>
400d100e:	f49080        	extui	a9, a8, 0, 16
400d1011:	fc2e41        	l32r	a4, 400d00cc <_image_irom_vaddr+0xac>
400d1014:	0599      	s32i.n	a9, a5, 0
400d1016:	fc2fa1        	l32r	a10, 400d00d4 <_image_irom_vaddr+0xb4>
400d1019:	0b1b47        	beq	a11, a4, 400d1028 <uart_hal_write_txfifo+0x44>
400d101c:	fc2d41        	l32r	a4, 400d00d0 <_image_irom_vaddr+0xb0>
400d101f:	fc2ea1        	l32r	a10, 400d00d8 <_image_irom_vaddr+0xb8>
400d1022:	021b47        	beq	a11, a4, 400d1028 <uart_hal_write_txfifo+0x44>
400d1025:	fc2da1        	l32r	a10, 400d00dc <_image_irom_vaddr+0xbc>
400d1028:	080c      	movi.n	a8, 0
400d102a:	0002c6        	j	400d1039 <uart_hal_write_txfifo+0x55>
400d102d:	438a      	add.n	a4, a3, a8
400d102f:	000442        	l8ui	a4, a4, 0
400d1032:	881b      	addi.n	a8, a8, 1
400d1034:	0020c0        	memw
400d1037:	0a49      	s32i.n	a4, a10, 0
400d1039:	f03897        	bltu	a8, a9, 400d102d <uart_hal_write_txfifo+0x49>
400d103c:	f01d      	retw.n
	...

400d1040 <uart_hal_read_rxfifo>:
400d1040:	006136        	entry	a1, 48
400d1043:	0488      	l32i.n	a8, a4, 0
400d1045:	0298      	l32i.n	a9, a2, 0
400d1047:	0218a6        	blti	a8, 1, 400d104d <uart_hal_read_rxfifo+0xd>
400d104a:	001fc6        	j	400d10cd <uart_hal_read_rxfifo+0x8d>
400d104d:	0020c0        	memw
400d1050:	7988      	l32i.n	a8, a9, 28
400d1052:	0020c0        	memw
400d1055:	0189      	s32i.n	a8, a1, 0
400d1057:	0020c0        	memw
400d105a:	000182        	l8ui	a8, a1, 0
400d105d:	0020c0        	memw
400d1060:	1829a2        	l32i	a10, a9, 96
400d1063:	748080        	extui	a8, a8, 0, 8
400d1066:	0020c0        	memw
400d1069:	11a9      	s32i.n	a10, a1, 4
400d106b:	0020c0        	memw
400d106e:	11a8      	l32i.n	a10, a1, 4
400d1070:	0020c0        	memw
400d1073:	11b8      	l32i.n	a11, a1, 4
400d1075:	a4ada0        	extui	a10, a10, 13, 11
400d1078:	a4b2b0        	extui	a11, a11, 2, 11
400d107b:	12bba7        	bgeu	a11, a10, 400d1091 <uart_hal_read_rxfifo+0x51>
400d107e:	0020c0        	memw
400d1081:	1188      	l32i.n	a8, a1, 4
400d1083:	0020c0        	memw
400d1086:	11a8      	l32i.n	a10, a1, 4
400d1088:	a48d80        	extui	a8, a8, 13, 11
400d108b:	a4a2a0        	extui	a10, a10, 2, 11
400d108e:	0009c6        	j	400d10b9 <uart_hal_read_rxfifo+0x79>
400d1091:	0020c0        	memw
400d1094:	11b8      	l32i.n	a11, a1, 4
400d1096:	0020c0        	memw
400d1099:	11a8      	l32i.n	a10, a1, 4
400d109b:	a4bdb0        	extui	a11, a11, 13, 11
400d109e:	a4a2a0        	extui	a10, a10, 2, 11
400d10a1:	1cbba7        	bgeu	a11, a10, 400d10c1 <uart_hal_read_rxfifo+0x81>
400d10a4:	0020c0        	memw
400d10a7:	1188      	l32i.n	a8, a1, 4
400d10a9:	0020c0        	memw
400d10ac:	11a8      	l32i.n	a10, a1, 4
400d10ae:	a48d80        	extui	a8, a8, 13, 11
400d10b1:	80a0b2        	movi	a11, 128
400d10b4:	a4a2a0        	extui	a10, a10, 2, 11
400d10b7:	88ba      	add.n	a8, a8, a11
400d10b9:	c088a0        	sub	a8, a8, a10
400d10bc:	0002c6        	j	400d10cb <uart_hal_read_rxfifo+0x8b>
400d10bf:	b20000        	mulsh	a0, a0, a0
400d10c2:	0c80a0        	lsi	f10, a0, 48
400d10c5:	800a      	add.n	a8, a0, a0
400d10c7:	93ab      	addi.n	a9, a3, 10
400d10c9:	0a8d      	mov.n	a8, a10
400d10cb:	0489      	s32i.n	a8, a4, 0
400d10cd:	fbff81        	l32r	a8, 400d00cc <_image_irom_vaddr+0xac>
400d10d0:	0448      	l32i.n	a4, a4, 0
400d10d2:	fbfba1        	l32r	a10, 400d00c0 <_image_irom_vaddr+0xa0>
400d10d5:	0b1987        	beq	a9, a8, 400d10e4 <uart_hal_read_rxfifo+0xa4>
400d10d8:	fbfe81        	l32r	a8, 400d00d0 <_image_irom_vaddr+0xb0>
400d10db:	fbfaa1        	l32r	a10, 400d00c4 <_image_irom_vaddr+0xa4>
400d10de:	021987        	beq	a9, a8, 400d10e4 <uart_hal_read_rxfifo+0xa4>
400d10e1:	fbf9a1        	l32r	a10, 400d00c8 <_image_irom_vaddr+0xa8>
400d10e4:	080c      	movi.n	a8, 0
400d10e6:	0002c6        	j	400d10f5 <uart_hal_read_rxfifo+0xb5>
400d10e9:	0020c0        	memw
400d10ec:	0ab8      	l32i.n	a11, a10, 0
400d10ee:	938a      	add.n	a9, a3, a8
400d10f0:	0049b2        	s8i	a11, a9, 0
400d10f3:	881b      	addi.n	a8, a8, 1
400d10f5:	f09487        	bne	a4, a8, 400d10e9 <uart_hal_read_rxfifo+0xa9>
400d10f8:	f01d      	retw.n
	...

400d10fc <rtc_clk_cpu_freq_to_pll_mhz>:
400d10fc:	004136        	entry	a1, 32
400d10ff:	fbf8a1        	l32r	a10, 400d00e0 <_image_irom_vaddr+0xc0>
400d1102:	790c      	movi.n	a9, 7
400d1104:	0020c0        	memw
400d1107:	0a38      	l32i.n	a3, a10, 0
400d1109:	0b5c      	movi.n	a11, 80
400d110b:	153630        	extui	a3, a3, 22, 2
400d110e:	c03930        	sub	a3, a9, a3
400d1111:	080c      	movi.n	a8, 0
400d1113:	2e12b7        	beq	a2, a11, 400d1145 <rtc_clk_cpu_freq_to_pll_mhz+0x49>
400d1116:	a0a0b2        	movi	a11, 160
400d1119:	180c      	movi.n	a8, 1
400d111b:	2612b7        	beq	a2, a11, 400d1145 <rtc_clk_cpu_freq_to_pll_mhz+0x49>
400d111e:	f0a082        	movi	a8, 240
400d1121:	0f9287        	bne	a2, a8, 400d1134 <rtc_clk_cpu_freq_to_pll_mhz+0x38>
400d1124:	0020c0        	memw
400d1127:	0a38      	l32i.n	a3, a10, 0
400d1129:	280c      	movi.n	a8, 2
400d112b:	153630        	extui	a3, a3, 22, 2
400d112e:	c03930        	sub	a3, a9, a3
400d1131:	000406        	j	400d1145 <rtc_clk_cpu_freq_to_pll_mhz+0x49>
400d1134:	fbecb1        	l32r	a11, 400d00e4 <_image_irom_vaddr+0xc4>
400d1137:	fbeca1        	l32r	a10, 400d00e8 <_image_irom_vaddr+0xc8>
400d113a:	fbf481        	l32r	a8, 400d010c <_image_irom_vaddr+0xec>
400d113d:	0008e0        	callx8	a8
400d1140:	00de65        	call8	400d1f28 <abort>
400d1143:	080c      	movi.n	a8, 0
400d1145:	fbe991        	l32r	a9, 400d00ec <_image_irom_vaddr+0xcc>
400d1148:	fbeba1        	l32r	a10, 400d00f4 <_image_irom_vaddr+0xd4>
400d114b:	0020c0        	memw
400d114e:	0989      	s32i.n	a8, a9, 0
400d1150:	fbe891        	l32r	a9, 400d00f0 <_image_irom_vaddr+0xd0>
400d1153:	113350        	slli	a3, a3, 11
400d1156:	0020c0        	memw
400d1159:	002982        	l32i	a8, a9, 0
400d115c:	1088a0        	and	a8, a8, a10
400d115f:	203830        	or	a3, a8, a3
400d1162:	fbe581        	l32r	a8, 400d00f8 <_image_irom_vaddr+0xd8>
400d1165:	0020c0        	memw
400d1168:	0939      	s32i.n	a3, a9, 0
400d116a:	0020c0        	memw
400d116d:	0838      	l32i.n	a3, a8, 0
400d116f:	fbe391        	l32r	a9, 400d00fc <_image_irom_vaddr+0xdc>
400d1172:	02ad      	mov.n	a10, a2
400d1174:	103390        	and	a3, a3, a9
400d1177:	fbe291        	l32r	a9, 400d0100 <_image_irom_vaddr+0xe0>
400d117a:	203390        	or	a3, a3, a9
400d117d:	0020c0        	memw
400d1180:	0839      	s32i.n	a3, a8, 0
400d1182:	fbe181        	l32r	a8, 400d0108 <_image_irom_vaddr+0xe8>
400d1185:	fbdf31        	l32r	a3, 400d0104 <_image_irom_vaddr+0xe4>
400d1188:	0020c0        	memw
400d118b:	0389      	s32i.n	a8, a3, 0
400d118d:	af4ce5        	call8	4008065c <ets_update_cpu_frequency>
400d1190:	008665        	call8	400d19f8 <rtc_clk_wait_for_slow_cycle>
400d1193:	f01d      	retw.n
400d1195:	000000        	ill

400d1198 <rtc_clk_bbpll_disable>:
400d1198:	004136        	entry	a1, 32
400d119b:	fbdd81        	l32r	a8, 400d0110 <_image_irom_vaddr+0xf0>
400d119e:	40a5a2        	movi	a10, 0x540
400d11a1:	0020c0        	memw
400d11a4:	0898      	l32i.n	a9, a8, 0
400d11a6:	2099a0        	or	a9, a9, a10
400d11a9:	0020c0        	memw
400d11ac:	0899      	s32i.n	a9, a8, 0
400d11ae:	fbd991        	l32r	a9, 400d0114 <_image_irom_vaddr+0xf4>
400d11b1:	0a0c      	movi.n	a10, 0
400d11b3:	09a9      	s32i.n	a10, a9, 0
400d11b5:	fbd891        	l32r	a9, 400d0118 <_image_irom_vaddr+0xf8>
400d11b8:	0020c0        	memw
400d11bb:	0998      	l32i.n	a9, a9, 0
400d11bd:	0f7977        	bbci	a9, 23, 400d11d0 <rtc_clk_bbpll_disable+0x38>
400d11c0:	0020c0        	memw
400d11c3:	0898      	l32i.n	a9, a8, 0
400d11c5:	fbd5a1        	l32r	a10, 400d011c <_image_irom_vaddr+0xfc>
400d11c8:	2099a0        	or	a9, a9, a10
400d11cb:	0020c0        	memw
400d11ce:	0899      	s32i.n	a9, a8, 0
400d11d0:	f01d      	retw.n
	...

400d11d4 <rtc_clk_32k_enable_common$constprop$5>:
400d11d4:	004136        	entry	a1, 32
400d11d7:	fbd281        	l32r	a8, 400d0120 <_image_irom_vaddr+0x100>
400d11da:	fbd2a1        	l32r	a10, 400d0124 <_image_irom_vaddr+0x104>
400d11dd:	0020c0        	memw
400d11e0:	0898      	l32i.n	a9, a8, 0
400d11e2:	0122c0        	slli	a2, a2, 20
400d11e5:	1099a0        	and	a9, a9, a10
400d11e8:	0020c0        	memw
400d11eb:	0899      	s32i.n	a9, a8, 0
400d11ed:	0020c0        	memw
400d11f0:	0898      	l32i.n	a9, a8, 0
400d11f2:	fbcda1        	l32r	a10, 400d0128 <_image_irom_vaddr+0x108>
400d11f5:	1133f0        	slli	a3, a3, 1
400d11f8:	2099a0        	or	a9, a9, a10
400d11fb:	0020c0        	memw
400d11fe:	0899      	s32i.n	a9, a8, 0
400d1200:	0020c0        	memw
400d1203:	0898      	l32i.n	a9, a8, 0
400d1205:	fbc9a1        	l32r	a10, 400d012c <_image_irom_vaddr+0x10c>
400d1208:	1099a0        	and	a9, a9, a10
400d120b:	209920        	or	a9, a9, a2
400d120e:	0020c0        	memw
400d1211:	0899      	s32i.n	a9, a8, 0
400d1213:	0020c0        	memw
400d1216:	0898      	l32i.n	a9, a8, 0
400d1218:	8a1c      	movi.n	a10, 24
400d121a:	2099a0        	or	a9, a9, a10
400d121d:	0020c0        	memw
400d1220:	0899      	s32i.n	a9, a8, 0
400d1222:	0020c0        	memw
400d1225:	0898      	l32i.n	a9, a8, 0
400d1227:	9a7c      	movi.n	a10, -7
400d1229:	1099a0        	and	a9, a9, a10
400d122c:	209930        	or	a9, a9, a3
400d122f:	0020c0        	memw
400d1232:	0899      	s32i.n	a9, a8, 0
400d1234:	0020c0        	memw
400d1237:	0898      	l32i.n	a9, a8, 0
400d1239:	fbbda1        	l32r	a10, 400d0130 <_image_irom_vaddr+0x110>
400d123c:	2099a0        	or	a9, a9, a10
400d123f:	0020c0        	memw
400d1242:	0899      	s32i.n	a9, a8, 0
400d1244:	f01d      	retw.n
	...

400d1248 <rtc_clk_32k_enable>:
400d1248:	004136        	entry	a1, 32
400d124b:	742020        	extui	a2, a2, 0, 8
400d124e:	a28c      	beqz.n	a2, 400d125c <rtc_clk_32k_enable+0x14>
400d1250:	0b0c      	movi.n	a11, 0
400d1252:	01a0a2        	movi	a10, 1
400d1255:	fff7e5        	call8	400d11d4 <rtc_clk_32k_enable_common$constprop$5>
400d1258:	0008c6        	j	400d127f <rtc_clk_32k_enable+0x37>
400d125b:	b18100        	lsi	f0, a1, 0x2c4
400d125e:	a1fb      	addi.n	a10, a1, 15
400d1260:	c0fbb5        	call12	4009221c <_iram_end+0xefe0>
400d1263:	980020        	lsi	f2, a0, 0x260
400d1266:	a008      	l32i.n	a0, a0, 40
400d1268:	1099      	s32i.n	a9, a0, 4
400d126a:	0020c0        	memw
400d126d:	0899      	s32i.n	a9, a8, 0
400d126f:	0020c0        	memw
400d1272:	0898      	l32i.n	a9, a8, 0
400d1274:	fbb1a1        	l32r	a10, 400d0138 <_image_irom_vaddr+0x118>
400d1277:	1099a0        	and	a9, a9, a10
400d127a:	0020c0        	memw
400d127d:	0899      	s32i.n	a9, a8, 0
400d127f:	f01d      	retw.n
400d1281:	000000        	ill

400d1284 <rtc_clk_8m_enable>:
400d1284:	004136        	entry	a1, 32
400d1287:	fb9c81        	l32r	a8, 400d00f8 <_image_irom_vaddr+0xd8>
400d128a:	742020        	extui	a2, a2, 0, 8
400d128d:	0020c0        	memw
400d1290:	0898      	l32i.n	a9, a8, 0
400d1292:	743030        	extui	a3, a3, 0, 8
400d1295:	fba9a1        	l32r	a10, 400d013c <_image_irom_vaddr+0x11c>
400d1298:	047216        	beqz	a2, 400d12e3 <rtc_clk_8m_enable+0x5f>
400d129b:	bfafb2        	movi	a11, -65
400d129e:	1099b0        	and	a9, a9, a11
400d12a1:	0020c0        	memw
400d12a4:	0899      	s32i.n	a9, a8, 0
400d12a6:	0020c0        	memw
400d12a9:	0a98      	l32i.n	a9, a10, 0
400d12ab:	fba5b1        	l32r	a11, 400d0140 <_image_irom_vaddr+0x120>
400d12ae:	1099b0        	and	a9, a9, a11
400d12b1:	0b4c      	movi.n	a11, 64
400d12b3:	2099b0        	or	a9, a9, a11
400d12b6:	0020c0        	memw
400d12b9:	0a99      	s32i.n	a9, a10, 0
400d12bb:	0020c0        	memw
400d12be:	0898      	l32i.n	a9, a8, 0
400d12c0:	938c      	beqz.n	a3, 400d12cd <rtc_clk_8m_enable+0x49>
400d12c2:	7fafa2        	movi	a10, -129
400d12c5:	1099a0        	and	a9, a9, a10
400d12c8:	0001c6        	j	400d12d3 <rtc_clk_8m_enable+0x4f>
400d12cb:	a20000        	muluh	a0, a0, a0
400d12ce:	a080a0        	addx4	a8, a0, a10
400d12d1:	2099      	s32i.n	a9, a0, 8
400d12d3:	0020c0        	memw
400d12d6:	0899      	s32i.n	a9, a8, 0
400d12d8:	2a3c      	movi.n	a10, 50
400d12da:	fb9a81        	l32r	a8, 400d0144 <_image_irom_vaddr+0x124>
400d12dd:	0008e0        	callx8	a8
400d12e0:	0007c6        	j	400d1303 <rtc_clk_8m_enable+0x7f>
400d12e3:	0b4c      	movi.n	a11, 64
400d12e5:	2099b0        	or	a9, a9, a11
400d12e8:	0020c0        	memw
400d12eb:	0899      	s32i.n	a9, a8, 0
400d12ed:	0020c0        	memw
400d12f0:	0a88      	l32i.n	a8, a10, 0
400d12f2:	fb9391        	l32r	a9, 400d0140 <_image_irom_vaddr+0x120>
400d12f5:	108890        	and	a8, a8, a9
400d12f8:	00a592        	movi	a9, 0x500
400d12fb:	208890        	or	a8, a8, a9
400d12fe:	0020c0        	memw
400d1301:	0a89      	s32i.n	a8, a10, 0
400d1303:	f01d      	retw.n
400d1305:	000000        	ill

400d1308 <rtc_clk_8m_enabled>:
400d1308:	004136        	entry	a1, 32
400d130b:	fb7b21        	l32r	a2, 400d00f8 <_image_irom_vaddr+0xd8>
400d130e:	0020c0        	memw
400d1311:	0288      	l32i.n	a8, a2, 0
400d1313:	120c      	movi.n	a2, 1
400d1315:	048680        	extui	a8, a8, 6, 1
400d1318:	302820        	xor	a2, a8, a2
400d131b:	f01d      	retw.n
400d131d:	000000        	ill

400d1320 <rtc_clk_8md256_enabled>:
400d1320:	004136        	entry	a1, 32
400d1323:	fb7521        	l32r	a2, 400d00f8 <_image_irom_vaddr+0xd8>
400d1326:	0020c0        	memw
400d1329:	0288      	l32i.n	a8, a2, 0
400d132b:	120c      	movi.n	a2, 1
400d132d:	048780        	extui	a8, a8, 7, 1
400d1330:	302820        	xor	a2, a8, a2
400d1333:	f01d      	retw.n
400d1335:	000000        	ill

400d1338 <rtc_clk_slow_freq_set>:
400d1338:	004136        	entry	a1, 32
400d133b:	fb6f91        	l32r	a9, 400d00f8 <_image_irom_vaddr+0xd8>
400d133e:	fb82a1        	l32r	a10, 400d0148 <_image_irom_vaddr+0x128>
400d1341:	0020c0        	memw
400d1344:	0988      	l32i.n	a8, a9, 0
400d1346:	00a1b2        	movi	a11, 0x100
400d1349:	1088a0        	and	a8, a8, a10
400d134c:	01a220        	slli	a10, a2, 30
400d134f:	2088a0        	or	a8, a8, a10
400d1352:	0020c0        	memw
400d1355:	0989      	s32i.n	a8, a9, 0
400d1357:	0020c0        	memw
400d135a:	0988      	l32i.n	a8, a9, 0
400d135c:	ffaea2        	movi	a10, 0xfffffeff
400d135f:	1088a0        	and	a8, a8, a10
400d1362:	220b      	addi.n	a2, a2, -1
400d1364:	0a0c      	movi.n	a10, 0
400d1366:	83ab20        	moveqz	a10, a11, a2
400d1369:	2028a0        	or	a2, a8, a10
400d136c:	0020c0        	memw
400d136f:	0929      	s32i.n	a2, a9, 0
400d1371:	2ca1a2        	movi	a10, 0x12c
400d1374:	fb7481        	l32r	a8, 400d0144 <_image_irom_vaddr+0x124>
400d1377:	0008e0        	callx8	a8
400d137a:	f01d      	retw.n

400d137c <rtc_clk_slow_freq_get>:
400d137c:	004136        	entry	a1, 32
400d137f:	fb5e21        	l32r	a2, 400d00f8 <_image_irom_vaddr+0xd8>
400d1382:	0020c0        	memw
400d1385:	0228      	l32i.n	a2, a2, 0
400d1387:	152e20        	extui	a2, a2, 30, 2
400d138a:	f01d      	retw.n

400d138c <rtc_clk_fast_freq_set>:
400d138c:	004136        	entry	a1, 32
400d138f:	fb5a91        	l32r	a9, 400d00f8 <_image_irom_vaddr+0xd8>
400d1392:	fb6ea1        	l32r	a10, 400d014c <_image_irom_vaddr+0x12c>
400d1395:	012230        	slli	a2, a2, 29
400d1398:	0020c0        	memw
400d139b:	0988      	l32i.n	a8, a9, 0
400d139d:	1022a0        	and	a2, a2, a10
400d13a0:	fb6ca1        	l32r	a10, 400d0150 <_image_irom_vaddr+0x130>
400d13a3:	1088a0        	and	a8, a8, a10
400d13a6:	202280        	or	a2, a2, a8
400d13a9:	0020c0        	memw
400d13ac:	0929      	s32i.n	a2, a9, 0
400d13ae:	3a0c      	movi.n	a10, 3
400d13b0:	fb6581        	l32r	a8, 400d0144 <_image_irom_vaddr+0x124>
400d13b3:	0008e0        	callx8	a8
400d13b6:	f01d      	retw.n

400d13b8 <rtc_clk_fast_freq_get>:
400d13b8:	004136        	entry	a1, 32
400d13bb:	fb4f21        	l32r	a2, 400d00f8 <_image_irom_vaddr+0xd8>
400d13be:	0020c0        	memw
400d13c1:	0228      	l32i.n	a2, a2, 0
400d13c3:	052d20        	extui	a2, a2, 29, 1
400d13c6:	f01d      	retw.n

400d13c8 <rtc_clk_bbpll_configure>:
400d13c8:	006136        	entry	a1, 48
400d13cb:	40a162        	movi	a6, 0x140
400d13ce:	e8c222        	addi	a2, a2, -24
400d13d1:	fb4751        	l32r	a5, 400d00f0 <_image_irom_vaddr+0xd0>
400d13d4:	fb4341        	l32r	a4, 400d00e0 <_image_irom_vaddr+0xc0>
400d13d7:	021367        	beq	a3, a6, 400d13dd <rtc_clk_bbpll_configure+0x15>
400d13da:	002086        	j	400d1460 <rtc_clk_bbpll_configure+0x98>
400d13dd:	0020c0        	memw
400d13e0:	0568      	l32i.n	a6, a5, 0
400d13e2:	0020c0        	memw
400d13e5:	0448      	l32i.n	a4, a4, 0
400d13e7:	157640        	extui	a7, a4, 22, 2
400d13ea:	740c      	movi.n	a4, 7
400d13ec:	c04470        	sub	a4, a4, a7
400d13ef:	fb4171        	l32r	a7, 400d00f4 <_image_irom_vaddr+0xd4>
400d13f2:	114450        	slli	a4, a4, 11
400d13f5:	106670        	and	a6, a6, a7
400d13f8:	204460        	or	a4, a4, a6
400d13fb:	0020c0        	memw
400d13fe:	0549      	s32i.n	a4, a5, 0
400d1400:	041c      	movi.n	a4, 16
400d1402:	343427        	bltu	a4, a2, 400d143a <rtc_clk_bbpll_configure+0x72>
400d1405:	fb5341        	l32r	a4, 400d0154 <_image_irom_vaddr+0x134>
400d1408:	fb5751        	l32r	a5, 400d0164 <_image_irom_vaddr+0x144>
400d140b:	442a      	add.n	a4, a4, a2
400d140d:	000482        	l8ui	a8, a4, 0
400d1410:	fb5241        	l32r	a4, 400d0158 <_image_irom_vaddr+0x138>
400d1413:	fb5591        	l32r	a9, 400d0168 <_image_irom_vaddr+0x148>
400d1416:	442a      	add.n	a4, a4, a2
400d1418:	000462        	l8ui	a6, a4, 0
400d141b:	fb5041        	l32r	a4, 400d015c <_image_irom_vaddr+0x13c>
400d141e:	552a      	add.n	a5, a5, a2
400d1420:	442a      	add.n	a4, a4, a2
400d1422:	000472        	l8ui	a7, a4, 0
400d1425:	fb4e41        	l32r	a4, 400d0160 <_image_irom_vaddr+0x140>
400d1428:	000552        	l8ui	a5, a5, 0
400d142b:	442a      	add.n	a4, a4, a2
400d142d:	292a      	add.n	a2, a9, a2
400d142f:	000442        	l8ui	a4, a4, 0
400d1432:	000222        	l8ui	a2, a2, 0
400d1435:	000386        	j	400d1447 <rtc_clk_bbpll_configure+0x7f>
400d1438:	0c0000        	lsi	f0, a0, 48
400d143b:	025d02        	s16i	a0, a13, 4
400d143e:	024d      	mov.n	a4, a2
400d1440:	470c      	movi.n	a7, 4
400d1442:	e0a062        	movi	a6, 224
400d1445:	c80c      	movi.n	a8, 12
400d1447:	3d4c      	movi.n	a13, 67
400d1449:	bc0c      	movi.n	a12, 11
400d144b:	4b0c      	movi.n	a11, 4
400d144d:	66a0a2        	movi	a10, 102
400d1450:	0189      	s32i.n	a8, a1, 0
400d1452:	fb4781        	l32r	a8, 400d0170 <_image_irom_vaddr+0x150>
400d1455:	0008e0        	callx8	a8
400d1458:	84a0d2        	movi	a13, 132
400d145b:	002246        	j	400d14e8 <rtc_clk_bbpll_configure+0x120>
400d145e:	c00000        	sub	a0, a0, a0
400d1461:	680020        	lsi	f2, a0, 0x1a0
400d1464:	20c005        	call0	400f2068 <_etext+0x1eba8>
400d1467:	044800        	extui	a4, a0, 8, 1
400d146a:	3a0c      	movi.n	a10, 3
400d146c:	157640        	extui	a7, a4, 22, 2
400d146f:	740c      	movi.n	a4, 7
400d1471:	c04470        	sub	a4, a4, a7
400d1474:	fb2071        	l32r	a7, 400d00f4 <_image_irom_vaddr+0xd4>
400d1477:	114450        	slli	a4, a4, 11
400d147a:	106670        	and	a6, a6, a7
400d147d:	204460        	or	a4, a4, a6
400d1480:	0020c0        	memw
400d1483:	0549      	s32i.n	a4, a5, 0
400d1485:	041c      	movi.n	a4, 16
400d1487:	fb2f81        	l32r	a8, 400d0144 <_image_irom_vaddr+0x124>
400d148a:	0008e0        	callx8	a8
400d148d:	353427        	bltu	a4, a2, 400d14c6 <rtc_clk_bbpll_configure+0xfe>
400d1490:	fb3141        	l32r	a4, 400d0154 <_image_irom_vaddr+0x134>
400d1493:	fb3451        	l32r	a5, 400d0164 <_image_irom_vaddr+0x144>
400d1496:	442a      	add.n	a4, a4, a2
400d1498:	000482        	l8ui	a8, a4, 0
400d149b:	fb3441        	l32r	a4, 400d016c <_image_irom_vaddr+0x14c>
400d149e:	fb3291        	l32r	a9, 400d0168 <_image_irom_vaddr+0x148>
400d14a1:	442a      	add.n	a4, a4, a2
400d14a3:	000462        	l8ui	a6, a4, 0
400d14a6:	fb2d41        	l32r	a4, 400d015c <_image_irom_vaddr+0x13c>
400d14a9:	552a      	add.n	a5, a5, a2
400d14ab:	442a      	add.n	a4, a4, a2
400d14ad:	000472        	l8ui	a7, a4, 0
400d14b0:	fb2c41        	l32r	a4, 400d0160 <_image_irom_vaddr+0x140>
400d14b3:	000552        	l8ui	a5, a5, 0
400d14b6:	442a      	add.n	a4, a4, a2
400d14b8:	292a      	add.n	a2, a9, a2
400d14ba:	000442        	l8ui	a4, a4, 0
400d14bd:	000222        	l8ui	a2, a2, 0
400d14c0:	0003c6        	j	400d14d3 <rtc_clk_bbpll_configure+0x10b>
400d14c3:	000000        	ill
400d14c6:	020c      	movi.n	a2, 0
400d14c8:	025d      	mov.n	a5, a2
400d14ca:	024d      	mov.n	a4, a2
400d14cc:	470c      	movi.n	a7, 4
400d14ce:	e0a062        	movi	a6, 224
400d14d1:	c80c      	movi.n	a8, 12
400d14d3:	c3a0d2        	movi	a13, 195
400d14d6:	bc0c      	movi.n	a12, 11
400d14d8:	4b0c      	movi.n	a11, 4
400d14da:	66a0a2        	movi	a10, 102
400d14dd:	0189      	s32i.n	a8, a1, 0
400d14df:	fb2481        	l32r	a8, 400d0170 <_image_irom_vaddr+0x150>
400d14e2:	0008e0        	callx8	a8
400d14e5:	74a0d2        	movi	a13, 116
400d14e8:	9c0c      	movi.n	a12, 9
400d14ea:	04a0b2        	movi	a11, 4
400d14ed:	66a0a2        	movi	a10, 102
400d14f0:	fb2081        	l32r	a8, 400d0170 <_image_irom_vaddr+0x150>
400d14f3:	0008e0        	callx8	a8
400d14f6:	0188      	l32i.n	a8, a1, 0
400d14f8:	11d490        	slli	a13, a4, 7
400d14fb:	1177c0        	slli	a7, a7, 4
400d14fe:	20dd70        	or	a13, a13, a7
400d1501:	20dd80        	or	a13, a13, a8
400d1504:	74d0d0        	extui	a13, a13, 0, 8
400d1507:	2c0c      	movi.n	a12, 2
400d1509:	04a0b2        	movi	a11, 4
400d150c:	66a0a2        	movi	a10, 102
400d150f:	fb1881        	l32r	a8, 400d0170 <_image_irom_vaddr+0x150>
400d1512:	0008e0        	callx8	a8
400d1515:	06dd      	mov.n	a13, a6
400d1517:	3c0c      	movi.n	a12, 3
400d1519:	4b0c      	movi.n	a11, 4
400d151b:	66a0a2        	movi	a10, 102
400d151e:	fb1481        	l32r	a8, 400d0170 <_image_irom_vaddr+0x150>
400d1521:	0008e0        	callx8	a8
400d1524:	11d2a0        	slli	a13, a2, 6
400d1527:	20dd50        	or	a13, a13, a5
400d152a:	74d0d0        	extui	a13, a13, 0, 8
400d152d:	05a0c2        	movi	a12, 5
400d1530:	04a0b2        	movi	a11, 4
400d1533:	66a0a2        	movi	a10, 102
400d1536:	fb0e81        	l32r	a8, 400d0170 <_image_irom_vaddr+0x150>
400d1539:	0008e0        	callx8	a8
400d153c:	faef21        	l32r	a2, 400d00f8 <_image_irom_vaddr+0xd8>
400d153f:	0a5c      	movi.n	a10, 80
400d1541:	0020c0        	memw
400d1544:	0228      	l32i.n	a2, a2, 0
400d1546:	a0a042        	movi	a4, 160
400d1549:	152e20        	extui	a2, a2, 30, 2
400d154c:	93a420        	movnez	a10, a4, a2
400d154f:	fafd81        	l32r	a8, 400d0144 <_image_irom_vaddr+0x124>
400d1552:	0008e0        	callx8	a8
400d1555:	faef21        	l32r	a2, 400d0114 <_image_irom_vaddr+0xf4>
400d1558:	0239      	s32i.n	a3, a2, 0
400d155a:	f01d      	retw.n

400d155c <rtc_clk_xtal_freq_get>:
400d155c:	004136        	entry	a1, 32
400d155f:	fb0521        	l32r	a2, 400d0174 <_image_irom_vaddr+0x154>
400d1562:	0020c0        	memw
400d1565:	0288      	l32i.n	a8, a2, 0
400d1567:	020c      	movi.n	a2, 0
400d1569:	f4a080        	extui	a10, a8, 0, 16
400d156c:	f59080        	extui	a9, a8, 16, 16
400d156f:	0d9a97        	bne	a10, a9, 400d1580 <rtc_clk_xtal_freq_get+0x24>
400d1572:	980b      	addi.n	a9, a8, -1
400d1574:	fdafa2        	movi	a10, -3
400d1577:	053a97        	bltu	a10, a9, 400d1580 <rtc_clk_xtal_freq_get+0x24>
400d157a:	faff21        	l32r	a2, 400d0178 <_image_irom_vaddr+0x158>
400d157d:	102820        	and	a2, a8, a2
400d1580:	f01d      	retw.n
	...

400d1584 <rtc_clk_cpu_freq_mhz_to_config>:
400d1584:	004136        	entry	a1, 32
400d1587:	fffd65        	call8	400d155c <rtc_clk_xtal_freq_get>
400d158a:	123a27        	bltu	a10, a2, 400d15a0 <rtc_clk_cpu_freq_mhz_to_config+0x1c>
400d158d:	c29a20        	quou	a9, a10, a2
400d1590:	41b190        	srli	a11, a9, 1
400d1593:	bbaa      	add.n	a11, a11, a10
400d1595:	c2bb90        	quou	a11, a11, a9
400d1598:	080c      	movi.n	a8, 0
400d159a:	3692b7        	bne	a2, a11, 400d15d4 <rtc_clk_cpu_freq_mhz_to_config+0x50>
400d159d:	000a06        	j	400d15c9 <rtc_clk_cpu_freq_mhz_to_config+0x45>
400d15a0:	085c      	movi.n	a8, 80
400d15a2:	171287        	beq	a2, a8, 400d15bd <rtc_clk_cpu_freq_mhz_to_config+0x39>
400d15a5:	a0a082        	movi	a8, 160
400d15a8:	161287        	beq	a2, a8, 400d15c2 <rtc_clk_cpu_freq_mhz_to_config+0x3e>
400d15ab:	f0a092        	movi	a9, 240
400d15ae:	080c      	movi.n	a8, 0
400d15b0:	209297        	bne	a2, a9, 400d15d4 <rtc_clk_cpu_freq_mhz_to_config+0x50>
400d15b3:	290c      	movi.n	a9, 2
400d15b5:	180c      	movi.n	a8, 1
400d15b7:	e0a1a2        	movi	a10, 0x1e0
400d15ba:	0002c6        	j	400d15c9 <rtc_clk_cpu_freq_mhz_to_config+0x45>
400d15bd:	490c      	movi.n	a9, 4
400d15bf:	000046        	j	400d15c4 <rtc_clk_cpu_freq_mhz_to_config+0x40>
400d15c2:	290c      	movi.n	a9, 2
400d15c4:	180c      	movi.n	a8, 1
400d15c6:	40a1a2        	movi	a10, 0x140
400d15c9:	0389      	s32i.n	a8, a3, 0
400d15cb:	13a9      	s32i.n	a10, a3, 4
400d15cd:	2399      	s32i.n	a9, a3, 8
400d15cf:	3329      	s32i.n	a2, a3, 12
400d15d1:	01a082        	movi	a8, 1
400d15d4:	082d      	mov.n	a2, a8
400d15d6:	f01d      	retw.n

400d15d8 <rtc_clk_cpu_freq_get_config>:
400d15d8:	004136        	entry	a1, 32
400d15db:	fac741        	l32r	a4, 400d00f8 <_image_irom_vaddr+0xd8>
400d15de:	0020c0        	memw
400d15e1:	0448      	l32i.n	a4, a4, 0
400d15e3:	154b40        	extui	a4, a4, 27, 2
400d15e6:	1f1426        	beqi	a4, 1, 400d1609 <rtc_clk_cpu_freq_get_config+0x31>
400d15e9:	448c      	beqz.n	a4, 400d15f1 <rtc_clk_cpu_freq_get_config+0x19>
400d15eb:	452426        	beqi	a4, 2, 400d1634 <rtc_clk_cpu_freq_get_config+0x5c>
400d15ee:	000c06        	j	400d1622 <rtc_clk_cpu_freq_get_config+0x4a>
400d15f1:	fae231        	l32r	a3, 400d017c <_image_irom_vaddr+0x15c>
400d15f4:	0020c0        	memw
400d15f7:	0338      	l32i.n	a3, a3, 0
400d15f9:	fff625        	call8	400d155c <rtc_clk_xtal_freq_get>
400d15fc:	943030        	extui	a3, a3, 0, 10
400d15ff:	331b      	addi.n	a3, a3, 1
400d1601:	0a6d      	mov.n	a6, a10
400d1603:	c25a30        	quou	a5, a10, a3
400d1606:	001106        	j	400d164e <rtc_clk_cpu_freq_get_config+0x76>
400d1609:	fab831        	l32r	a3, 400d00ec <_image_irom_vaddr+0xcc>
400d160c:	0020c0        	memw
400d160f:	0338      	l32i.n	a3, a3, 0
400d1611:	143030        	extui	a3, a3, 0, 2
400d1614:	53ac      	beqz.n	a3, 400d163d <rtc_clk_cpu_freq_get_config+0x65>
400d1616:	2a1326        	beqi	a3, 1, 400d1644 <rtc_clk_cpu_freq_get_config+0x6c>
400d1619:	f0a052        	movi	a5, 240
400d161c:	e0a162        	movi	a6, 0x1e0
400d161f:	2b2326        	beqi	a3, 2, 400d164e <rtc_clk_cpu_freq_get_config+0x76>
400d1622:	fab0b1        	l32r	a11, 400d00e4 <_image_irom_vaddr+0xc4>
400d1625:	fad6a1        	l32r	a10, 400d0180 <_image_irom_vaddr+0x160>
400d1628:	fab981        	l32r	a8, 400d010c <_image_irom_vaddr+0xec>
400d162b:	0008e0        	callx8	a8
400d162e:	008fa5        	call8	400d1f28 <abort>
400d1631:	000646        	j	400d164e <rtc_clk_cpu_freq_get_config+0x76>
400d1634:	850c      	movi.n	a5, 8
400d1636:	130c      	movi.n	a3, 1
400d1638:	056d      	mov.n	a6, a5
400d163a:	000406        	j	400d164e <rtc_clk_cpu_freq_get_config+0x76>
400d163d:	055c      	movi.n	a5, 80
400d163f:	430c      	movi.n	a3, 4
400d1641:	000186        	j	400d164b <rtc_clk_cpu_freq_get_config+0x73>
400d1644:	034d      	mov.n	a4, a3
400d1646:	a0a052        	movi	a5, 160
400d1649:	230c      	movi.n	a3, 2
400d164b:	40a162        	movi	a6, 0x140
400d164e:	0249      	s32i.n	a4, a2, 0
400d1650:	1269      	s32i.n	a6, a2, 4
400d1652:	2239      	s32i.n	a3, a2, 8
400d1654:	3259      	s32i.n	a5, a2, 12
400d1656:	f01d      	retw.n

400d1658 <rtc_clk_xtal_freq_update>:
400d1658:	004136        	entry	a1, 32
400d165b:	fac691        	l32r	a9, 400d0174 <_image_irom_vaddr+0x154>
400d165e:	fac9a1        	l32r	a10, 400d0184 <_image_irom_vaddr+0x164>
400d1661:	0020c0        	memw
400d1664:	0988      	l32i.n	a8, a9, 0
400d1666:	1088a0        	and	a8, a8, a10
400d1669:	0498a7        	bne	a8, a10, 400d1671 <rtc_clk_xtal_freq_update+0x19>
400d166c:	180c      	movi.n	a8, 1
400d166e:	202280        	or	a2, a2, a8
400d1671:	f48020        	extui	a8, a2, 0, 16
400d1674:	112200        	slli	a2, a2, 16
400d1677:	202820        	or	a2, a8, a2
400d167a:	0020c0        	memw
400d167d:	0929      	s32i.n	a2, a9, 0
400d167f:	f01d      	retw.n
400d1681:	000000        	ill

400d1684 <rtc_clk_apb_freq_update>:
400d1684:	004136        	entry	a1, 32
400d1687:	412c20        	srli	a2, a2, 12
400d168a:	f48020        	extui	a8, a2, 0, 16
400d168d:	112200        	slli	a2, a2, 16
400d1690:	202820        	or	a2, a8, a2
400d1693:	fa9c81        	l32r	a8, 400d0104 <_image_irom_vaddr+0xe4>
400d1696:	0020c0        	memw
400d1699:	0829      	s32i.n	a2, a8, 0
400d169b:	f01d      	retw.n
400d169d:	000000        	ill

400d16a0 <rtc_clk_cpu_freq_to_xtal>:
400d16a0:	004136        	entry	a1, 32
400d16a3:	20a220        	or	a10, a2, a2
400d16a6:	aefb65        	call8	4008065c <ets_update_cpu_frequency>
400d16a9:	fab491        	l32r	a9, 400d017c <_image_irom_vaddr+0x15c>
400d16ac:	00aca2        	movi	a10, 0xfffffc00
400d16af:	0020c0        	memw
400d16b2:	002982        	l32i	a8, a9, 0
400d16b5:	ffc332        	addi	a3, a3, -1
400d16b8:	1088a0        	and	a8, a8, a10
400d16bb:	943030        	extui	a3, a3, 0, 10
400d16be:	203380        	or	a3, a3, a8
400d16c1:	0020c0        	memw
400d16c4:	0939      	s32i.n	a3, a9, 0
400d16c6:	fab031        	l32r	a3, 400d0188 <_image_irom_vaddr+0x168>
400d16c9:	820b      	addi.n	a8, a2, -1
400d16cb:	0020c0        	memw
400d16ce:	0389      	s32i.n	a8, a3, 0
400d16d0:	fa8a81        	l32r	a8, 400d00f8 <_image_irom_vaddr+0xd8>
400d16d3:	fa8a91        	l32r	a9, 400d00fc <_image_irom_vaddr+0xdc>
400d16d6:	0020c0        	memw
400d16d9:	0838      	l32i.n	a3, a8, 0
400d16db:	fa6ea1        	l32r	a10, 400d0094 <_image_irom_vaddr+0x74>
400d16de:	103390        	and	a3, a3, a9
400d16e1:	82a2a0        	mull	a10, a2, a10
400d16e4:	0020c0        	memw
400d16e7:	0839      	s32i.n	a3, a8, 0
400d16e9:	fff9a5        	call8	400d1684 <rtc_clk_apb_freq_update>
400d16ec:	fa8181        	l32r	a8, 400d00f0 <_image_irom_vaddr+0xd0>
400d16ef:	fa8191        	l32r	a9, 400d00f4 <_image_irom_vaddr+0xd4>
400d16f2:	0020c0        	memw
400d16f5:	0838      	l32i.n	a3, a8, 0
400d16f7:	103390        	and	a3, a3, a9
400d16fa:	0632e6        	bgei	a2, 3, 400d1704 <rtc_clk_cpu_freq_to_xtal+0x64>
400d16fd:	fa5d21        	l32r	a2, 400d0074 <_image_irom_vaddr+0x54>
400d1700:	0000c6        	j	400d1707 <rtc_clk_cpu_freq_to_xtal+0x67>
400d1703:	5a2100        	msub.s	f2, f1, f0
400d1706:	20fa      	add.n	a2, a0, a15
400d1708:	c02033        	lsi	f3, a0, 0x300
400d170b:	390020        	lsi	f2, a0, 228
400d170e:	1d08      	l32i.n	a0, a13, 4
400d1710:	0000f0        	callx12	a0
	...

400d1714 <rtc_clk_cpu_freq_set_config>:
400d1714:	004136        	entry	a1, 32
400d1717:	ffe465        	call8	400d155c <rtc_clk_xtal_freq_get>
400d171a:	fa7731        	l32r	a3, 400d00f8 <_image_irom_vaddr+0xd8>
400d171d:	0020c0        	memw
400d1720:	002332        	l32i	a3, a3, 0
400d1723:	153b30        	extui	a3, a3, 27, 2
400d1726:	00e316        	beqz	a3, 400d1738 <rtc_clk_cpu_freq_set_config+0x24>
400d1729:	01a0b2        	movi	a11, 1
400d172c:	fff725        	call8	400d16a0 <rtc_clk_cpu_freq_to_xtal>
400d172f:	002ca5        	call8	400d19f8 <rtc_clk_wait_for_slow_cycle>
400d1732:	021366        	bnei	a3, 1, 400d1738 <rtc_clk_cpu_freq_set_config+0x24>
400d1735:	ffa625        	call8	400d1198 <rtc_clk_bbpll_disable>
400d1738:	002232        	l32i	a3, a2, 0
400d173b:	012356        	bnez	a3, 400d1751 <rtc_clk_cpu_freq_set_config+0x3d>
400d173e:	0222b2        	l32i	a11, a2, 8
400d1741:	022bf6        	bgeui	a11, 2, 400d1747 <rtc_clk_cpu_freq_set_config+0x33>
400d1744:	003806        	j	400d1828 <rtc_clk_cpu_freq_set_config+0x114>
400d1747:	32a8      	l32i.n	a10, a2, 12
400d1749:	fff565        	call8	400d16a0 <rtc_clk_cpu_freq_to_xtal>
400d174c:	003606        	j	400d1828 <rtc_clk_cpu_freq_set_config+0x114>
400d174f:	260000        	lsi	f0, a0, 152
400d1752:	460213        	lsi	f1, a2, 0x118
400d1755:	001d      	mov.n	a1, a0
400d1757:	fa6e91        	l32r	a9, 400d0110 <_image_irom_vaddr+0xf0>
400d175a:	fa8ca1        	l32r	a10, 400d018c <_image_irom_vaddr+0x16c>
400d175d:	0020c0        	memw
400d1760:	0988      	l32i.n	a8, a9, 0
400d1762:	8d1c      	movi.n	a13, 24
400d1764:	1088a0        	and	a8, a8, a10
400d1767:	0020c0        	memw
400d176a:	0989      	s32i.n	a8, a9, 0
400d176c:	0c0c      	movi.n	a12, 0
400d176e:	4b0c      	movi.n	a11, 4
400d1770:	66a0a2        	movi	a10, 102
400d1773:	fa7f81        	l32r	a8, 400d0170 <_image_irom_vaddr+0x150>
400d1776:	0008e0        	callx8	a8
400d1779:	03cd      	mov.n	a12, a3
400d177b:	0d2c      	movi.n	a13, 32
400d177d:	4b0c      	movi.n	a11, 4
400d177f:	66a0a2        	movi	a10, 102
400d1782:	fa7b81        	l32r	a8, 400d0170 <_image_irom_vaddr+0x150>
400d1785:	0008e0        	callx8	a8
400d1788:	04a0c2        	movi	a12, 4
400d178b:	20bcc0        	or	a11, a12, a12
400d178e:	9aa0d2        	movi	a13, 154
400d1791:	66a0a2        	movi	a10, 102
400d1794:	fa7781        	l32r	a8, 400d0170 <_image_irom_vaddr+0x150>
400d1797:	0008e0        	callx8	a8
400d179a:	0d0c      	movi.n	a13, 0
400d179c:	ac0c      	movi.n	a12, 10
400d179e:	4b0c      	movi.n	a11, 4
400d17a0:	66a0a2        	movi	a10, 102
400d17a3:	fa7381        	l32r	a8, 400d0170 <_image_irom_vaddr+0x150>
400d17a6:	0008e0        	callx8	a8
400d17a9:	0d0c      	movi.n	a13, 0
400d17ab:	cc0c      	movi.n	a12, 12
400d17ad:	4b0c      	movi.n	a11, 4
400d17af:	66a0a2        	movi	a10, 102
400d17b2:	fa6f81        	l32r	a8, 400d0170 <_image_irom_vaddr+0x150>
400d17b5:	0008e0        	callx8	a8
400d17b8:	0023e5        	call8	400d19f8 <rtc_clk_wait_for_slow_cycle>
400d17bb:	ffda25        	call8	400d155c <rtc_clk_xtal_freq_get>
400d17be:	12b8      	l32i.n	a11, a2, 4
400d17c0:	ffc065        	call8	400d13c8 <rtc_clk_bbpll_configure>
400d17c3:	32a8      	l32i.n	a10, a2, 12
400d17c5:	ff9365        	call8	400d10fc <rtc_clk_cpu_freq_to_pll_mhz>
400d17c8:	001706        	j	400d1828 <rtc_clk_cpu_freq_set_config+0x114>
400d17cb:	660000        	lsi	f0, a0, 0x198
400d17ce:	a25723        	lsi	f2, a7, 0x288
400d17d1:	a508a0        	extui	a0, a10, 24, 11
400d17d4:	aee8      	l32i.n	a14, a14, 40
400d17d6:	fa4621        	l32r	a2, 400d00f0 <_image_irom_vaddr+0xd0>
400d17d9:	fa4631        	l32r	a3, 400d00f4 <_image_irom_vaddr+0xd4>
400d17dc:	0020c0        	memw
400d17df:	002282        	l32i	a8, a2, 0
400d17e2:	108830        	and	a8, a8, a3
400d17e5:	fa2131        	l32r	a3, 400d006c <_image_irom_vaddr+0x4c>
400d17e8:	208830        	or	a8, a8, a3
400d17eb:	fa6431        	l32r	a3, 400d017c <_image_irom_vaddr+0x15c>
400d17ee:	0020c0        	memw
400d17f1:	006282        	s32i	a8, a2, 0
400d17f4:	0020c0        	memw
400d17f7:	0328      	l32i.n	a2, a3, 0
400d17f9:	00ac82        	movi	a8, 0xfffffc00
400d17fc:	102280        	and	a2, a2, a8
400d17ff:	0020c0        	memw
400d1802:	0329      	s32i.n	a2, a3, 0
400d1804:	fa3d21        	l32r	a2, 400d00f8 <_image_irom_vaddr+0xd8>
400d1807:	fa3d31        	l32r	a3, 400d00fc <_image_irom_vaddr+0xdc>
400d180a:	0020c0        	memw
400d180d:	0288      	l32i.n	a8, a2, 0
400d180f:	108830        	and	a8, a8, a3
400d1812:	fa5f31        	l32r	a3, 400d0190 <_image_irom_vaddr+0x170>
400d1815:	208830        	or	a8, a8, a3
400d1818:	0020c0        	memw
400d181b:	0289      	s32i.n	a8, a2, 0
400d181d:	fa5d31        	l32r	a3, 400d0194 <_image_irom_vaddr+0x174>
400d1820:	fa3921        	l32r	a2, 400d0104 <_image_irom_vaddr+0xe4>
400d1823:	0020c0        	memw
400d1826:	0239      	s32i.n	a3, a2, 0
400d1828:	f01d      	retw.n
	...

400d182c <rtc_clk_apb_freq_get>:
400d182c:	004136        	entry	a1, 32
400d182f:	fa3521        	l32r	a2, 400d0104 <_image_irom_vaddr+0xe4>
400d1832:	0020c0        	memw
400d1835:	0288      	l32i.n	a8, a2, 0
400d1837:	fa5821        	l32r	a2, 400d0198 <_image_irom_vaddr+0x178>
400d183a:	118840        	slli	a8, a8, 12
400d183d:	108820        	and	a8, a8, a2
400d1840:	fa5721        	l32r	a2, 400d019c <_image_irom_vaddr+0x17c>
400d1843:	882a      	add.n	a8, a8, a2
400d1845:	fa5621        	l32r	a2, 400d01a0 <_image_irom_vaddr+0x180>
400d1848:	a28820        	muluh	a8, a8, a2
400d184b:	fa1221        	l32r	a2, 400d0094 <_image_irom_vaddr+0x74>
400d184e:	d58280        	extui	a8, a8, 18, 14
400d1851:	822820        	mull	a2, a8, a2
400d1854:	f01d      	retw.n
	...

400d1858 <rtc_clk_cal_internal>:
400d1858:	004136        	entry	a1, 32
400d185b:	fa2751        	l32r	a5, 400d00f8 <_image_irom_vaddr+0xd8>
400d185e:	0020c0        	memw
400d1861:	0548      	l32i.n	a4, a5, 0
400d1863:	414840        	srli	a4, a4, 8
400d1866:	162266        	bnei	a2, 2, 400d1880 <rtc_clk_cal_internal+0x28>
400d1869:	13e407        	bbsi	a4, 0, 400d1880 <rtc_clk_cal_internal+0x28>
400d186c:	0020c0        	memw
400d186f:	0588      	l32i.n	a8, a5, 0
400d1871:	00a162        	movi	a6, 0x100
400d1874:	208860        	or	a8, a8, a6
400d1877:	0020c0        	memw
400d187a:	0589      	s32i.n	a8, a5, 0
400d187c:	000606        	j	400d1898 <rtc_clk_cal_internal+0x40>
400d187f:	126600        	andbc	b6, b6, b0
400d1882:	1d8114        	lsi	f1, a1, 116
400d1885:	62fa      	add.n	a6, a2, a15
400d1887:	c000a2        	l8ui	a10, a0, 192
400d188a:	520020        	lsi	f2, a0, 0x148
400d188d:	0028      	l32i.n	a2, a0, 0
400d188f:	205560        	or	a5, a5, a6
400d1892:	0020c0        	memw
400d1895:	006852        	s32i	a5, a8, 0
400d1898:	fa4551        	l32r	a5, 400d01ac <_image_irom_vaddr+0x18c>
400d189b:	fa4561        	l32r	a6, 400d01b0 <_image_irom_vaddr+0x190>
400d189e:	118230        	slli	a8, a2, 13
400d18a1:	0020c0        	memw
400d18a4:	0598      	l32i.n	a9, a5, 0
400d18a6:	108860        	and	a8, a8, a6
400d18a9:	fa4261        	l32r	a6, 400d01b4 <_image_irom_vaddr+0x194>
400d18ac:	f9ffc1        	l32r	a12, 400d00a8 <_image_irom_vaddr+0x88>
400d18af:	109960        	and	a9, a9, a6
400d18b2:	208890        	or	a8, a8, a9
400d18b5:	0020c0        	memw
400d18b8:	0589      	s32i.n	a8, a5, 0
400d18ba:	0020c0        	memw
400d18bd:	0588      	l32i.n	a8, a5, 0
400d18bf:	f9ee61        	l32r	a6, 400d0078 <_image_irom_vaddr+0x58>
400d18c2:	108860        	and	a8, a8, a6
400d18c5:	fa3c61        	l32r	a6, 400d01b8 <_image_irom_vaddr+0x198>
400d18c8:	0020c0        	memw
400d18cb:	0589      	s32i.n	a8, a5, 0
400d18cd:	118300        	slli	a8, a3, 16
400d18d0:	0020c0        	memw
400d18d3:	0598      	l32i.n	a9, a5, 0
400d18d5:	108860        	and	a8, a8, a6
400d18d8:	fa3961        	l32r	a6, 400d01bc <_image_irom_vaddr+0x19c>
400d18db:	109960        	and	a9, a9, a6
400d18de:	208890        	or	a8, a8, a9
400d18e1:	0020c0        	memw
400d18e4:	0589      	s32i.n	a8, a5, 0
400d18e6:	fa0451        	l32r	a5, 400d00f8 <_image_irom_vaddr+0xd8>
400d18e9:	0020c0        	memw
400d18ec:	0588      	l32i.n	a8, a5, 0
400d18ee:	222226        	beqi	a2, 2, 400d1914 <rtc_clk_cal_internal+0xbc>
400d18f1:	150c      	movi.n	a5, 1
400d18f3:	00a062        	movi	a6, 0
400d18f6:	935620        	movnez	a5, a6, a2
400d18f9:	158e80        	extui	a8, a8, 30, 2
400d18fc:	745050        	extui	a5, a5, 0, 8
400d18ff:	021866        	bnei	a8, 1, 400d1905 <rtc_clk_cal_internal+0xad>
400d1902:	0e9567        	bne	a5, a6, 400d1914 <rtc_clk_cal_internal+0xbc>
400d1905:	fa27c1        	l32r	a12, 400d01a4 <_image_irom_vaddr+0x184>
400d1908:	081226        	beqi	a2, 1, 400d1914 <rtc_clk_cal_internal+0xbc>
400d190b:	022866        	bnei	a8, 2, 400d1911 <rtc_clk_cal_internal+0xb9>
400d190e:	002556        	bnez	a5, 400d1914 <rtc_clk_cal_internal+0xbc>
400d1911:	fa25c1        	l32r	a12, 400d01a8 <_image_irom_vaddr+0x188>
400d1914:	f9e0a1        	l32r	a10, 400d0094 <_image_irom_vaddr+0x74>
400d1917:	0d0c      	movi.n	a13, 0
400d1919:	a2b3a0        	muluh	a11, a3, a10
400d191c:	82a3a0        	mull	a10, a3, a10
400d191f:	fa2c81        	l32r	a8, 400d01d0 <_image_irom_vaddr+0x1b0>
400d1922:	0008e0        	callx8	a8
400d1925:	0a3d      	mov.n	a3, a10
400d1927:	206aa0        	or	a6, a10, a10
400d192a:	ffc325        	call8	400d155c <rtc_clk_xtal_freq_get>
400d192d:	0acc      	bnez.n	a10, 400d1931 <rtc_clk_cal_internal+0xd9>
400d192f:	8a2c      	movi.n	a10, 40
400d1931:	fa2351        	l32r	a5, 400d01c0 <_image_irom_vaddr+0x1a0>
400d1934:	c255a0        	quou	a5, a5, a10
400d1937:	113657        	bltu	a6, a5, 400d194c <rtc_clk_cal_internal+0xf4>
400d193a:	fa22b1        	l32r	a11, 400d01c4 <_image_irom_vaddr+0x1a4>
400d193d:	fa22a1        	l32r	a10, 400d01c8 <_image_irom_vaddr+0x1a8>
400d1940:	020c      	movi.n	a2, 0
400d1942:	f9f281        	l32r	a8, 400d010c <_image_irom_vaddr+0xec>
400d1945:	0008e0        	callx8	a8
400d1948:	002286        	j	400d19d6 <rtc_clk_cal_internal+0x17e>
400d194b:	185100        	lsxp	f5, a1, a0
400d194e:	91fa      	add.n	a9, a1, a15
400d1950:	f9db      	addi.n	a15, a9, 13
400d1952:	0020c0        	memw
400d1955:	0588      	l32i.n	a8, a5, 0
400d1957:	03ad      	mov.n	a10, a3
400d1959:	108890        	and	a8, a8, a9
400d195c:	0020c0        	memw
400d195f:	0589      	s32i.n	a8, a5, 0
400d1961:	0020c0        	memw
400d1964:	0588      	l32i.n	a8, a5, 0
400d1966:	f9d491        	l32r	a9, 400d00b8 <_image_irom_vaddr+0x98>
400d1969:	208890        	or	a8, a8, a9
400d196c:	0020c0        	memw
400d196f:	0589      	s32i.n	a8, a5, 0
400d1971:	000046        	j	400d1976 <rtc_clk_cal_internal+0x11e>
400d1974:	330b      	addi.n	a3, a3, -1
400d1976:	f9f381        	l32r	a8, 400d0144 <_image_irom_vaddr+0x124>
400d1979:	0008e0        	callx8	a8
400d197c:	0020c0        	memw
400d197f:	002582        	l32i	a8, a5, 0
400d1982:	01a0a2        	movi	a10, 1
400d1985:	048f80        	extui	a8, a8, 15, 1
400d1988:	0818a7        	beq	a8, a10, 400d1994 <rtc_clk_cal_internal+0x13c>
400d198b:	318f30        	srai	a8, a3, 31
400d198e:	c08830        	sub	a8, a8, a3
400d1991:	fdf896        	bltz	a8, 400d1974 <rtc_clk_cal_internal+0x11c>
400d1994:	f9d951        	l32r	a5, 400d00f8 <_image_irom_vaddr+0xd8>
400d1997:	00a192        	movi	a9, 0x100
400d199a:	0020c0        	memw
400d199d:	0588      	l32i.n	a8, a5, 0
400d199f:	114480        	slli	a4, a4, 8
400d19a2:	104490        	and	a4, a4, a9
400d19a5:	ffae92        	movi	a9, 0xfffffeff
400d19a8:	108890        	and	a8, a8, a9
400d19ab:	204480        	or	a4, a4, a8
400d19ae:	0020c0        	memw
400d19b1:	0549      	s32i.n	a4, a5, 0
400d19b3:	0f1266        	bnei	a2, 1, 400d19c6 <rtc_clk_cal_internal+0x16e>
400d19b6:	0020c0        	memw
400d19b9:	0528      	l32i.n	a2, a5, 0
400d19bb:	ffad42        	movi	a4, 0xfffffdff
400d19be:	102240        	and	a2, a2, a4
400d19c1:	0020c0        	memw
400d19c4:	0529      	s32i.n	a2, a5, 0
400d19c6:	020c      	movi.n	a2, 0
400d19c8:	0a1327        	beq	a3, a2, 400d19d6 <rtc_clk_cal_internal+0x17e>
400d19cb:	fa0021        	l32r	a2, 400d01cc <_image_irom_vaddr+0x1ac>
400d19ce:	0020c0        	memw
400d19d1:	0228      	l32i.n	a2, a2, 0
400d19d3:	412720        	srli	a2, a2, 7
400d19d6:	f01d      	retw.n

400d19d8 <rtc_clk_cal_ratio>:
400d19d8:	004136        	entry	a1, 32
400d19db:	03bd      	mov.n	a11, a3
400d19dd:	02ad      	mov.n	a10, a2
400d19df:	ffe7a5        	call8	400d1858 <rtc_clk_cal_internal>
400d19e2:	0abd      	mov.n	a11, a10
400d19e4:	03cd      	mov.n	a12, a3
400d19e6:	0d0c      	movi.n	a13, 0
400d19e8:	01aad0        	slli	a10, a10, 19
400d19eb:	41bdb0        	srli	a11, a11, 13
400d19ee:	f9f881        	l32r	a8, 400d01d0 <_image_irom_vaddr+0x1b0>
400d19f1:	0008e0        	callx8	a8
400d19f4:	0a2d      	mov.n	a2, a10
400d19f6:	f01d      	retw.n

400d19f8 <rtc_clk_wait_for_slow_cycle>:
400d19f8:	004136        	entry	a1, 32
400d19fb:	f9ec21        	l32r	a2, 400d01ac <_image_irom_vaddr+0x18c>
400d19fe:	f9f591        	l32r	a9, 400d01d4 <_image_irom_vaddr+0x1b4>
400d1a01:	0020c0        	memw
400d1a04:	0288      	l32i.n	a8, a2, 0
400d1a06:	108890        	and	a8, a8, a9
400d1a09:	0020c0        	memw
400d1a0c:	0289      	s32i.n	a8, a2, 0
400d1a0e:	0020c0        	memw
400d1a11:	0288      	l32i.n	a8, a2, 0
400d1a13:	f9a691        	l32r	a9, 400d00ac <_image_irom_vaddr+0x8c>
400d1a16:	108890        	and	a8, a8, a9
400d1a19:	0020c0        	memw
400d1a1c:	0289      	s32i.n	a8, a2, 0
400d1a1e:	0020c0        	memw
400d1a21:	0288      	l32i.n	a8, a2, 0
400d1a23:	f9e491        	l32r	a9, 400d01b4 <_image_irom_vaddr+0x194>
400d1a26:	108890        	and	a8, a8, a9
400d1a29:	0020c0        	memw
400d1a2c:	0289      	s32i.n	a8, a2, 0
400d1a2e:	0020c0        	memw
400d1a31:	0288      	l32i.n	a8, a2, 0
400d1a33:	f9e291        	l32r	a9, 400d01bc <_image_irom_vaddr+0x19c>
400d1a36:	108890        	and	a8, a8, a9
400d1a39:	0020c0        	memw
400d1a3c:	0289      	s32i.n	a8, a2, 0
400d1a3e:	0020c0        	memw
400d1a41:	0288      	l32i.n	a8, a2, 0
400d1a43:	f99d91        	l32r	a9, 400d00b8 <_image_irom_vaddr+0x98>
400d1a46:	208890        	or	a8, a8, a9
400d1a49:	0020c0        	memw
400d1a4c:	0289      	s32i.n	a8, a2, 0
400d1a4e:	1a0c      	movi.n	a10, 1
400d1a50:	f9bd81        	l32r	a8, 400d0144 <_image_irom_vaddr+0x124>
400d1a53:	0008e0        	callx8	a8
400d1a56:	0020c0        	memw
400d1a59:	0288      	l32i.n	a8, a2, 0
400d1a5b:	ef68f7        	bbci	a8, 15, 400d1a4e <rtc_clk_wait_for_slow_cycle+0x56>
400d1a5e:	f01d      	retw.n

400d1a60 <rtc_clk_xtal_freq_estimate>:
400d1a60:	004136        	entry	a1, 32
400d1a63:	ff8a65        	call8	400d1308 <rtc_clk_8m_enabled>
400d1a66:	ff8ba5        	call8	400d1320 <rtc_clk_8md256_enabled>
400d1a69:	009a56        	bnez	a10, 400d1a76 <rtc_clk_xtal_freq_estimate+0x16>
400d1a6c:	1b0c      	movi.n	a11, 1
400d1a6e:	0bad      	mov.n	a10, a11
400d1a70:	201110        	or	a1, a1, a1
400d1a73:	ff8125        	call8	400d1284 <rtc_clk_8m_enable>
400d1a76:	0aa0b2        	movi	a11, 10
400d1a79:	01a0a2        	movi	a10, 1
400d1a7c:	fff5a5        	call8	400d19d8 <rtc_clk_cal_ratio>
400d1a7f:	f9d621        	l32r	a2, 400d01d8 <_image_irom_vaddr+0x1b8>
400d1a82:	f9d6c1        	l32r	a12, 400d01dc <_image_irom_vaddr+0x1bc>
400d1a85:	a2ba20        	muluh	a11, a10, a2
400d1a88:	f96fd1        	l32r	a13, 400d0044 <_image_irom_vaddr+0x24>
400d1a8b:	82aa20        	mull	a10, a10, a2
400d1a8e:	f9d081        	l32r	a8, 400d01d0 <_image_irom_vaddr+0x1b0>
400d1a91:	0008e0        	callx8	a8
400d1a94:	11bb30        	slli	a11, a11, 13
400d1a97:	c5a3a0        	extui	a10, a10, 19, 13
400d1a9a:	20cba0        	or	a12, a11, a10
400d1a9d:	ebcc22        	addi	a2, a12, -21
400d1aa0:	18a082        	movi	a8, 24
400d1aa3:	2e3827        	bltu	a8, a2, 400d1ad5 <rtc_clk_xtal_freq_estimate+0x75>
400d1aa6:	f9ce81        	l32r	a8, 400d01e0 <_image_irom_vaddr+0x1c0>
400d1aa9:	1122e0        	slli	a2, a2, 2
400d1aac:	282a      	add.n	a2, a8, a2
400d1aae:	0228      	l32i.n	a2, a2, 0
400d1ab0:	0002a0        	jx	a2
400d1ab3:	ccb100        	lsi	f0, a1, 0x330
400d1ab6:	a1f9      	s32i.n	a15, a1, 40
400d1ab8:	f9cc      	bnez.n	a9, 400d1acb <rtc_clk_xtal_freq_estimate+0x6b>
400d1aba:	f99481        	l32r	a8, 400d010c <_image_irom_vaddr+0xec>
400d1abd:	0008e0        	callx8	a8
400d1ac0:	0008c6        	j	400d1ae7 <rtc_clk_xtal_freq_estimate+0x87>
400d1ac3:	c8b100        	lsi	f0, a1, 0x320
400d1ac6:	a1f9      	s32i.n	a15, a1, 40
400d1ac8:	f9c9      	s32i.n	a12, a9, 60
400d1aca:	f99081        	l32r	a8, 400d010c <_image_irom_vaddr+0xec>
400d1acd:	0008e0        	callx8	a8
400d1ad0:	822c      	movi.n	a2, 40
400d1ad2:	0004c6        	j	400d1ae9 <rtc_clk_xtal_freq_estimate+0x89>
400d1ad5:	f9c3b1        	l32r	a11, 400d01e4 <_image_irom_vaddr+0x1c4>
400d1ad8:	f9c6a1        	l32r	a10, 400d01f0 <_image_irom_vaddr+0x1d0>
400d1adb:	00a022        	movi	a2, 0
400d1ade:	f98b81        	l32r	a8, 400d010c <_image_irom_vaddr+0xec>
400d1ae1:	0008e0        	callx8	a8
400d1ae4:	000046        	j	400d1ae9 <rtc_clk_xtal_freq_estimate+0x89>
400d1ae7:	a21c      	movi.n	a2, 26
400d1ae9:	f01d      	retw.n
	...

400d1aec <rtc_clk_init>:
400d1aec:	00a136        	entry	a1, 80
400d1aef:	096132        	s32i	a3, a1, 36
400d1af2:	f98131        	l32r	a3, 400d00f8 <_image_irom_vaddr+0xd8>
400d1af5:	086122        	s32i	a2, a1, 32
400d1af8:	0020c0        	memw
400d1afb:	0023b2        	l32i	a11, a3, 0
400d1afe:	942820        	extui	a2, a2, 8, 10
400d1b01:	15bbb0        	extui	a11, a11, 27, 2
400d1b04:	041b66        	bnei	a11, 1, 400d1b0c <rtc_clk_init+0x20>
400d1b07:	8a2c      	movi.n	a10, 40
400d1b09:	ffb965        	call8	400d16a0 <rtc_clk_cpu_freq_to_xtal>
400d1b0c:	f97991        	l32r	a9, 400d00f0 <_image_irom_vaddr+0xd0>
400d1b0f:	230132        	l8ui	a3, a1, 35
400d1b12:	0020c0        	memw
400d1b15:	002982        	l32i	a8, a9, 0
400d1b18:	f9b741        	l32r	a4, 400d01f4 <_image_irom_vaddr+0x1d4>
400d1b1b:	113320        	slli	a3, a3, 14
400d1b1e:	108840        	and	a8, a8, a4
400d1b21:	203380        	or	a3, a3, a8
400d1b24:	f97581        	l32r	a8, 400d00f8 <_image_irom_vaddr+0xd8>
400d1b27:	0020c0        	memw
400d1b2a:	006932        	s32i	a3, a9, 0
400d1b2d:	0020c0        	memw
400d1b30:	002892        	l32i	a9, a8, 0
400d1b33:	240132        	l8ui	a3, a1, 36
400d1b36:	f9b041        	l32r	a4, 400d01f8 <_image_irom_vaddr+0x1d8>
400d1b39:	0133f0        	slli	a3, a3, 17
400d1b3c:	109940        	and	a9, a9, a4
400d1b3f:	203390        	or	a3, a3, a9
400d1b42:	0020c0        	memw
400d1b45:	0839      	s32i.n	a3, a8, 0
400d1b47:	8138      	l32i.n	a3, a1, 32
400d1b49:	0020c0        	memw
400d1b4c:	0898      	l32i.n	a9, a8, 0
400d1b4e:	f94241        	l32r	a4, 400d0058 <_image_irom_vaddr+0x38>
400d1b51:	253530        	extui	a3, a3, 21, 3
400d1b54:	109940        	and	a9, a9, a4
400d1b57:	113340        	slli	a3, a3, 12
400d1b5a:	203390        	or	a3, a3, a9
400d1b5d:	0020c0        	memw
400d1b60:	0839      	s32i.n	a3, a8, 0
400d1b62:	f9a631        	l32r	a3, 400d01fc <_image_irom_vaddr+0x1dc>
400d1b65:	f9a641        	l32r	a4, 400d0200 <_image_irom_vaddr+0x1e0>
400d1b68:	0020c0        	memw
400d1b6b:	0388      	l32i.n	a8, a3, 0
400d1b6d:	208840        	or	a8, a8, a4
400d1b70:	0020c0        	memw
400d1b73:	0389      	s32i.n	a8, a3, 0
400d1b75:	0020c0        	memw
400d1b78:	0388      	l32i.n	a8, a3, 0
400d1b7a:	f9a241        	l32r	a4, 400d0204 <_image_irom_vaddr+0x1e4>
400d1b7d:	108840        	and	a8, a8, a4
400d1b80:	0020c0        	memw
400d1b83:	0389      	s32i.n	a8, a3, 0
400d1b85:	200132        	l8ui	a3, a1, 32
400d1b88:	f97b81        	l32r	a8, 400d0174 <_image_irom_vaddr+0x154>
400d1b8b:	93fc      	bnez.n	a3, 400d1bc8 <rtc_clk_init+0xdc>
400d1b8d:	0020c0        	memw
400d1b90:	0838      	l32i.n	a3, a8, 0
400d1b92:	f48030        	extui	a8, a3, 0, 16
400d1b95:	f54030        	extui	a4, a3, 16, 16
400d1b98:	109847        	bne	a8, a4, 400d1bac <rtc_clk_init+0xc0>
400d1b9b:	330b      	addi.n	a3, a3, -1
400d1b9d:	d47c      	movi.n	a4, -3
400d1b9f:	093437        	bltu	a4, a3, 400d1bac <rtc_clk_init+0xc0>
400d1ba2:	ff9ba5        	call8	400d155c <rtc_clk_xtal_freq_get>
400d1ba5:	0a3d      	mov.n	a3, a10
400d1ba7:	001206        	j	400d1bf3 <rtc_clk_init+0x107>
400d1baa:	100000        	and	a0, a0, a0
400d1bad:	252011        	l32r	a1, 4009b030 <_iram_end+0x17df4>
400d1bb0:	ffeb      	addi.n	a15, a15, 14
400d1bb2:	0a3d      	mov.n	a3, a10
400d1bb4:	bafc      	bnez.n	a10, 400d1bf3 <rtc_clk_init+0x107>
400d1bb6:	f98bb1        	l32r	a11, 400d01e4 <_image_irom_vaddr+0x1c4>
400d1bb9:	f993a1        	l32r	a10, 400d0208 <_image_irom_vaddr+0x1e8>
400d1bbc:	a31c      	movi.n	a3, 26
400d1bbe:	f95381        	l32r	a8, 400d010c <_image_irom_vaddr+0xec>
400d1bc1:	0008e0        	callx8	a8
400d1bc4:	000ac6        	j	400d1bf3 <rtc_clk_init+0x107>
400d1bc7:	20c000        	or	a12, a0, a0
400d1bca:	088800        	lsx	f8, a8, a0
400d1bcd:	f49080        	extui	a9, a8, 0, 16
400d1bd0:	f54080        	extui	a4, a8, 16, 16
400d1bd3:	069947        	bne	a9, a4, 400d1bdd <rtc_clk_init+0xf1>
400d1bd6:	880b      	addi.n	a8, a8, -1
400d1bd8:	d47c      	movi.n	a4, -3
400d1bda:	15b487        	bgeu	a4, a8, 400d1bf3 <rtc_clk_init+0x107>
400d1bdd:	ffe825        	call8	400d1a60 <rtc_clk_xtal_freq_estimate>
400d1be0:	0f13a7        	beq	a3, a10, 400d1bf3 <rtc_clk_init+0x107>
400d1be3:	0add      	mov.n	a13, a10
400d1be5:	f97fb1        	l32r	a11, 400d01e4 <_image_irom_vaddr+0x1c4>
400d1be8:	f989a1        	l32r	a10, 400d020c <_image_irom_vaddr+0x1ec>
400d1beb:	03cd      	mov.n	a12, a3
400d1bed:	f94781        	l32r	a8, 400d010c <_image_irom_vaddr+0xec>
400d1bf0:	0008e0        	callx8	a8
400d1bf3:	0a0c      	movi.n	a10, 0
400d1bf5:	f98a81        	l32r	a8, 400d0220 <_image_irom_vaddr+0x200>
400d1bf8:	0008e0        	callx8	a8
400d1bfb:	03ad      	mov.n	a10, a3
400d1bfd:	ffa5a5        	call8	400d1658 <rtc_clk_xtal_freq_update>
400d1c00:	f925a1        	l32r	a10, 400d0094 <_image_irom_vaddr+0x74>
400d1c03:	82a3a0        	mull	a10, a3, a10
400d1c06:	ffa7e5        	call8	400d1684 <rtc_clk_apb_freq_update>
400d1c09:	10c1a2        	addi	a10, a1, 16
400d1c0c:	ff9ca5        	call8	400d15d8 <rtc_clk_cpu_freq_get_config>
400d1c0f:	01bd      	mov.n	a11, a1
400d1c11:	02ad      	mov.n	a10, a2
400d1c13:	072142        	l32i	a4, a1, 28
400d1c16:	ff96e5        	call8	400d1584 <rtc_clk_cpu_freq_mhz_to_config>
400d1c19:	dacc      	bnez.n	a10, 400d1c2a <rtc_clk_init+0x13e>
400d1c1b:	f972b1        	l32r	a11, 400d01e4 <_image_irom_vaddr+0x1c4>
400d1c1e:	f97ca1        	l32r	a10, 400d0210 <_image_irom_vaddr+0x1f0>
400d1c21:	f93a81        	l32r	a8, 400d010c <_image_irom_vaddr+0xec>
400d1c24:	0008e0        	callx8	a8
400d1c27:	003025        	call8	400d1f28 <abort>
400d1c2a:	20a110        	or	a10, a1, a1
400d1c2d:	ffae65        	call8	400d1714 <rtc_clk_cpu_freq_set_config>
400d1c30:	f95681        	l32r	a8, 400d0188 <_image_irom_vaddr+0x168>
400d1c33:	ffc332        	addi	a3, a3, -1
400d1c36:	0020c0        	memw
400d1c39:	0839      	s32i.n	a3, a8, 0
400d1c3b:	f97631        	l32r	a3, 400d0214 <_image_irom_vaddr+0x1f4>
400d1c3e:	f84c      	movi.n	a8, 79
400d1c40:	0020c0        	memw
400d1c43:	0389      	s32i.n	a8, a3, 0
400d1c45:	03eaa0        	rsr.ccount	a10
400d1c48:	a2b2a0        	muluh	a11, a2, a10
400d1c4b:	82a2a0        	mull	a10, a2, a10
400d1c4e:	04cd      	mov.n	a12, a4
400d1c50:	0d0c      	movi.n	a13, 0
400d1c52:	f95f81        	l32r	a8, 400d01d0 <_image_irom_vaddr+0x1b0>
400d1c55:	0008e0        	callx8	a8
400d1c58:	13eaa0        	wsr.ccount	a10
400d1c5b:	f96f81        	l32r	a8, 400d0218 <_image_irom_vaddr+0x1f8>
400d1c5e:	113280        	slli	a3, a2, 8
400d1c61:	8128      	l32i.n	a2, a1, 32
400d1c63:	102280        	and	a2, a2, a8
400d1c66:	202230        	or	a2, a2, a3
400d1c69:	f96c31        	l32r	a3, 400d021c <_image_irom_vaddr+0x1fc>
400d1c6c:	f93181        	l32r	a8, 400d0130 <_image_irom_vaddr+0x110>
400d1c6f:	8129      	s32i.n	a2, a1, 32
400d1c71:	103230        	and	a3, a2, a3
400d1c74:	059387        	bne	a3, a8, 400d1c7d <rtc_clk_init+0x191>
400d1c77:	01a0a2        	movi	a10, 1
400d1c7a:	ff5ce5        	call8	400d1248 <rtc_clk_32k_enable>
400d1c7d:	0f7227        	bbci	a2, 18, 400d1c90 <rtc_clk_init+0x1a4>
400d1c80:	f901b1        	l32r	a11, 400d0084 <_image_irom_vaddr+0x64>
400d1c83:	01a0a2        	movi	a10, 1
400d1c86:	33ba      	add.n	a3, a3, a11
400d1c88:	0b0c      	movi.n	a11, 0
400d1c8a:	83ba30        	moveqz	a11, a10, a3
400d1c8d:	ff5f65        	call8	400d1284 <rtc_clk_8m_enable>
400d1c90:	81a8      	l32i.n	a10, a1, 32
400d1c92:	05a2a0        	extui	a10, a10, 18, 1
400d1c95:	ff6f65        	call8	400d138c <rtc_clk_fast_freq_set>
400d1c98:	81a8      	l32i.n	a10, a1, 32
400d1c9a:	15a3a0        	extui	a10, a10, 19, 2
400d1c9d:	ff69a5        	call8	400d1338 <rtc_clk_slow_freq_set>
400d1ca0:	f01d      	retw.n
	...

400d1ca4 <periph_ll_get_rst_en_mask>:
400d1ca4:	004136        	entry	a1, 32
400d1ca7:	282c      	movi.n	a8, 34
400d1ca9:	02b827        	bgeu	a8, a2, 400d1caf <periph_ll_get_rst_en_mask+0xb>
400d1cac:	002906        	j	400d1d54 <periph_ll_get_rst_en_mask+0xb0>
400d1caf:	f96481        	l32r	a8, 400d0240 <_image_irom_vaddr+0x220>
400d1cb2:	1122e0        	slli	a2, a2, 2
400d1cb5:	282a      	add.n	a2, a8, a2
400d1cb7:	0228      	l32i.n	a2, a2, 0
400d1cb9:	0002a0        	jx	a2
400d1cbc:	420c      	movi.n	a2, 4
400d1cbe:	002686        	j	400d1d5c <periph_ll_get_rst_en_mask+0xb8>
400d1cc1:	f8f721        	l32r	a2, 400d00a0 <_image_irom_vaddr+0x80>
400d1cc4:	002506        	j	400d1d5c <periph_ll_get_rst_en_mask+0xb8>
400d1cc7:	f91521        	l32r	a2, 400d011c <_image_irom_vaddr+0xfc>
400d1cca:	002386        	j	400d1d5c <periph_ll_get_rst_en_mask+0xb8>
400d1ccd:	021c      	movi.n	a2, 16
400d1ccf:	002246        	j	400d1d5c <periph_ll_get_rst_en_mask+0xb8>
400d1cd2:	f95421        	l32r	a2, 400d0224 <_image_irom_vaddr+0x204>
400d1cd5:	0020c6        	j	400d1d5c <periph_ll_get_rst_en_mask+0xb8>
400d1cd8:	f8e521        	l32r	a2, 400d006c <_image_irom_vaddr+0x4c>
400d1cdb:	001f46        	j	400d1d5c <periph_ll_get_rst_en_mask+0xb8>
400d1cde:	f8f221        	l32r	a2, 400d00a8 <_image_irom_vaddr+0x88>
400d1ce1:	001dc6        	j	400d1d5c <periph_ll_get_rst_en_mask+0xb8>
400d1ce4:	f95121        	l32r	a2, 400d0228 <_image_irom_vaddr+0x208>
400d1ce7:	001c46        	j	400d1d5c <periph_ll_get_rst_en_mask+0xb8>
400d1cea:	f95021        	l32r	a2, 400d022c <_image_irom_vaddr+0x20c>
400d1ced:	001ac6        	j	400d1d5c <periph_ll_get_rst_en_mask+0xb8>
400d1cf0:	f95021        	l32r	a2, 400d0230 <_image_irom_vaddr+0x210>
400d1cf3:	001946        	j	400d1d5c <periph_ll_get_rst_en_mask+0xb8>
400d1cf6:	f94f21        	l32r	a2, 400d0234 <_image_irom_vaddr+0x214>
400d1cf9:	0017c6        	j	400d1d5c <periph_ll_get_rst_en_mask+0xb8>
400d1cfc:	00a122        	movi	a2, 0x100
400d1cff:	001646        	j	400d1d5c <periph_ll_get_rst_en_mask+0xb8>
400d1d02:	f8dc21        	l32r	a2, 400d0074 <_image_irom_vaddr+0x54>
400d1d05:	0014c6        	j	400d1d5c <periph_ll_get_rst_en_mask+0xb8>
400d1d08:	00a222        	movi	a2, 0x200
400d1d0b:	001346        	j	400d1d5c <periph_ll_get_rst_en_mask+0xb8>
400d1d0e:	00a422        	movi	a2, 0x400
400d1d11:	0011c6        	j	400d1d5c <periph_ll_get_rst_en_mask+0xb8>
400d1d14:	220c      	movi.n	a2, 2
400d1d16:	001086        	j	400d1d5c <periph_ll_get_rst_en_mask+0xb8>
400d1d19:	024c      	movi.n	a2, 64
400d1d1b:	000f46        	j	400d1d5c <periph_ll_get_rst_en_mask+0xb8>
400d1d1e:	f94621        	l32r	a2, 400d0238 <_image_irom_vaddr+0x218>
400d1d21:	000dc6        	j	400d1d5c <periph_ll_get_rst_en_mask+0xb8>
400d1d24:	f8c421        	l32r	a2, 400d0034 <_image_irom_vaddr+0x14>
400d1d27:	000c46        	j	400d1d5c <periph_ll_get_rst_en_mask+0xb8>
400d1d2a:	022c      	movi.n	a2, 32
400d1d2c:	000b06        	j	400d1d5c <periph_ll_get_rst_en_mask+0xb8>
400d1d2f:	f90021        	l32r	a2, 400d0130 <_image_irom_vaddr+0x110>
400d1d32:	000986        	j	400d1d5c <periph_ll_get_rst_en_mask+0xb8>
400d1d35:	80a022        	movi	a2, 128
400d1d38:	000806        	j	400d1d5c <periph_ll_get_rst_en_mask+0xb8>
400d1d3b:	981c      	movi.n	a8, 25
400d1d3d:	120c      	movi.n	a2, 1
400d1d3f:	0000c6        	j	400d1d46 <periph_ll_get_rst_en_mask+0xa2>
400d1d42:	a80c      	movi.n	a8, 10
400d1d44:	220c      	movi.n	a2, 2
400d1d46:	932830        	movnez	a2, a8, a3
400d1d49:	0003c6        	j	400d1d5c <periph_ll_get_rst_en_mask+0xb8>
400d1d4c:	481c00        	ssx	f1, a12, a0
400d1d4f:	420c      	movi.n	a2, 4
400d1d51:	fffc46        	j	400d1d46 <periph_ll_get_rst_en_mask+0xa2>
400d1d54:	020c      	movi.n	a2, 0
400d1d56:	000086        	j	400d1d5c <periph_ll_get_rst_en_mask+0xb8>
400d1d59:	f93821        	l32r	a2, 400d023c <_image_irom_vaddr+0x21c>
400d1d5c:	f01d      	retw.n
	...

400d1d60 <periph_ll_get_clk_en_reg>:
400d1d60:	004136        	entry	a1, 32
400d1d63:	eac292        	addi	a9, a2, -22
400d1d66:	c80c      	movi.n	a8, 12
400d1d68:	f93721        	l32r	a2, 400d0244 <_image_irom_vaddr+0x224>
400d1d6b:	1d3897        	bltu	a8, a9, 400d1d8c <periph_ll_get_clk_en_reg+0x2c>
400d1d6e:	01a082        	movi	a8, 1
400d1d71:	401900        	ssl	a9
400d1d74:	a18800        	sll	a8, a8
400d1d77:	fba392        	movi	a9, 0x3fb
400d1d7a:	f93321        	l32r	a2, 400d0248 <_image_irom_vaddr+0x228>
400d1d7d:	0b8897        	bany	a8, a9, 400d1d8c <periph_ll_get_clk_en_reg+0x2c>
400d1d80:	f93491        	l32r	a9, 400d0250 <_image_irom_vaddr+0x230>
400d1d83:	f93021        	l32r	a2, 400d0244 <_image_irom_vaddr+0x224>
400d1d86:	020897        	bnone	a8, a9, 400d1d8c <periph_ll_get_clk_en_reg+0x2c>
400d1d89:	f93021        	l32r	a2, 400d024c <_image_irom_vaddr+0x22c>
400d1d8c:	f01d      	retw.n
	...

400d1d90 <periph_ll_get_rst_en_reg>:
400d1d90:	004136        	entry	a1, 32
400d1d93:	eac292        	addi	a9, a2, -22
400d1d96:	c80c      	movi.n	a8, 12
400d1d98:	f92f21        	l32r	a2, 400d0254 <_image_irom_vaddr+0x234>
400d1d9b:	1d3897        	bltu	a8, a9, 400d1dbc <periph_ll_get_rst_en_reg+0x2c>
400d1d9e:	01a082        	movi	a8, 1
400d1da1:	401900        	ssl	a9
400d1da4:	a18800        	sll	a8, a8
400d1da7:	fba392        	movi	a9, 0x3fb
400d1daa:	f92b21        	l32r	a2, 400d0258 <_image_irom_vaddr+0x238>
400d1dad:	0b8897        	bany	a8, a9, 400d1dbc <periph_ll_get_rst_en_reg+0x2c>
400d1db0:	f92891        	l32r	a9, 400d0250 <_image_irom_vaddr+0x230>
400d1db3:	f92821        	l32r	a2, 400d0254 <_image_irom_vaddr+0x234>
400d1db6:	020897        	bnone	a8, a9, 400d1dbc <periph_ll_get_rst_en_reg+0x2c>
400d1db9:	f92821        	l32r	a2, 400d025c <_image_irom_vaddr+0x23c>
400d1dbc:	f01d      	retw.n
	...

400d1dc0 <periph_module_enable>:
400d1dc0:	004136        	entry	a1, 32
400d1dc3:	006340        	rsil	a4, 3
400d1dc6:	f92631        	l32r	a3, 400d0260 <_image_irom_vaddr+0x240>
400d1dc9:	f92651        	l32r	a5, 400d0264 <_image_irom_vaddr+0x244>
400d1dcc:	0349      	s32i.n	a4, a3, 0
400d1dce:	352a      	add.n	a3, a5, a2
400d1dd0:	000332        	l8ui	a3, a3, 0
400d1dd3:	043356        	bnez	a3, 400d1e1a <periph_module_enable+0x5a>
400d1dd6:	02ad      	mov.n	a10, a2
400d1dd8:	fff865        	call8	400d1d60 <periph_ll_get_clk_en_reg>
400d1ddb:	0020c0        	memw
400d1dde:	0a88      	l32i.n	a8, a10, 0
400d1de0:	272c      	movi.n	a7, 34
400d1de2:	036d      	mov.n	a6, a3
400d1de4:	0a3727        	bltu	a7, a2, 400d1df2 <periph_module_enable+0x32>
400d1de7:	f92091        	l32r	a9, 400d0268 <_image_irom_vaddr+0x248>
400d1dea:	1162e0        	slli	a6, a2, 2
400d1ded:	996a      	add.n	a9, a9, a6
400d1def:	002962        	l32i	a6, a9, 0
400d1df2:	208860        	or	a8, a8, a6
400d1df5:	0020c0        	memw
400d1df8:	0a89      	s32i.n	a8, a10, 0
400d1dfa:	02ad      	mov.n	a10, a2
400d1dfc:	fff925        	call8	400d1d90 <periph_ll_get_rst_en_reg>
400d1dff:	0020c0        	memw
400d1e02:	0a78      	l32i.n	a7, a10, 0
400d1e04:	0a6d      	mov.n	a6, a10
400d1e06:	1b0c      	movi.n	a11, 1
400d1e08:	02ad      	mov.n	a10, a2
400d1e0a:	ffe9a5        	call8	400d1ca4 <periph_ll_get_rst_en_mask>
400d1e0d:	f87c      	movi.n	a8, -1
400d1e0f:	30a8a0        	xor	a10, a8, a10
400d1e12:	10aa70        	and	a10, a10, a7
400d1e15:	0020c0        	memw
400d1e18:	06a9      	s32i.n	a10, a6, 0
400d1e1a:	252a      	add.n	a2, a5, a2
400d1e1c:	331b      	addi.n	a3, a3, 1
400d1e1e:	004232        	s8i	a3, a2, 0
400d1e21:	13e640        	wsr.ps	a4
400d1e24:	002010        	rsync
400d1e27:	f01d      	retw.n
400d1e29:	000000        	ill

400d1e2c <periph_module_disable>:
400d1e2c:	004136        	entry	a1, 32
400d1e2f:	006340        	rsil	a4, 3
400d1e32:	f90c81        	l32r	a8, 400d0264 <_image_irom_vaddr+0x244>
400d1e35:	f90a31        	l32r	a3, 400d0260 <_image_irom_vaddr+0x240>
400d1e38:	882a      	add.n	a8, a8, a2
400d1e3a:	0349      	s32i.n	a4, a3, 0
400d1e3c:	000832        	l8ui	a3, a8, 0
400d1e3f:	330b      	addi.n	a3, a3, -1
400d1e41:	743030        	extui	a3, a3, 0, 8
400d1e44:	004832        	s8i	a3, a8, 0
400d1e47:	041356        	bnez	a3, 400d1e8c <periph_module_disable+0x60>
400d1e4a:	02ad      	mov.n	a10, a2
400d1e4c:	fff125        	call8	400d1d60 <periph_ll_get_clk_en_reg>
400d1e4f:	0020c0        	memw
400d1e52:	0a58      	l32i.n	a5, a10, 0
400d1e54:	282c      	movi.n	a8, 34
400d1e56:	093827        	bltu	a8, a2, 400d1e63 <periph_module_disable+0x37>
400d1e59:	f90381        	l32r	a8, 400d0268 <_image_irom_vaddr+0x248>
400d1e5c:	1132e0        	slli	a3, a2, 2
400d1e5f:	883a      	add.n	a8, a8, a3
400d1e61:	0838      	l32i.n	a3, a8, 0
400d1e63:	f87c      	movi.n	a8, -1
400d1e65:	303830        	xor	a3, a8, a3
400d1e68:	103350        	and	a3, a3, a5
400d1e6b:	0020c0        	memw
400d1e6e:	0a39      	s32i.n	a3, a10, 0
400d1e70:	02ad      	mov.n	a10, a2
400d1e72:	fff1e5        	call8	400d1d90 <periph_ll_get_rst_en_reg>
400d1e75:	0020c0        	memw
400d1e78:	0a38      	l32i.n	a3, a10, 0
400d1e7a:	0a5d      	mov.n	a5, a10
400d1e7c:	0b0c      	movi.n	a11, 0
400d1e7e:	20a220        	or	a10, a2, a2
400d1e81:	ffe225        	call8	400d1ca4 <periph_ll_get_rst_en_mask>
400d1e84:	20a3a0        	or	a10, a3, a10
400d1e87:	0020c0        	memw
400d1e8a:	05a9      	s32i.n	a10, a5, 0
400d1e8c:	13e640        	wsr.ps	a4
400d1e8f:	002010        	rsync
400d1e92:	f01d      	retw.n

400d1e94 <interrupt_controller_hal_desc_type>:
400d1e94:	004136        	entry	a1, 32
400d1e97:	0003e5        	call8	400d1ed4 <interrupt_controller_hal_desc_table>
400d1e9a:	1122c0        	slli	a2, a2, 4
400d1e9d:	802a20        	add	a2, a10, a2
400d1ea0:	012222        	l32i	a2, a2, 4
400d1ea3:	000090        	retw
	...

400d1ea8 <interrupt_controller_hal_desc_level>:
400d1ea8:	004136        	entry	a1, 32
400d1eab:	0002a5        	call8	400d1ed4 <interrupt_controller_hal_desc_table>
400d1eae:	1122c0        	slli	a2, a2, 4
400d1eb1:	802a20        	add	a2, a10, a2
400d1eb4:	002222        	l32i	a2, a2, 0
400d1eb7:	000090        	retw
	...

400d1ebc <interrupt_controller_hal_desc_flags>:
400d1ebc:	004136        	entry	a1, 32
400d1ebf:	000165        	call8	400d1ed4 <interrupt_controller_hal_desc_table>
400d1ec2:	1122c0        	slli	a2, a2, 4
400d1ec5:	802a20        	add	a2, a10, a2
400d1ec8:	1133e0        	slli	a3, a3, 2
400d1ecb:	802230        	add	a2, a2, a3
400d1ece:	022222        	l32i	a2, a2, 8
400d1ed1:	f01d      	retw.n
	...

400d1ed4 <interrupt_controller_hal_desc_table>:
400d1ed4:	004136        	entry	a1, 32
400d1ed7:	f8e521        	l32r	a2, 400d026c <_image_irom_vaddr+0x24c>
400d1eda:	f01d      	retw.n

400d1edc <z_esp_aligned_alloc$constprop$2>:
400d1edc:	004136        	entry	a1, 32
400d1edf:	c24b      	addi.n	a12, a2, 4
400d1ee1:	04bc27        	bgeu	a12, a2, 400d1ee9 <z_esp_aligned_alloc$constprop$2+0xd>
400d1ee4:	020c      	movi.n	a2, 0
400d1ee6:	000646        	j	400d1f03 <z_esp_aligned_alloc$constprop$2+0x27>
400d1ee9:	f8e121        	l32r	a2, 400d0270 <_image_irom_vaddr+0x250>
400d1eec:	f856e1        	l32r	a14, 400d0044 <_image_irom_vaddr+0x24>
400d1eef:	f855f1        	l32r	a15, 400d0044 <_image_irom_vaddr+0x24>
400d1ef2:	04a0b2        	movi	a11, 4
400d1ef5:	20a220        	or	a10, a2, a2
400d1ef8:	af8965        	call8	40081790 <k_heap_aligned_alloc>
400d1efb:	fe5a16        	beqz	a10, 400d1ee4 <z_esp_aligned_alloc$constprop$2+0x8>
400d1efe:	006a22        	s32i	a2, a10, 0
400d1f01:	2a4b      	addi.n	a2, a10, 4
400d1f03:	f01d      	retw.n
400d1f05:	000000        	ill

400d1f08 <k_malloc>:
400d1f08:	004136        	entry	a1, 32
400d1f0b:	02ad      	mov.n	a10, a2
400d1f0d:	fffce5        	call8	400d1edc <z_esp_aligned_alloc$constprop$2>
400d1f10:	0a2d      	mov.n	a2, a10
400d1f12:	f01d      	retw.n

400d1f14 <arch_irq_connect_dynamic>:
400d1f14:	004136        	entry	a1, 32
400d1f17:	f8d781        	l32r	a8, 400d0274 <_image_irom_vaddr+0x254>
400d1f1a:	1192d0        	slli	a9, a2, 3
400d1f1d:	889a      	add.n	a8, a8, a9
400d1f1f:	0859      	s32i.n	a5, a8, 0
400d1f21:	1849      	s32i.n	a4, a8, 4
400d1f23:	f01d      	retw.n
400d1f25:	000000        	ill

400d1f28 <abort>:
400d1f28:	004136        	entry	a1, 32
400d1f2b:	f8d3a1        	l32r	a10, 400d0278 <_image_irom_vaddr+0x258>
400d1f2e:	b121a5        	call8	40083148 <printk>
400d1f31:	00a0b2        	movi	a11, 0
400d1f34:	04a0a2        	movi	a10, 4
400d1f37:	af6d65        	call8	4008160c <z_fatal_error>
400d1f3a:	f01d      	retw.n

400d1f3c <__stdout_hook_install>:
400d1f3c:	004136        	entry	a1, 32
400d1f3f:	f8cf81        	l32r	a8, 400d027c <_image_irom_vaddr+0x25c>
400d1f42:	0829      	s32i.n	a2, a8, 0
400d1f44:	f01d      	retw.n
	...

400d1f48 <z_impl_gpio_pin_configure$constprop$2>:
400d1f48:	004136        	entry	a1, 32
400d1f4b:	42c8      	l32i.n	a12, a2, 16
400d1f4d:	e87c      	movi.n	a8, -2
400d1f4f:	401300        	ssl	a3
400d1f52:	819880        	src	a9, a8, a8
400d1f55:	0c88      	l32i.n	a8, a12, 0
400d1f57:	22d8      	l32i.n	a13, a2, 8
400d1f59:	108890        	and	a8, a8, a9
400d1f5c:	0c89      	s32i.n	a8, a12, 0
400d1f5e:	0d88      	l32i.n	a8, a13, 0
400d1f60:	f8b2c1        	l32r	a12, 400d0228 <_image_irom_vaddr+0x208>
400d1f63:	02ad      	mov.n	a10, a2
400d1f65:	03bd      	mov.n	a11, a3
400d1f67:	0008e0        	callx8	a8
400d1f6a:	0a2d      	mov.n	a2, a10
400d1f6c:	f01d      	retw.n
	...

400d1f70 <board_esp_wrover_kit_init>:
400d1f70:	004136        	entry	a1, 32
400d1f73:	f8c3a1        	l32r	a10, 400d0280 <_image_irom_vaddr+0x260>
400d1f76:	d26c      	movi.n	a2, -19
400d1f78:	af6265        	call8	400815a0 <z_impl_device_get_binding>
400d1f7b:	0a3d      	mov.n	a3, a10
400d1f7d:	037a16        	beqz	a10, 400d1fb8 <board_esp_wrover_kit_init+0x48>
400d1f80:	0b0c      	movi.n	a11, 0
400d1f82:	fffc65        	call8	400d1f48 <z_impl_gpio_pin_configure$constprop$2>
400d1f85:	0b0c      	movi.n	a11, 0
400d1f87:	03ad      	mov.n	a10, a3
400d1f89:	012ce5        	call8	400d3258 <gpio_pin_set$constprop$1>
400d1f8c:	2b0c      	movi.n	a11, 2
400d1f8e:	03ad      	mov.n	a10, a3
400d1f90:	fffb65        	call8	400d1f48 <z_impl_gpio_pin_configure$constprop$2>
400d1f93:	2b0c      	movi.n	a11, 2
400d1f95:	03ad      	mov.n	a10, a3
400d1f97:	012c25        	call8	400d3258 <gpio_pin_set$constprop$1>
400d1f9a:	4b0c      	movi.n	a11, 4
400d1f9c:	03ad      	mov.n	a10, a3
400d1f9e:	fffaa5        	call8	400d1f48 <z_impl_gpio_pin_configure$constprop$2>
400d1fa1:	4b0c      	movi.n	a11, 4
400d1fa3:	03ad      	mov.n	a10, a3
400d1fa5:	012b25        	call8	400d3258 <gpio_pin_set$constprop$1>
400d1fa8:	5b0c      	movi.n	a11, 5
400d1faa:	03ad      	mov.n	a10, a3
400d1fac:	fff9a5        	call8	400d1f48 <z_impl_gpio_pin_configure$constprop$2>
400d1faf:	5b0c      	movi.n	a11, 5
400d1fb1:	03ad      	mov.n	a10, a3
400d1fb3:	012a65        	call8	400d3258 <gpio_pin_set$constprop$1>
400d1fb6:	020c      	movi.n	a2, 0
400d1fb8:	f01d      	retw.n
	...

400d1fbc <esp_intr_lock>:
400d1fbc:	004136        	entry	a1, 32
400d1fbf:	006390        	rsil	a9, 3
400d1fc2:	f8b081        	l32r	a8, 400d0284 <_image_irom_vaddr+0x264>
400d1fc5:	0899      	s32i.n	a9, a8, 0
400d1fc7:	f01d      	retw.n
400d1fc9:	000000        	ill

400d1fcc <esp_intr_unlock>:
400d1fcc:	004136        	entry	a1, 32
400d1fcf:	f8ad81        	l32r	a8, 400d0284 <_image_irom_vaddr+0x264>
400d1fd2:	0888      	l32i.n	a8, a8, 0
400d1fd4:	13e680        	wsr.ps	a8
400d1fd7:	002010        	rsync
400d1fda:	f01d      	retw.n

400d1fdc <find_desc_for_int>:
400d1fdc:	004136        	entry	a1, 32
400d1fdf:	f8aa81        	l32r	a8, 400d0288 <_image_irom_vaddr+0x268>
400d1fe2:	0888      	l32i.n	a8, a8, 0
400d1fe4:	000406        	j	400d1ff8 <find_desc_for_int+0x1c>
400d1fe7:	089800        	lsx	f9, a8, a0
400d1fea:	05a090        	extui	a10, a9, 16, 1
400d1fed:	059a37        	bne	a10, a3, 400d1ff6 <find_desc_for_int+0x1a>
400d1ff0:	459190        	extui	a9, a9, 17, 5
400d1ff3:	041927        	beq	a9, a2, 400d1ffb <find_desc_for_int+0x1f>
400d1ff6:	2888      	l32i.n	a8, a8, 8
400d1ff8:	fec856        	bnez	a8, 400d1fe8 <find_desc_for_int+0xc>
400d1ffb:	082d      	mov.n	a2, a8
400d1ffd:	f01d      	retw.n
	...

400d2000 <default_intr_handler>:
400d2000:	004136        	entry	a1, 32
400d2003:	02bd      	mov.n	a11, a2
400d2005:	03f580        	rsr.misc1	a8
400d2008:	f8a1a1        	l32r	a10, 400d028c <_image_irom_vaddr+0x26c>
400d200b:	1408c2        	l8ui	a12, a8, 20
400d200e:	b113a5        	call8	40083148 <printk>
400d2011:	f01d      	retw.n
	...

400d2014 <is_vect_desc_usable>:
400d2014:	004136        	entry	a1, 32
400d2017:	002272        	l32i	a7, a2, 0
400d201a:	04bd      	mov.n	a11, a4
400d201c:	457170        	extui	a7, a7, 17, 5
400d201f:	07ad      	mov.n	a10, a7
400d2021:	ffe9a5        	call8	400d1ebc <interrupt_controller_hal_desc_flags>
400d2024:	060c      	movi.n	a6, 0
400d2026:	069d      	mov.n	a9, a6
400d2028:	741a26        	beqi	a10, 1, 400d20a0 <is_vect_desc_usable+0x8c>
400d202b:	180c      	movi.n	a8, 1
400d202d:	06bd      	mov.n	a11, a6
400d202f:	558a      	add.n	a5, a5, a8
400d2031:	fecaa2        	addi	a10, a10, -2
400d2034:	836850        	moveqz	a6, a8, a5
400d2037:	83b8a0        	moveqz	a11, a8, a10
400d203a:	065d      	mov.n	a5, a6
400d203c:	106b60        	and	a6, a11, a6
400d203f:	5b9697        	bne	a6, a9, 400d209e <is_vect_desc_usable+0x8a>
400d2042:	20a770        	or	a10, a7, a7
400d2045:	ffe625        	call8	400d1ea8 <interrupt_controller_hal_desc_level>
400d2048:	5453a7        	bbc	a3, a10, 400d20a0 <is_vect_desc_usable+0x8c>
400d204b:	07ad      	mov.n	a10, a7
400d204d:	ffe465        	call8	400d1e94 <interrupt_controller_hal_desc_type>
400d2050:	056397        	bbci	a3, 9, 400d2059 <is_vect_desc_usable+0x45>
400d2053:	5acc      	bnez.n	a10, 400d205c <is_vect_desc_usable+0x48>
400d2055:	0011c6        	j	400d20a0 <is_vect_desc_usable+0x8c>
400d2058:	1a2600        	sub.s	f2, f6, f0
400d205b:	122243        	lsi	f4, a2, 72
400d205e:	990c00        	lsi	f0, a12, 0x264
400d2061:	109290        	and	a9, a2, a9
400d2064:	89fc      	bnez.n	a9, 400d20a0 <is_vect_desc_usable+0x8c>
400d2066:	480c      	movi.n	a8, 4
400d2068:	108280        	and	a8, a2, a8
400d206b:	289c      	beqz.n	a8, 400d2081 <is_vect_desc_usable+0x6d>
400d206d:	2f6387        	bbci	a3, 8, 400d20a0 <is_vect_desc_usable+0x8c>
400d2070:	043a30        	extui	a3, a3, 10, 1
400d2073:	042120        	extui	a2, a2, 1, 1
400d2076:	c03320        	sub	a3, a3, a2
400d2079:	160c      	movi.n	a6, 1
400d207b:	936930        	movnez	a6, a9, a3
400d207e:	000786        	j	400d20a0 <is_vect_desc_usable+0x8c>
400d2081:	774a      	add.n	a7, a7, a4
400d2083:	f88341        	l32r	a4, 400d0290 <_image_irom_vaddr+0x270>
400d2086:	1177d0        	slli	a7, a7, 3
400d2089:	747a      	add.n	a7, a4, a7
400d208b:	f88221        	l32r	a2, 400d0294 <_image_irom_vaddr+0x274>
400d208e:	0768      	l32i.n	a6, a7, 0
400d2090:	c06620        	sub	a6, a6, a2
400d2093:	120c      	movi.n	a2, 1
400d2095:	838260        	moveqz	a8, a2, a6
400d2098:	086d      	mov.n	a6, a8
400d209a:	000086        	j	400d20a0 <is_vect_desc_usable+0x8c>
400d209d:	096d00        	l32e	a0, a13, -40
400d20a0:	062d      	mov.n	a2, a6
400d20a2:	f01d      	retw.n

400d20a4 <get_desc_for_int>:
400d20a4:	004136        	entry	a1, 32
400d20a7:	20b330        	or	a11, a3, a3
400d20aa:	20a220        	or	a10, a2, a2
400d20ad:	fff2e5        	call8	400d1fdc <find_desc_for_int>
400d20b0:	0a5d      	mov.n	a5, a10
400d20b2:	0a4d      	mov.n	a4, a10
400d20b4:	079a56        	bnez	a10, 400d2131 <get_desc_for_int+0x8d>
400d20b7:	ca0c      	movi.n	a10, 12
400d20b9:	ffe4e5        	call8	400d1f08 <k_malloc>
400d20bc:	0a4d      	mov.n	a4, a10
400d20be:	06fa16        	beqz	a10, 400d2131 <get_desc_for_int+0x8d>
400d20c1:	cc0c      	movi.n	a12, 12
400d20c3:	05bd      	mov.n	a11, a5
400d20c5:	b111e5        	call8	400831e4 <memset>
400d20c8:	0488      	l32i.n	a8, a4, 0
400d20ca:	f873a1        	l32r	a10, 400d0298 <_image_irom_vaddr+0x278>
400d20cd:	442020        	extui	a2, a2, 0, 5
400d20d0:	0192f0        	slli	a9, a2, 17
400d20d3:	1088a0        	and	a8, a8, a10
400d20d6:	f871a1        	l32r	a10, 400d029c <_image_irom_vaddr+0x27c>
400d20d9:	208890        	or	a8, a8, a9
400d20dc:	043030        	extui	a3, a3, 0, 1
400d20df:	119300        	slli	a9, a3, 16
400d20e2:	1088a0        	and	a8, a8, a10
400d20e5:	208890        	or	a8, a8, a9
400d20e8:	f868c1        	l32r	a12, 400d0288 <_image_irom_vaddr+0x268>
400d20eb:	0489      	s32i.n	a8, a4, 0
400d20ed:	0cb8      	l32i.n	a11, a12, 0
400d20ef:	f852d1        	l32r	a13, 400d0238 <_image_irom_vaddr+0x218>
400d20f2:	0b8d      	mov.n	a8, a11
400d20f4:	000686        	j	400d2112 <get_desc_for_int+0x6e>
400d20f7:	08a800        	lsx	f10, a8, a0
400d20fa:	0590a0        	extui	a9, a10, 16, 1
400d20fd:	143397        	bltu	a3, a9, 400d2115 <get_desc_for_int+0x71>
400d2100:	0498      	l32i.n	a9, a4, 0
400d2102:	309a90        	xor	a9, a10, a9
400d2105:	0589d7        	bany	a9, a13, 400d210e <get_desc_for_int+0x6a>
400d2108:	45a1a0        	extui	a10, a10, 17, 5
400d210b:	06ba27        	bgeu	a10, a2, 400d2115 <get_desc_for_int+0x71>
400d210e:	085d      	mov.n	a5, a8
400d2110:	2888      	l32i.n	a8, a8, 8
400d2112:	fe2856        	bnez	a8, 400d20f8 <get_desc_for_int+0x54>
400d2115:	120c      	movi.n	a2, 1
400d2117:	090c      	movi.n	a9, 0
400d2119:	839250        	moveqz	a9, a2, a5
400d211c:	749090        	extui	a9, a9, 0, 8
400d211f:	39cc      	bnez.n	a9, 400d2126 <get_desc_for_int+0x82>
400d2121:	8392b0        	moveqz	a9, a2, a11
400d2124:	598c      	beqz.n	a9, 400d212d <get_desc_for_int+0x89>
400d2126:	2489      	s32i.n	a8, a4, 8
400d2128:	0c49      	s32i.n	a4, a12, 0
400d212a:	0000c6        	j	400d2131 <get_desc_for_int+0x8d>
400d212d:	2549      	s32i.n	a4, a5, 8
400d212f:	2489      	s32i.n	a8, a4, 8
400d2131:	042d      	mov.n	a2, a4
400d2133:	f01d      	retw.n
400d2135:	000000        	ill

400d2138 <set_interrupt_handler>:
400d2138:	004136        	entry	a1, 32
400d213b:	150c      	movi.n	a5, 1
400d213d:	02ad      	mov.n	a10, a2
400d213f:	03cd      	mov.n	a12, a3
400d2141:	04dd      	mov.n	a13, a4
400d2143:	401200        	ssl	a2
400d2146:	a15500        	sll	a5, a5
400d2149:	03e490        	rsr.intenable	a9
400d214c:	f87c      	movi.n	a8, -1
400d214e:	308850        	xor	a8, a8, a5
400d2151:	108890        	and	a8, a8, a9
400d2154:	13e480        	wsr.intenable	a8
400d2157:	002010        	rsync
400d215a:	f84d81        	l32r	a8, 400d0290 <_image_irom_vaddr+0x270>
400d215d:	1192d0        	slli	a9, a2, 3
400d2160:	889a      	add.n	a8, a8, a9
400d2162:	0839      	s32i.n	a3, a8, 0
400d2164:	0e0c      	movi.n	a14, 0
400d2166:	20b220        	or	a11, a2, a2
400d2169:	ffdaa5        	call8	400d1f14 <arch_irq_connect_dynamic>
400d216c:	03e480        	rsr.intenable	a8
400d216f:	205850        	or	a5, a8, a5
400d2172:	13e450        	wsr.intenable	a5
400d2175:	002010        	rsync
400d2178:	f01d      	retw.n
	...

400d217c <esp_intr_initialize>:
400d217c:	004136        	entry	a1, 32
400d217f:	f84481        	l32r	a8, 400d0290 <_image_irom_vaddr+0x270>
400d2182:	f844b1        	l32r	a11, 400d0294 <_image_irom_vaddr+0x274>
400d2185:	0a0c      	movi.n	a10, 0
400d2187:	092c      	movi.n	a9, 32
400d2189:	078976        	loop	a9, 400d2194 <esp_intr_initialize+0x18>
400d218c:	18a9      	s32i.n	a10, a8, 4
400d218e:	08b9      	s32i.n	a11, a8, 0
400d2190:	aa1b      	addi.n	a10, a10, 1
400d2192:	888b      	addi.n	a8, a8, 8
400d2194:	f01d      	retw.n
	...

400d2198 <esp_intr_alloc_intrstatus>:
400d2198:	00c136        	entry	a1, 96
400d219b:	8149      	s32i.n	a4, a1, 32
400d219d:	00a342        	movi	a4, 0x300
400d21a0:	9159      	s32i.n	a5, a1, 36
400d21a2:	5169      	s32i.n	a6, a1, 20
400d21a4:	a179      	s32i.n	a7, a1, 40
400d21a6:	106340        	and	a6, a3, a4
400d21a9:	a56c      	movi.n	a5, -22
400d21ab:	029647        	bne	a6, a4, 400d21b1 <esp_intr_alloc_intrstatus+0x19>
400d21ae:	00d5c6        	j	400d2509 <esp_intr_alloc_intrstatus+0x371>
400d21b1:	f0a042        	movi	a4, 240
400d21b4:	050347        	bnone	a3, a4, 400d21bd <esp_intr_alloc_intrstatus+0x25>
400d21b7:	052142        	l32i	a4, a1, 20
400d21ba:	34b456        	bnez	a4, 400d2509 <esp_intr_alloc_intrstatus+0x371>
400d21bd:	00a142        	movi	a4, 0x100
400d21c0:	104340        	and	a4, a3, a4
400d21c3:	648c      	beqz.n	a4, 400d21cd <esp_intr_alloc_intrstatus+0x35>
400d21c5:	5158      	l32i.n	a5, a1, 20
400d21c7:	311516        	beqz	a5, 400d24dc <esp_intr_alloc_intrstatus+0x344>
400d21ca:	30e296        	bltz	a2, 400d24dc <esp_intr_alloc_intrstatus+0x344>
400d21cd:	8188      	l32i.n	a8, a1, 32
400d21cf:	588c      	beqz.n	a8, 400d21d8 <esp_intr_alloc_intrstatus+0x40>
400d21d1:	9198      	l32i.n	a9, a1, 36
400d21d3:	a56c      	movi.n	a5, -22
400d21d5:	330916        	beqz	a9, 400d2509 <esp_intr_alloc_intrstatus+0x371>
400d21d8:	1163a7        	bbci	a3, 10, 400d21ed <esp_intr_alloc_intrstatus+0x55>
400d21db:	5158      	l32i.n	a5, a1, 20
400d21dd:	f83061        	l32r	a6, 400d02a0 <_image_irom_vaddr+0x280>
400d21e0:	f83171        	l32r	a7, 400d02a4 <_image_irom_vaddr+0x284>
400d21e3:	656a      	add.n	a6, a5, a6
400d21e5:	a56c      	movi.n	a5, -22
400d21e7:	023767        	bltu	a7, a6, 400d21ed <esp_intr_alloc_intrstatus+0x55>
400d21ea:	00c6c6        	j	400d2509 <esp_intr_alloc_intrstatus+0x371>
400d21ed:	fea052        	movi	a5, 254
400d21f0:	0c8357        	bany	a3, a5, 400d2200 <esp_intr_alloc_intrstatus+0x68>
400d21f3:	348c      	beqz.n	a4, 400d21fa <esp_intr_alloc_intrstatus+0x62>
400d21f5:	240c      	movi.n	a4, 2
400d21f7:	000086        	j	400d21fd <esp_intr_alloc_intrstatus+0x65>
400d21fa:	0ea042        	movi	a4, 14
400d21fd:	203340        	or	a3, a3, a4
400d2200:	526b      	addi.n	a5, a2, 6
400d2202:	f47c      	movi.n	a4, -1
400d2204:	0b65f6        	bgeui	a5, 6, 400d2213 <esp_intr_alloc_intrstatus+0x7b>
400d2207:	f82841        	l32r	a4, 400d02a8 <_image_irom_vaddr+0x288>
400d220a:	804450        	add	a4, a4, a5
400d220d:	000442        	l8ui	a4, a4, 0
400d2210:	234400        	sext	a4, a4, 7
400d2213:	8a0c      	movi.n	a10, 8
400d2215:	ffcf25        	call8	400d1f08 <k_malloc>
400d2218:	0a6d      	mov.n	a6, a10
400d221a:	f4af52        	movi	a5, -12
400d221d:	2e8a16        	beqz	a10, 400d2509 <esp_intr_alloc_intrstatus+0x371>
400d2220:	ffd9a5        	call8	400d1fbc <esp_intr_lock>
400d2223:	03f550        	rsr.misc1	a5
400d2226:	cc0c      	movi.n	a12, 12
400d2228:	0b0c      	movi.n	a11, 0
400d222a:	01ad      	mov.n	a10, a1
400d222c:	140552        	l8ui	a5, a5, 20
400d222f:	fea072        	movi	a7, 254
400d2232:	b0fb25        	call8	400831e4 <memset>
400d2235:	6139      	s32i.n	a3, a1, 24
400d2237:	068377        	bany	a3, a7, 400d2241 <esp_intr_alloc_intrstatus+0xa9>
400d223a:	e70c      	movi.n	a7, 14
400d223c:	208370        	or	a8, a3, a7
400d223f:	6189      	s32i.n	a8, a1, 24
400d2241:	f81171        	l32r	a7, 400d0288 <_image_irom_vaddr+0x268>
400d2244:	4b0c      	movi.n	a11, 4
400d2246:	0788      	l32i.n	a8, a7, 0
400d2248:	000f86        	j	400d228a <esp_intr_alloc_intrstatus+0xf2>
400d224b:	189200        	lsxp	f9, a2, a0
400d224e:	087800        	lsx	f7, a8, a0
400d2251:	1389b7        	bany	a9, a11, 400d2268 <esp_intr_alloc_intrstatus+0xd0>
400d2254:	1197e0        	slli	a9, a7, 2
400d2257:	319890        	srai	a9, a9, 24
400d225a:	2a9297        	bne	a2, a9, 400d2288 <esp_intr_alloc_intrstatus+0xf0>
400d225d:	059070        	extui	a9, a7, 16, 1
400d2260:	249597        	bne	a5, a9, 400d2288 <esp_intr_alloc_intrstatus+0xf0>
400d2263:	00a646        	j	400d2500 <esp_intr_alloc_intrstatus+0x368>
400d2266:	700000        	lsi	f0, a0, 0x1c0
400d2269:	970590        	lsi	f9, a5, 0x25c
400d226c:	a81995        	call4	4007a408 <__udivmoddi4+0x15814>
400d226f:	4618      	l32i.n	a1, a6, 16
400d2271:	000004        	lsi	f0, a0, 0
400d2274:	0a9800        	add.s	f9, f8, f0
400d2277:	019990        	slli	a9, a9, 23
400d227a:	319890        	srai	a9, a9, 24
400d227d:	029297        	bne	a2, a9, 400d2283 <esp_intr_alloc_intrstatus+0xeb>
400d2280:	009f06        	j	400d2500 <esp_intr_alloc_intrstatus+0x368>
400d2283:	5aa8      	l32i.n	a10, a10, 20
400d2285:	feca56        	bnez	a10, 400d2275 <esp_intr_alloc_intrstatus+0xdd>
400d2288:	2888      	l32i.n	a8, a8, 8
400d228a:	fbe856        	bnez	a8, 400d224c <esp_intr_alloc_intrstatus+0xb4>
400d228d:	009406        	j	400d24e1 <esp_intr_alloc_intrstatus+0x349>
400d2290:	457170        	extui	a7, a7, 17, 5
400d2293:	021477        	beq	a4, a7, 400d2299 <esp_intr_alloc_intrstatus+0x101>
400d2296:	003cc6        	j	400d238d <esp_intr_alloc_intrstatus+0x1f5>
400d2299:	0621b2        	l32i	a11, a1, 24
400d229c:	20a880        	or	a10, a8, a8
400d229f:	20d440        	or	a13, a4, a4
400d22a2:	05cd      	mov.n	a12, a5
400d22a4:	c189      	s32i.n	a8, a1, 48
400d22a6:	ffd6e5        	call8	400d2014 <is_vect_desc_usable>
400d22a9:	c188      	l32i.n	a8, a1, 48
400d22ab:	0dea16        	beqz	a10, 400d238d <esp_intr_alloc_intrstatus+0x1f5>
400d22ae:	0848      	l32i.n	a4, a8, 0
400d22b0:	000d46        	j	400d22e9 <esp_intr_alloc_intrstatus+0x151>
400d22b3:	05bd00        	extui	a11, a0, 29, 1
400d22b6:	04ad      	mov.n	a10, a4
400d22b8:	ffd225        	call8	400d1fdc <find_desc_for_int>
400d22bb:	0a7d      	mov.n	a7, a10
400d22bd:	5adc      	bnez.n	a10, 400d22d6 <esp_intr_alloc_intrstatus+0x13e>
400d22bf:	447040        	extui	a7, a4, 0, 5
400d22c2:	0187f0        	slli	a8, a7, 17
400d22c5:	f7f491        	l32r	a9, 400d0298 <_image_irom_vaddr+0x278>
400d22c8:	0178      	l32i.n	a7, a1, 0
400d22ca:	107790        	and	a7, a7, a9
400d22cd:	207780        	or	a7, a7, a8
400d22d0:	006172        	s32i	a7, a1, 0
400d22d3:	207110        	or	a7, a1, a1
400d22d6:	0621b2        	l32i	a11, a1, 24
400d22d9:	20d440        	or	a13, a4, a4
400d22dc:	20c550        	or	a12, a5, a5
400d22df:	07ad      	mov.n	a10, a7
400d22e1:	ffd325        	call8	400d2014 <is_vect_desc_usable>
400d22e4:	0a5a16        	beqz	a10, 400d238d <esp_intr_alloc_intrstatus+0x1f5>
400d22e7:	0748      	l32i.n	a4, a7, 0
400d22e9:	454140        	extui	a4, a4, 17, 5
400d22ec:	002a86        	j	400d239a <esp_intr_alloc_intrstatus+0x202>
400d22ef:	05bd00        	extui	a11, a0, 29, 1
400d22f2:	07ad      	mov.n	a10, a7
400d22f4:	ffce65        	call8	400d1fdc <find_desc_for_int>
400d22f7:	0a9d      	mov.n	a9, a10
400d22f9:	3adc      	bnez.n	a10, 400d2310 <esp_intr_alloc_intrstatus+0x178>
400d22fb:	449070        	extui	a9, a7, 0, 5
400d22fe:	01a9f0        	slli	a10, a9, 17
400d2301:	f7e581        	l32r	a8, 400d0298 <_image_irom_vaddr+0x278>
400d2304:	0198      	l32i.n	a9, a1, 0
400d2306:	109980        	and	a9, a9, a8
400d2309:	2099a0        	or	a9, a9, a10
400d230c:	0199      	s32i.n	a9, a1, 0
400d230e:	019d      	mov.n	a9, a1
400d2310:	0621b2        	l32i	a11, a1, 24
400d2313:	20a990        	or	a10, a9, a9
400d2316:	ffafd2        	movi	a13, -1
400d2319:	05cd      	mov.n	a12, a5
400d231b:	c199      	s32i.n	a9, a1, 48
400d231d:	ffcf65        	call8	400d2014 <is_vect_desc_usable>
400d2320:	c198      	l32i.n	a9, a1, 48
400d2322:	05ca16        	beqz	a10, 400d2382 <esp_intr_alloc_intrstatus+0x1ea>
400d2325:	b188      	l32i.n	a8, a1, 44
400d2327:	041816        	beqz	a8, 400d236c <esp_intr_alloc_intrstatus+0x1d4>
400d232a:	0019a2        	l16ui	a10, a9, 0
400d232d:	480c      	movi.n	a8, 4
400d232f:	260a87        	bnone	a10, a8, 400d2359 <esp_intr_alloc_intrstatus+0x1c1>
400d2332:	19a8      	l32i.n	a10, a9, 4
400d2334:	090c      	movi.n	a9, 0
400d2336:	000146        	j	400d233f <esp_intr_alloc_intrstatus+0x1a7>
400d2339:	052aa2        	l32i	a10, a10, 20
400d233c:	01c992        	addi	a9, a9, 1
400d233f:	ff6a56        	bnez	a10, 400d2339 <esp_intr_alloc_intrstatus+0x1a1>
400d2342:	20a770        	or	a10, a7, a7
400d2345:	c199      	s32i.n	a9, a1, 48
400d2347:	ffb625        	call8	400d1ea8 <interrupt_controller_hal_desc_level>
400d234a:	c198      	l32i.n	a9, a1, 48
400d234c:	7188      	l32i.n	a8, a1, 28
400d234e:	2a2987        	blt	a9, a8, 400d237c <esp_intr_alloc_intrstatus+0x1e4>
400d2351:	4188      	l32i.n	a8, a1, 16
400d2353:	252a87        	blt	a10, a8, 400d237c <esp_intr_alloc_intrstatus+0x1e4>
400d2356:	000a06        	j	400d2382 <esp_intr_alloc_intrstatus+0x1ea>
400d2359:	250466        	bnei	a4, -1, 400d2382 <esp_intr_alloc_intrstatus+0x1ea>
400d235c:	07ad      	mov.n	a10, a7
400d235e:	ffb4a5        	call8	400d1ea8 <interrupt_controller_hal_desc_level>
400d2361:	4198      	l32i.n	a9, a1, 16
400d2363:	1baa97        	bge	a10, a9, 400d2382 <esp_intr_alloc_intrstatus+0x1ea>
400d2366:	000506        	j	400d237e <esp_intr_alloc_intrstatus+0x1e6>
400d2369:	000000        	ill
400d236c:	07ad      	mov.n	a10, a7
400d236e:	ffb3a5        	call8	400d1ea8 <interrupt_controller_hal_desc_level>
400d2371:	4188      	l32i.n	a8, a1, 16
400d2373:	0baa87        	bge	a10, a8, 400d2382 <esp_intr_alloc_intrstatus+0x1ea>
400d2376:	000106        	j	400d237e <esp_intr_alloc_intrstatus+0x1e6>
400d2379:	000000        	ill
400d237c:	7199      	s32i.n	a9, a1, 28
400d237e:	41a9      	s32i.n	a10, a1, 16
400d2380:	074d      	mov.n	a4, a7
400d2382:	771b      	addi.n	a7, a7, 1
400d2384:	02c726        	beqi	a7, 32, 400d238a <esp_intr_alloc_intrstatus+0x1f2>
400d2387:	ffd946        	j	400d22f0 <esp_intr_alloc_intrstatus+0x158>
400d238a:	0c0466        	bnei	a4, -1, 400d239a <esp_intr_alloc_intrstatus+0x202>
400d238d:	ffc3e5        	call8	400d1fcc <esp_intr_unlock>
400d2390:	06ad      	mov.n	a10, a6
400d2392:	b009a5        	call8	4008242c <k_free>
400d2395:	d56c      	movi.n	a5, -19
400d2397:	005b86        	j	400d2509 <esp_intr_alloc_intrstatus+0x371>
400d239a:	20b550        	or	a11, a5, a5
400d239d:	20a440        	or	a10, a4, a4
400d23a0:	ffd025        	call8	400d20a4 <get_desc_for_int>
400d23a3:	207aa0        	or	a7, a10, a10
400d23a6:	3acc      	bnez.n	a10, 400d23ad <esp_intr_alloc_intrstatus+0x215>
400d23a8:	000306        	j	400d23b8 <esp_intr_alloc_intrstatus+0x220>
400d23ab:	870000        	lsi	f0, a0, 0x21c
400d23ae:	a26b63        	lsi	f6, a11, 0x288
400d23b1:	6518a0        	extui	a1, a10, 24, 7
400d23b4:	ccffb5        	call12	4009f3b0 <_iram_end+0x1c174>
400d23b7:	25ca      	add.n	a2, a5, a12
400d23b9:	adffc1        	l32r	a12, 400bdbb8 <_iram_end+0x3a97c>
400d23bc:	06e506        	j	400d3f54 <_etext+0xa94>
400d23bf:	457cb0        	extui	a7, a11, 28, 5
400d23c2:	0050c6        	j	400d2509 <esp_intr_alloc_intrstatus+0x371>
400d23c5:	a0c200        	addx4	a12, a2, a0
400d23c8:	b218      	l32i.n	a1, a2, 44
400d23ca:	a900a0        	lsi	f10, a0, 0x2a4
400d23cd:	e165c1        	l32r	a12, 400ca964 <_iram_end+0x47728>
400d23d0:	c188b0        	mul16u	a8, a8, a11
400d23d3:	8198      	l32i.n	a9, a1, 32
400d23d5:	01aeb2        	movi	a11, 0xfffffe01
400d23d8:	1899      	s32i.n	a9, a8, 4
400d23da:	9198      	l32i.n	a9, a1, 36
400d23dc:	07cd      	mov.n	a12, a7
400d23de:	2899      	s32i.n	a9, a8, 8
400d23e0:	5198      	l32i.n	a9, a1, 20
400d23e2:	3899      	s32i.n	a9, a8, 12
400d23e4:	a198      	l32i.n	a9, a1, 40
400d23e6:	4899      	s32i.n	a9, a8, 16
400d23e8:	1798      	l32i.n	a9, a7, 4
400d23ea:	5899      	s32i.n	a9, a8, 20
400d23ec:	749020        	extui	a9, a2, 0, 8
400d23ef:	11a9f0        	slli	a10, a9, 1
400d23f2:	001892        	l16ui	a9, a8, 0
400d23f5:	1099b0        	and	a9, a9, a11
400d23f8:	2099a0        	or	a9, a9, a10
400d23fb:	ea7c      	movi.n	a10, -2
400d23fd:	1099a0        	and	a9, a9, a10
400d2400:	005892        	s16i	a9, a8, 0
400d2403:	1789      	s32i.n	a8, a7, 4
400d2405:	001782        	l16ui	a8, a7, 0
400d2408:	490c      	movi.n	a9, 4
400d240a:	208890        	or	a8, a8, a9
400d240d:	f7a7b1        	l32r	a11, 400d02ac <_image_irom_vaddr+0x28c>
400d2410:	005782        	s16i	a8, a7, 0
400d2413:	04ad      	mov.n	a10, a4
400d2415:	ffd225        	call8	400d2138 <set_interrupt_handler>
400d2418:	000e46        	j	400d2455 <esp_intr_alloc_intrstatus+0x2bd>
400d241b:	a08200        	addx4	a8, a2, a0
400d241e:	8208      	l32i.n	a0, a2, 32
400d2420:	005a      	add.n	a0, a0, a5
400d2422:	052182        	l32i	a8, a1, 20
400d2425:	008816        	beqz	a8, 400d2431 <esp_intr_alloc_intrstatus+0x299>
400d2428:	a1c8      	l32i.n	a12, a1, 40
400d242a:	08bd      	mov.n	a11, a8
400d242c:	04ad      	mov.n	a10, a4
400d242e:	ffd0a5        	call8	400d2138 <set_interrupt_handler>
400d2431:	0d6397        	bbci	a3, 9, 400d2442 <esp_intr_alloc_intrstatus+0x2aa>
400d2434:	1a0c      	movi.n	a10, 1
400d2436:	401400        	ssl	a4
400d2439:	a1aa00        	sll	a10, a10
400d243c:	f79f81        	l32r	a8, 400d02b8 <_image_irom_vaddr+0x298>
400d243f:	0008e0        	callx8	a8
400d2442:	748020        	extui	a8, a2, 0, 8
400d2445:	0198a0        	slli	a9, a8, 22
400d2448:	f79aa1        	l32r	a10, 400d02b0 <_image_irom_vaddr+0x290>
400d244b:	0788      	l32i.n	a8, a7, 0
400d244d:	1088a0        	and	a8, a8, a10
400d2450:	208890        	or	a8, a8, a9
400d2453:	0789      	s32i.n	a8, a7, 0
400d2455:	f797b1        	l32r	a11, 400d02b4 <_image_irom_vaddr+0x294>
400d2458:	11a5e0        	slli	a10, a5, 2
400d245b:	180c      	movi.n	a8, 1
400d245d:	abaa      	add.n	a10, a11, a10
400d245f:	401400        	ssl	a4
400d2462:	a18800        	sll	a8, a8
400d2465:	009792        	l16si	a9, a7, 0
400d2468:	0ab8      	l32i.n	a11, a10, 0
400d246a:	1263a7        	bbci	a3, 10, 400d2480 <esp_intr_alloc_intrstatus+0x2e8>
400d246d:	2c0c      	movi.n	a12, 2
400d246f:	2099c0        	or	a9, a9, a12
400d2472:	005792        	s16i	a9, a7, 0
400d2475:	f97c      	movi.n	a9, -1
400d2477:	308980        	xor	a8, a9, a8
400d247a:	1088b0        	and	a8, a8, a11
400d247d:	000286        	j	400d248b <esp_intr_alloc_intrstatus+0x2f3>
400d2480:	dc7c      	movi.n	a12, -3
400d2482:	1099c0        	and	a9, a9, a12
400d2485:	005792        	s16i	a9, a7, 0
400d2488:	2088b0        	or	a8, a8, a11
400d248b:	0a89      	s32i.n	a8, a10, 0
400d248d:	00b296        	bltz	a2, 400d249c <esp_intr_alloc_intrstatus+0x304>
400d2490:	04cd      	mov.n	a12, a4
400d2492:	02bd      	mov.n	a11, a2
400d2494:	05ad      	mov.n	a10, a5
400d2496:	f78981        	l32r	a8, 400d02bc <_image_irom_vaddr+0x29c>
400d2499:	0008e0        	callx8	a8
400d249c:	012722        	l32i	a2, a7, 4
400d249f:	006672        	s32i	a7, a6, 0
400d24a2:	016622        	s32i	a2, a6, 4
400d24a5:	03e450        	rsr.intenable	a5
400d24a8:	120c      	movi.n	a2, 1
400d24aa:	401400        	ssl	a4
400d24ad:	a14200        	sll	a4, a2
400d24b0:	204450        	or	a4, a4, a5
400d24b3:	13e440        	wsr.intenable	a4
400d24b6:	002010        	rsync
400d24b9:	0463b7        	bbci	a3, 11, 400d24c1 <esp_intr_alloc_intrstatus+0x329>
400d24bc:	06ad      	mov.n	a10, a6
400d24be:	ae2365        	call8	400806f4 <esp_intr_disable>
400d24c1:	ffb0a5        	call8	400d1fcc <esp_intr_unlock>
400d24c4:	182192        	l32i	a9, a1, 96
400d24c7:	009916        	beqz	a9, 400d24d4 <esp_intr_alloc_intrstatus+0x33c>
400d24ca:	006962        	s32i	a6, a9, 0
400d24cd:	00a052        	movi	a5, 0
400d24d0:	000d46        	j	400d2509 <esp_intr_alloc_intrstatus+0x371>
400d24d3:	06ad00        	lsi	f0, a13, 24
400d24d6:	aff565        	call8	4008242c <k_free>
400d24d9:	fffc06        	j	400d24cd <esp_intr_alloc_intrstatus+0x335>
400d24dc:	a56c      	movi.n	a5, -22
400d24de:	0009c6        	j	400d2509 <esp_intr_alloc_intrstatus+0x371>
400d24e1:	020426        	beqi	a4, -1, 400d24e7 <esp_intr_alloc_intrstatus+0x34f>
400d24e4:	ff7306        	j	400d22b4 <esp_intr_alloc_intrstatus+0x11c>
400d24e7:	990c      	movi.n	a9, 9
400d24e9:	4199      	s32i.n	a9, a1, 16
400d24eb:	f6f491        	l32r	a9, 400d00bc <_image_irom_vaddr+0x9c>
400d24ee:	087d      	mov.n	a7, a8
400d24f0:	6188      	l32i.n	a8, a1, 24
400d24f2:	7199      	s32i.n	a9, a1, 28
400d24f4:	00a192        	movi	a9, 0x100
400d24f7:	109890        	and	a9, a8, a9
400d24fa:	b199      	s32i.n	a9, a1, 44
400d24fc:	ff7c06        	j	400d22f0 <esp_intr_alloc_intrstatus+0x158>
400d24ff:	042600        	extui	a2, a0, 6, 1
400d2502:	624602        	s8i	a0, a6, 98
400d2505:	ff          	.byte 0xff
400d2506:	ff63c6        	j	400d2299 <esp_intr_alloc_intrstatus+0x101>
400d2509:	052d      	mov.n	a2, a5
400d250b:	f01d      	retw.n
400d250d:	000000        	ill

400d2510 <esp_intr_alloc>:
400d2510:	006136        	entry	a1, 48
400d2513:	0d0c      	movi.n	a13, 0
400d2515:	0169      	s32i.n	a6, a1, 0
400d2517:	05fd      	mov.n	a15, a5
400d2519:	04ed      	mov.n	a14, a4
400d251b:	0dcd      	mov.n	a12, a13
400d251d:	03bd      	mov.n	a11, a3
400d251f:	02ad      	mov.n	a10, a2
400d2521:	ffc765        	call8	400d2198 <esp_intr_alloc_intrstatus>
400d2524:	0a2d      	mov.n	a2, a10
400d2526:	f01d      	retw.n

400d2528 <clock_control_esp32_get_status>:
400d2528:	004136        	entry	a1, 32
400d252b:	eac322        	addi	a2, a3, -22
400d252e:	c80c      	movi.n	a8, 12
400d2530:	223827        	bltu	a8, a2, 400d2556 <clock_control_esp32_get_status+0x2e>
400d2533:	190c      	movi.n	a9, 1
400d2535:	401200        	ssl	a2
400d2538:	a19900        	sll	a9, a9
400d253b:	fba322        	movi	a2, 0x3fb
400d253e:	f74281        	l32r	a8, 400d0248 <_image_irom_vaddr+0x228>
400d2541:	1b8927        	bany	a9, a2, 400d2560 <clock_control_esp32_get_status+0x38>
400d2544:	f74321        	l32r	a2, 400d0250 <_image_irom_vaddr+0x230>
400d2547:	f73f81        	l32r	a8, 400d0244 <_image_irom_vaddr+0x224>
400d254a:	120927        	bnone	a9, a2, 400d2560 <clock_control_esp32_get_status+0x38>
400d254d:	f73f81        	l32r	a8, 400d024c <_image_irom_vaddr+0x22c>
400d2550:	000306        	j	400d2560 <clock_control_esp32_get_status+0x38>
400d2553:	000000        	ill
400d2556:	292c      	movi.n	a9, 34
400d2558:	f73b81        	l32r	a8, 400d0244 <_image_irom_vaddr+0x224>
400d255b:	020c      	movi.n	a2, 0
400d255d:	0b3937        	bltu	a9, a3, 400d256c <clock_control_esp32_get_status+0x44>
400d2560:	f75891        	l32r	a9, 400d02c0 <_image_irom_vaddr+0x2a0>
400d2563:	1133e0        	slli	a3, a3, 2
400d2566:	803930        	add	a3, a9, a3
400d2569:	002322        	l32i	a2, a3, 0
400d256c:	0020c0        	memw
400d256f:	0838      	l32i.n	a3, a8, 0
400d2571:	180c      	movi.n	a8, 1
400d2573:	103320        	and	a3, a3, a2
400d2576:	220c      	movi.n	a2, 2
400d2578:	832830        	moveqz	a2, a8, a3
400d257b:	f01d      	retw.n
400d257d:	000000        	ill

400d2580 <clock_control_esp32_get_rate>:
400d2580:	006136        	entry	a1, 48
400d2583:	01ad      	mov.n	a10, a1
400d2585:	ff0525        	call8	400d15d8 <rtc_clk_cpu_freq_get_config>
400d2588:	3188      	l32i.n	a8, a1, 12
400d258a:	020c      	movi.n	a2, 0
400d258c:	0489      	s32i.n	a8, a4, 0
400d258e:	f01d      	retw.n

400d2590 <clock_control_esp32_off>:
400d2590:	004136        	entry	a1, 32
400d2593:	03ad      	mov.n	a10, a3
400d2595:	ff8965        	call8	400d1e2c <periph_module_disable>
400d2598:	020c      	movi.n	a2, 0
400d259a:	f01d      	retw.n

400d259c <clock_control_esp32_on>:
400d259c:	004136        	entry	a1, 32
400d259f:	03ad      	mov.n	a10, a3
400d25a1:	ff81e5        	call8	400d1dc0 <periph_module_enable>
400d25a4:	020c      	movi.n	a2, 0
400d25a6:	f01d      	retw.n

400d25a8 <clock_control_esp32_init>:
400d25a8:	008136        	entry	a1, 64
400d25ab:	1238      	l32i.n	a3, a2, 4
400d25ad:	ff27e5        	call8	400d182c <rtc_clk_apb_freq_get>
400d25b0:	f74521        	l32r	a2, 400d02c4 <_image_irom_vaddr+0x2a4>
400d25b3:	6232a7        	bltu	a2, a10, 400d2619 <clock_control_esp32_init+0x71>
400d25b6:	f74421        	l32r	a2, 400d02c8 <_image_irom_vaddr+0x2a8>
400d25b9:	1388      	l32i.n	a8, a3, 4
400d25bb:	0248      	l32i.n	a4, a2, 0
400d25bd:	1228      	l32i.n	a2, a2, 4
400d25bf:	0149      	s32i.n	a4, a1, 0
400d25c1:	1129      	s32i.n	a2, a1, 4
400d25c3:	f74241        	l32r	a4, 400d02cc <_image_irom_vaddr+0x2ac>
400d25c6:	2328      	l32i.n	a2, a3, 8
400d25c8:	948080        	extui	a8, a8, 0, 10
400d25cb:	442a      	add.n	a4, a4, a2
400d25cd:	000422        	l8ui	a2, a4, 0
400d25d0:	119880        	slli	a9, a8, 8
400d25d3:	004122        	s8i	a2, a1, 0
400d25d6:	0188      	l32i.n	a8, a1, 0
400d25d8:	f71021        	l32r	a2, 400d0218 <_image_irom_vaddr+0x1f8>
400d25db:	108820        	and	a8, a8, a2
400d25de:	208890        	or	a8, a8, a9
400d25e1:	0189      	s32i.n	a8, a1, 0
400d25e3:	fed9a5        	call8	400d137c <rtc_clk_slow_freq_get>
400d25e6:	14a0a0        	extui	a10, a10, 0, 2
400d25e9:	014ad0        	slli	a4, a10, 19
400d25ec:	f73921        	l32r	a2, 400d02d0 <_image_irom_vaddr+0x2b0>
400d25ef:	01a8      	l32i.n	a10, a1, 0
400d25f1:	10aa20        	and	a10, a10, a2
400d25f4:	20aa40        	or	a10, a10, a4
400d25f7:	01a9      	s32i.n	a10, a1, 0
400d25f9:	fedbe5        	call8	400d13b8 <rtc_clk_fast_freq_get>
400d25fc:	04a0a0        	extui	a10, a10, 0, 1
400d25ff:	014ae0        	slli	a4, a10, 18
400d2602:	f73421        	l32r	a2, 400d02d4 <_image_irom_vaddr+0x2b4>
400d2605:	01a8      	l32i.n	a10, a1, 0
400d2607:	11b8      	l32i.n	a11, a1, 4
400d2609:	10aa20        	and	a10, a10, a2
400d260c:	20aa40        	or	a10, a10, a4
400d260f:	01a9      	s32i.n	a10, a1, 0
400d2611:	ff4da5        	call8	400d1aec <rtc_clk_init>
400d2614:	000306        	j	400d2624 <clock_control_esp32_init+0x7c>
400d2617:	0c0000        	lsi	f0, a0, 48
400d261a:	810a      	add.n	a8, a1, a0
400d261c:	2f          	.byte 0x2f
400d261d:	08e0f7        	bbsi	a0, 15, 400d2629 <clock_control_esp32_init+0x81>
400d2620:	aa6600        	floor.s	a6, f6, 0
400d2623:	1a0c91        	l32r	a9, 40098e54 <_iram_end+0x15c18>
400d2626:	fed665        	call8	400d138c <rtc_clk_fast_freq_set>
400d2629:	10c1a2        	addi	a10, a1, 16
400d262c:	fefaa5        	call8	400d15d8 <rtc_clk_cpu_freq_get_config>
400d262f:	1348      	l32i.n	a4, a3, 4
400d2631:	01bd      	mov.n	a11, a1
400d2633:	04ad      	mov.n	a10, a4
400d2635:	7158      	l32i.n	a5, a1, 28
400d2637:	fef4e5        	call8	400d1584 <rtc_clk_cpu_freq_mhz_to_config>
400d263a:	7aaf22        	movi	a2, -134
400d263d:	9abc      	beqz.n	a10, 400d267a <clock_control_esp32_init+0xd2>
400d263f:	0a0c      	movi.n	a10, 0
400d2641:	f6f781        	l32r	a8, 400d0220 <_image_irom_vaddr+0x200>
400d2644:	0008e0        	callx8	a8
400d2647:	3328      	l32i.n	a2, a3, 12
400d2649:	001296        	bltz	a2, 400d264e <clock_control_esp32_init+0xa6>
400d264c:	2129      	s32i.n	a2, a1, 8
400d264e:	0328      	l32i.n	a2, a3, 0
400d2650:	001296        	bltz	a2, 400d2655 <clock_control_esp32_init+0xad>
400d2653:	0129      	s32i.n	a2, a1, 0
400d2655:	20a110        	or	a10, a1, a1
400d2658:	ff0ba5        	call8	400d1714 <rtc_clk_cpu_freq_set_config>
400d265b:	03eaa0        	rsr.ccount	a10
400d265e:	a2ba40        	muluh	a11, a10, a4
400d2661:	82aa40        	mull	a10, a10, a4
400d2664:	20c550        	or	a12, a5, a5
400d2667:	00a0d2        	movi	a13, 0
400d266a:	f6d981        	l32r	a8, 400d01d0 <_image_irom_vaddr+0x1b0>
400d266d:	0008e0        	callx8	a8
400d2670:	13eaa0        	wsr.ccount	a10
400d2673:	aa1c      	movi.n	a10, 26
400d2675:	ff74a5        	call8	400d1dc0 <periph_module_enable>
400d2678:	020c      	movi.n	a2, 0
400d267a:	f01d      	retw.n

400d267c <uart_console_init>:
400d267c:	004136        	entry	a1, 32
400d267f:	f718a1        	l32r	a10, 400d02e0 <_image_irom_vaddr+0x2c0>
400d2682:	f71621        	l32r	a2, 400d02dc <_image_irom_vaddr+0x2bc>
400d2685:	0062a2        	s32i	a10, a2, 0
400d2688:	afdd25        	call8	4008245c <z_device_is_ready>
400d268b:	d26c      	movi.n	a2, -19
400d268d:	da8c      	beqz.n	a10, 400d269e <uart_console_init+0x22>
400d268f:	f71521        	l32r	a2, 400d02e4 <_image_irom_vaddr+0x2c4>
400d2692:	02ad      	mov.n	a10, a2
400d2694:	ff8a65        	call8	400d1f3c <__stdout_hook_install>
400d2697:	02ad      	mov.n	a10, a2
400d2699:	fdcea5        	call8	400d0384 <__printk_hook_install>
400d269c:	020c      	movi.n	a2, 0
400d269e:	f01d      	retw.n

400d26a0 <rtcio_ll_set_drive_capability>:
400d26a0:	004136        	entry	a1, 32
400d26a3:	11a2d0        	slli	a10, a2, 3
400d26a6:	c0aa20        	sub	a10, a10, a2
400d26a9:	f66f21        	l32r	a2, 400d0068 <_image_irom_vaddr+0x48>
400d26ac:	11aad0        	slli	a10, a10, 3
400d26af:	22aa      	add.n	a2, a2, a10
400d26b1:	b298      	l32i.n	a9, a2, 44
400d26b3:	69ac      	beqz.n	a9, 400d26dd <rtcio_ll_set_drive_capability+0x3d>
400d26b5:	02a8      	l32i.n	a10, a2, 0
400d26b7:	c228      	l32i.n	a2, a2, 48
400d26b9:	0020c0        	memw
400d26bc:	0ab8      	l32i.n	a11, a10, 0
400d26be:	401200        	ssl	a2
400d26c1:	a1c900        	sll	a12, a9
400d26c4:	f87c      	movi.n	a8, -1
400d26c6:	3088c0        	xor	a8, a8, a12
400d26c9:	109930        	and	a9, a9, a3
400d26cc:	1088b0        	and	a8, a8, a11
400d26cf:	401200        	ssl	a2
400d26d2:	a19900        	sll	a9, a9
400d26d5:	208890        	or	a8, a8, a9
400d26d8:	0020c0        	memw
400d26db:	0a89      	s32i.n	a8, a10, 0
400d26dd:	f01d      	retw.n
	...

400d26e0 <gpio_esp32_pin_interrupt_configure>:
400d26e0:	004136        	entry	a1, 32
400d26e3:	1288      	l32i.n	a8, a2, 4
400d26e5:	743030        	extui	a3, a3, 0, 8
400d26e8:	3828      	l32i.n	a2, a8, 12
400d26ea:	081266        	bnei	a2, 1, 400d26f6 <gpio_esp32_pin_interrupt_configure+0x16>
400d26ed:	1fa022        	movi	a2, 31
400d26f0:	20a0b2        	movi	a11, 32
400d26f3:	01b237        	bgeu	a2, a3, 400d26f8 <gpio_esp32_pin_interrupt_configure+0x18>
400d26f6:	0b0c      	movi.n	a11, 0
400d26f8:	f6cb21        	l32r	a2, 400d0224 <_image_irom_vaddr+0x204>
400d26fb:	2f1427        	beq	a4, a2, 400d272e <gpio_esp32_pin_interrupt_configure+0x4e>
400d26fe:	f64d21        	l32r	a2, 400d0034 <_image_irom_vaddr+0x14>
400d2701:	109427        	bne	a4, a2, 400d2715 <gpio_esp32_pin_interrupt_configure+0x35>
400d2704:	f6cb21        	l32r	a2, 400d0230 <_image_irom_vaddr+0x210>
400d2707:	291527        	beq	a5, a2, 400d2734 <gpio_esp32_pin_interrupt_configure+0x54>
400d270a:	f6ca21        	l32r	a2, 400d0234 <_image_irom_vaddr+0x214>
400d270d:	281527        	beq	a5, a2, 400d2739 <gpio_esp32_pin_interrupt_configure+0x59>
400d2710:	a26c      	movi.n	a2, -22
400d2712:	002346        	j	400d27a3 <gpio_esp32_pin_interrupt_configure+0xc3>
400d2715:	f6c721        	l32r	a2, 400d0234 <_image_irom_vaddr+0x214>
400d2718:	221527        	beq	a5, a2, 400d273e <gpio_esp32_pin_interrupt_configure+0x5e>
400d271b:	f6f321        	l32r	a2, 400d02e8 <_image_irom_vaddr+0x2c8>
400d271e:	241527        	beq	a5, a2, 400d2746 <gpio_esp32_pin_interrupt_configure+0x66>
400d2721:	f6c341        	l32r	a4, 400d0230 <_image_irom_vaddr+0x210>
400d2724:	a26c      	movi.n	a2, -22
400d2726:	290c      	movi.n	a9, 2
400d2728:	1c1547        	beq	a5, a4, 400d2748 <gpio_esp32_pin_interrupt_configure+0x68>
400d272b:	001d06        	j	400d27a3 <gpio_esp32_pin_interrupt_configure+0xc3>
400d272e:	090c      	movi.n	a9, 0
400d2730:	000506        	j	400d2748 <gpio_esp32_pin_interrupt_configure+0x68>
400d2733:	490c00        	s32e	a0, a12, -64
400d2736:	000386        	j	400d2748 <gpio_esp32_pin_interrupt_configure+0x68>
400d2739:	590c      	movi.n	a9, 5
400d273b:	000246        	j	400d2748 <gpio_esp32_pin_interrupt_configure+0x68>
400d273e:	190c      	movi.n	a9, 1
400d2740:	000106        	j	400d2748 <gpio_esp32_pin_interrupt_configure+0x68>
400d2743:	000000        	ill
400d2746:	390c      	movi.n	a9, 3
400d2748:	0063a0        	rsil	a10, 3
400d274b:	33ba      	add.n	a3, a3, a11
400d274d:	1888      	l32i.n	a8, a8, 4
400d274f:	20c332        	addi	a3, a3, 32
400d2752:	1133e0        	slli	a3, a3, 2
400d2755:	883a      	add.n	a8, a8, a3
400d2757:	0020c0        	memw
400d275a:	2838      	l32i.n	a3, a8, 8
400d275c:	7fac22        	movi	a2, 0xfffffc7f
400d275f:	103320        	and	a3, a3, a2
400d2762:	119990        	slli	a9, a9, 7
400d2765:	209390        	or	a9, a3, a9
400d2768:	0020c0        	memw
400d276b:	2899      	s32i.n	a9, a8, 8
400d276d:	03f520        	rsr.misc1	a2
400d2770:	140232        	l8ui	a3, a2, 20
400d2773:	f6de21        	l32r	a2, 400d02ec <_image_irom_vaddr+0x2cc>
400d2776:	e3cc      	bnez.n	a3, 400d2788 <gpio_esp32_pin_interrupt_configure+0xa8>
400d2778:	0020c0        	memw
400d277b:	2838      	l32i.n	a3, a8, 8
400d277d:	103320        	and	a3, a3, a2
400d2780:	f64a21        	l32r	a2, 400d00a8 <_image_irom_vaddr+0x88>
400d2783:	000306        	j	400d2793 <gpio_esp32_pin_interrupt_configure+0xb3>
400d2786:	c00000        	sub	a0, a0, a0
400d2789:	380020        	lsi	f2, a0, 224
400d278c:	2028      	l32i.n	a2, a0, 8
400d278e:	211033        	lsi	f3, a0, 132
400d2791:	20f637        	bbsi	a6, 19, 400d27b5 <gpio_esp32_init+0xd>
400d2794:	c02033        	lsi	f3, a0, 0x300
400d2797:	390020        	lsi	f2, a0, 228
400d279a:	a028      	l32i.n	a2, a0, 40
400d279c:	1013e6        	bgei	a3, 1, 400d27b0 <gpio_esp32_init+0x8>
400d279f:	0c0020        	lsi	f2, a0, 48
400d27a2:	f01d02        	l16ui	a0, a13, 0x1e0
400d27a5:	000000        	ill

400d27a8 <gpio_esp32_init>:
400d27a8:	004136        	entry	a1, 32
400d27ab:	042232        	l32i	a3, a2, 16
400d27ae:	f6d0a1        	l32r	a10, 400d02f0 <_image_irom_vaddr+0x2d0>
400d27b1:	204220        	or	a4, a2, a2
400d27b4:	0163a2        	s32i	a10, a3, 4
400d27b7:	afca65        	call8	4008245c <z_device_is_ready>
400d27ba:	6acc      	bnez.n	a10, 400d27c4 <gpio_esp32_init+0x1c>
400d27bc:	13a9      	s32i.n	a10, a3, 4
400d27be:	7aaf22        	movi	a2, -134
400d27c1:	0009c6        	j	400d27ec <gpio_esp32_init+0x44>
400d27c4:	012332        	l32i	a3, a3, 4
400d27c7:	7aaf22        	movi	a2, -134
400d27ca:	01e316        	beqz	a3, 400d27ec <gpio_esp32_init+0x44>
400d27cd:	f6c931        	l32r	a3, 400d02f4 <_image_irom_vaddr+0x2d4>
400d27d0:	00a022        	movi	a2, 0
400d27d3:	000382        	l8ui	a8, a3, 0
400d27d6:	129827        	bne	a8, a2, 400d27ec <gpio_esp32_init+0x44>
400d27d9:	f6c7c1        	l32r	a12, 400d02f8 <_image_irom_vaddr+0x2d8>
400d27dc:	04dd      	mov.n	a13, a4
400d27de:	02ed      	mov.n	a14, a2
400d27e0:	02bd      	mov.n	a11, a2
400d27e2:	6a1c      	movi.n	a10, 22
400d27e4:	140c      	movi.n	a4, 1
400d27e6:	ffd2a5        	call8	400d2510 <esp_intr_alloc>
400d27e9:	004342        	s8i	a4, a3, 0
400d27ec:	f01d      	retw.n
	...

400d27f0 <gpio_esp32_config>:
400d27f0:	008136        	entry	a1, 64
400d27f3:	1268      	l32i.n	a6, a2, 4
400d27f5:	4258      	l32i.n	a5, a2, 16
400d27f7:	3628      	l32i.n	a2, a6, 12
400d27f9:	743030        	extui	a3, a3, 0, 8
400d27fc:	061266        	bnei	a2, 1, 400d2806 <gpio_esp32_config+0x16>
400d27ff:	f21c      	movi.n	a2, 31
400d2801:	082c      	movi.n	a8, 32
400d2803:	01b237        	bgeu	a2, a3, 400d2808 <gpio_esp32_config+0x18>
400d2806:	080c      	movi.n	a8, 0
400d2808:	f6bd71        	l32r	a7, 400d02fc <_image_irom_vaddr+0x2dc>
400d280b:	238a      	add.n	a2, a3, a8
400d280d:	aa6c      	movi.n	a10, -22
400d280f:	02d727        	bbs	a7, a2, 400d2815 <gpio_esp32_config+0x25>
400d2812:	007686        	j	400d29f0 <gpio_esp32_config+0x200>
400d2815:	006380        	rsil	a8, 3
400d2818:	792c      	movi.n	a9, 39
400d281a:	4189      	s32i.n	a8, a1, 16
400d281c:	070c      	movi.n	a7, 0
400d281e:	323927        	bltu	a9, a2, 400d2854 <gpio_esp32_config+0x64>
400d2821:	f61091        	l32r	a9, 400d0064 <_image_irom_vaddr+0x44>
400d2824:	11a2e0        	slli	a10, a2, 2
400d2827:	99aa      	add.n	a9, a9, a10
400d2829:	0998      	l32i.n	a9, a9, 0
400d282b:	252977        	blt	a9, a7, 400d2854 <gpio_esp32_config+0x64>
400d282e:	1179d0        	slli	a7, a9, 3
400d2831:	c07790        	sub	a7, a7, a9
400d2834:	f60d91        	l32r	a9, 400d0068 <_image_irom_vaddr+0x48>
400d2837:	1177d0        	slli	a7, a7, 3
400d283a:	797a      	add.n	a7, a9, a7
400d283c:	0798      	l32i.n	a9, a7, 0
400d283e:	17b8      	l32i.n	a11, a7, 4
400d2840:	0020c0        	memw
400d2843:	09a8      	l32i.n	a10, a9, 0
400d2845:	f77c      	movi.n	a7, -1
400d2847:	3077b0        	xor	a7, a7, a11
400d284a:	1077a0        	and	a7, a7, a10
400d284d:	0020c0        	memw
400d2850:	0979      	s32i.n	a7, a9, 0
400d2852:	170c      	movi.n	a7, 1
400d2854:	15a8      	l32i.n	a10, a5, 4
400d2856:	2c0c      	movi.n	a12, 2
400d2858:	2a98      	l32i.n	a9, a10, 8
400d285a:	02bd      	mov.n	a11, a2
400d285c:	0998      	l32i.n	a9, a9, 0
400d285e:	0009e0        	callx8	a9
400d2861:	183a96        	bltz	a10, 400d29e8 <gpio_esp32_config+0x1f8>
400d2864:	0c1c      	movi.n	a12, 16
400d2866:	10c4c0        	and	a12, a4, a12
400d2869:	bc8c      	beqz.n	a12, 400d2878 <gpio_esp32_config+0x88>
400d286b:	15a8      	l32i.n	a10, a5, 4
400d286d:	1c0c      	movi.n	a12, 1
400d286f:	2a98      	l32i.n	a9, a10, 8
400d2871:	2998      	l32i.n	a9, a9, 8
400d2873:	000306        	j	400d2883 <gpio_esp32_config+0x93>
400d2876:	570000        	lsi	f0, a0, 0x15c
400d2879:	a81064        	lsi	f6, a0, 0x2a0
400d287c:	2a9215        	call4	400fd1a0 <_etext+0x29ce0>
400d287f:	299202        	l16si	a0, a2, 82
400d2882:	b22002        	l32i	a0, a0, 0x2c8
400d2885:	09e020        	l32e	a2, a0, -8
400d2888:	ba9600        	ceil.s	a9, f6, 0
400d288b:	f41715        	call4	400c69fc <_iram_end+0x437c0>
400d288e:	514602        	s8i	a0, a6, 81
400d2891:	9a9100        	trunc.s	a9, f1, 0
400d2894:	aa6cf6        	bgeui	a12, 6, 400d2842 <gpio_esp32_config+0x52>
400d2897:	02d937        	bbs	a9, a3, 400d289d <gpio_esp32_config+0xad>
400d289a:	005286        	j	400d29e8 <gpio_esp32_config+0x1f8>
400d289d:	1f6417        	bbci	a4, 1, 400d28c0 <gpio_esp32_config+0xd0>
400d28a0:	4b0c      	movi.n	a11, 4
400d28a2:	7aafa2        	movi	a10, -134
400d28a5:	0284b7        	bany	a4, a11, 400d28ab <gpio_esp32_config+0xbb>
400d28a8:	004f06        	j	400d29e8 <gpio_esp32_config+0x1f8>
400d28ab:	1638      	l32i.n	a3, a6, 4
400d28ad:	20c2a2        	addi	a10, a2, 32
400d28b0:	11aae0        	slli	a10, a10, 2
400d28b3:	33aa      	add.n	a3, a3, a10
400d28b5:	0020c0        	memw
400d28b8:	2398      	l32i.n	a9, a3, 8
400d28ba:	2099b0        	or	a9, a9, a11
400d28bd:	0004c6        	j	400d28d4 <gpio_esp32_config+0xe4>
400d28c0:	1638      	l32i.n	a3, a6, 4
400d28c2:	20c292        	addi	a9, a2, 32
400d28c5:	1199e0        	slli	a9, a9, 2
400d28c8:	339a      	add.n	a3, a3, a9
400d28ca:	0020c0        	memw
400d28cd:	2398      	l32i.n	a9, a3, 8
400d28cf:	ba7c      	movi.n	a10, -5
400d28d1:	1099a0        	and	a9, a9, a10
400d28d4:	0020c0        	memw
400d28d7:	2399      	s32i.n	a9, a3, 8
400d28d9:	00a632        	movi	a3, 0x600
400d28dc:	109430        	and	a9, a4, a3
400d28df:	998c      	beqz.n	a9, 400d28ec <gpio_esp32_config+0xfc>
400d28e1:	aa6c      	movi.n	a10, -22
400d28e3:	021937        	beq	a9, a3, 400d28e9 <gpio_esp32_config+0xf9>
400d28e6:	003f86        	j	400d29e8 <gpio_esp32_config+0x1f8>
400d28e9:	000a46        	j	400d2916 <gpio_esp32_config+0x126>
400d28ec:	1192e0        	slli	a9, a2, 2
400d28ef:	97dc      	bnez.n	a7, 400d290c <gpio_esp32_config+0x11c>
400d28f1:	f5d831        	l32r	a3, 400d0054 <_image_irom_vaddr+0x34>
400d28f4:	339a      	add.n	a3, a3, a9
400d28f6:	0378      	l32i.n	a7, a3, 0
400d28f8:	f68291        	l32r	a9, 400d0300 <_image_irom_vaddr+0x2e0>
400d28fb:	0020c0        	memw
400d28fe:	0738      	l32i.n	a3, a7, 0
400d2900:	103390        	and	a3, a3, a9
400d2903:	f68091        	l32r	a9, 400d0304 <_image_irom_vaddr+0x2e4>
400d2906:	203390        	or	a3, a3, a9
400d2909:	000806        	j	400d292d <gpio_esp32_config+0x13d>
400d290c:	f5d631        	l32r	a3, 400d0064 <_image_irom_vaddr+0x44>
400d290f:	3b0c      	movi.n	a11, 3
400d2911:	339a      	add.n	a3, a3, a9
400d2913:	0009c6        	j	400d293e <gpio_esp32_config+0x14e>
400d2916:	1192e0        	slli	a9, a2, 2
400d2919:	87dc      	bnez.n	a7, 400d2935 <gpio_esp32_config+0x145>
400d291b:	f5ce31        	l32r	a3, 400d0054 <_image_irom_vaddr+0x34>
400d291e:	339a      	add.n	a3, a3, a9
400d2920:	0378      	l32i.n	a7, a3, 0
400d2922:	f67791        	l32r	a9, 400d0300 <_image_irom_vaddr+0x2e0>
400d2925:	0020c0        	memw
400d2928:	0738      	l32i.n	a3, a7, 0
400d292a:	103390        	and	a3, a3, a9
400d292d:	0020c0        	memw
400d2930:	0739      	s32i.n	a3, a7, 0
400d2932:	000386        	j	400d2944 <gpio_esp32_config+0x154>
400d2935:	f5cb31        	l32r	a3, 400d0064 <_image_irom_vaddr+0x44>
400d2938:	00a0b2        	movi	a11, 0
400d293b:	803390        	add	a3, a3, a9
400d293e:	0023a2        	l32i	a10, a3, 0
400d2941:	ffd5e5        	call8	400d26a0 <rtcio_ll_set_drive_capability>
400d2944:	3c7437        	bbci	a4, 19, 400d2984 <gpio_esp32_config+0x194>
400d2947:	f71c      	movi.n	a7, 31
400d2949:	1668      	l32i.n	a6, a6, 4
400d294b:	130c      	movi.n	a3, 1
400d294d:	0d3727        	bltu	a7, a2, 400d295e <gpio_esp32_config+0x16e>
400d2950:	401200        	ssl	a2
400d2953:	a13300        	sll	a3, a3
400d2956:	0020c0        	memw
400d2959:	2639      	s32i.n	a3, a6, 8
400d295b:	001986        	j	400d29c5 <gpio_esp32_config+0x1d5>
400d295e:	0020c0        	memw
400d2961:	5678      	l32i.n	a7, a6, 20
400d2963:	401200        	ssl	a2
400d2966:	a13300        	sll	a3, a3
400d2969:	0020c0        	memw
400d296c:	1179      	s32i.n	a7, a1, 4
400d296e:	743030        	extui	a3, a3, 0, 8
400d2971:	0020c0        	memw
400d2974:	044132        	s8i	a3, a1, 4
400d2977:	0020c0        	memw
400d297a:	1138      	l32i.n	a3, a1, 4
400d297c:	0020c0        	memw
400d297f:	5639      	s32i.n	a3, a6, 20
400d2981:	001006        	j	400d29c5 <gpio_esp32_config+0x1d5>
400d2984:	3d7427        	bbci	a4, 18, 400d29c5 <gpio_esp32_config+0x1d5>
400d2987:	f71c      	movi.n	a7, 31
400d2989:	1668      	l32i.n	a6, a6, 4
400d298b:	130c      	movi.n	a3, 1
400d298d:	103727        	bltu	a7, a2, 400d29a1 <gpio_esp32_config+0x1b1>
400d2990:	401200        	ssl	a2
400d2993:	a13300        	sll	a3, a3
400d2996:	0020c0        	memw
400d2999:	3639      	s32i.n	a3, a6, 12
400d299b:	000986        	j	400d29c5 <gpio_esp32_config+0x1d5>
400d299e:	000000        	ill
400d29a1:	0020c0        	memw
400d29a4:	6678      	l32i.n	a7, a6, 24
400d29a6:	401200        	ssl	a2
400d29a9:	a13300        	sll	a3, a3
400d29ac:	0020c0        	memw
400d29af:	0179      	s32i.n	a7, a1, 0
400d29b1:	743030        	extui	a3, a3, 0, 8
400d29b4:	0020c0        	memw
400d29b7:	004132        	s8i	a3, a1, 0
400d29ba:	0020c0        	memw
400d29bd:	002132        	l32i	a3, a1, 0
400d29c0:	0020c0        	memw
400d29c3:	6639      	s32i.n	a3, a6, 24
400d29c5:	15a8      	l32i.n	a10, a5, 4
400d29c7:	0c0c      	movi.n	a12, 0
400d29c9:	022a32        	l32i	a3, a10, 8
400d29cc:	20b220        	or	a11, a2, a2
400d29cf:	032332        	l32i	a3, a3, 12
400d29d2:	0003e0        	callx8	a3
400d29d5:	00fa96        	bltz	a10, 400d29e8 <gpio_esp32_config+0x1f8>
400d29d8:	0c7407        	bbci	a4, 16, 400d29e8 <gpio_esp32_config+0x1f8>
400d29db:	15a8      	l32i.n	a10, a5, 4
400d29dd:	1c0c      	movi.n	a12, 1
400d29df:	2a38      	l32i.n	a3, a10, 8
400d29e1:	02bd      	mov.n	a11, a2
400d29e3:	3338      	l32i.n	a3, a3, 12
400d29e5:	0003e0        	callx8	a3
400d29e8:	4128      	l32i.n	a2, a1, 16
400d29ea:	13e620        	wsr.ps	a2
400d29ed:	002010        	rsync
400d29f0:	0a2d      	mov.n	a2, a10
400d29f2:	f01d      	retw.n

400d29f4 <i2c_ll_write_txfifo>:
400d29f4:	004136        	entry	a1, 32
400d29f7:	f64681        	l32r	a8, 400d0310 <_image_irom_vaddr+0x2f0>
400d29fa:	f64391        	l32r	a9, 400d0308 <_image_irom_vaddr+0x2e8>
400d29fd:	021827        	beq	a8, a2, 400d2a03 <i2c_ll_write_txfifo+0xf>
400d2a00:	f64391        	l32r	a9, 400d030c <_image_irom_vaddr+0x2ec>
400d2a03:	080c      	movi.n	a8, 0
400d2a05:	0002c6        	j	400d2a14 <i2c_ll_write_txfifo+0x20>
400d2a08:	a38a      	add.n	a10, a3, a8
400d2a0a:	000aa2        	l8ui	a10, a10, 0
400d2a0d:	881b      	addi.n	a8, a8, 1
400d2a0f:	0020c0        	memw
400d2a12:	09a9      	s32i.n	a10, a9, 0
400d2a14:	f02847        	blt	a8, a4, 400d2a08 <i2c_ll_write_txfifo+0x14>
400d2a17:	f01d      	retw.n
400d2a19:	000000        	ill

400d2a1c <i2c_esp32_configure>:
400d2a1c:	004136        	entry	a1, 32
400d2a1f:	012242        	l32i	a4, a2, 4
400d2a22:	042222        	l32i	a2, a2, 16
400d2a25:	05e347        	bbsi	a3, 4, 400d2a2e <i2c_esp32_configure+0x12>
400d2a28:	7aaf22        	movi	a2, -134
400d2a2b:	001006        	j	400d2a6f <i2c_esp32_configure+0x53>
400d2a2e:	0024b2        	l32i	a11, a4, 0
400d2a31:	0b6232        	s32i	a3, a2, 44
400d2a34:	2d0452        	l8ui	a5, a4, 45
400d2a37:	2c0432        	l8ui	a3, a4, 44
400d2a3a:	02ad      	mov.n	a10, a2
400d2a3c:	fe3325        	call8	400d0d70 <i2c_hal_master_init>
400d2a3f:	05cd      	mov.n	a12, a5
400d2a41:	03bd      	mov.n	a11, a3
400d2a43:	02ad      	mov.n	a10, a2
400d2a45:	0047e5        	call8	400d2ec4 <i2c_hal_set_data_mode>
400d2a48:	7b0c      	movi.n	a11, 7
400d2a4a:	02ad      	mov.n	a10, a2
400d2a4c:	004b25        	call8	400d2f00 <i2c_hal_set_filter>
400d2a4f:	02ad      	mov.n	a10, a2
400d2a51:	0064a5        	call8	400d309c <i2c_hal_update_config>
400d2a54:	e4b8      	l32i.n	a11, a4, 56
400d2a56:	fceb16        	beqz	a11, 400d2a28 <i2c_esp32_configure+0xc>
400d2a59:	f58b31        	l32r	a3, 400d0088 <_image_irom_vaddr+0x68>
400d2a5c:	1c0c      	movi.n	a12, 1
400d2a5e:	01b3b7        	bgeu	a3, a11, 400d2a63 <i2c_esp32_configure+0x47>
400d2a61:	2c0c      	movi.n	a12, 2
400d2a63:	02ad      	mov.n	a10, a2
400d2a65:	fe2365        	call8	400d0c9c <i2c_hal_set_bus_timing>
400d2a68:	02ad      	mov.n	a10, a2
400d2a6a:	006325        	call8	400d309c <i2c_hal_update_config>
400d2a6d:	020c      	movi.n	a2, 0
400d2a6f:	f01d      	retw.n
400d2a71:	000000        	ill

400d2a74 <clock_control_on>:
400d2a74:	004136        	entry	a1, 32
400d2a77:	02ad      	mov.n	a10, a2
400d2a79:	af9e25        	call8	4008245c <z_device_is_ready>
400d2a7c:	d86c      	movi.n	a8, -19
400d2a7e:	ca8c      	beqz.n	a10, 400d2a8e <clock_control_on+0x1a>
400d2a80:	2288      	l32i.n	a8, a2, 8
400d2a82:	03bd      	mov.n	a11, a3
400d2a84:	002882        	l32i	a8, a8, 0
400d2a87:	02ad      	mov.n	a10, a2
400d2a89:	0008e0        	callx8	a8
400d2a8c:	0a8d      	mov.n	a8, a10
400d2a8e:	082d      	mov.n	a2, a8
400d2a90:	f01d      	retw.n
	...

400d2a94 <i2c_esp32_config_pin>:
400d2a94:	004136        	entry	a1, 32
400d2a97:	1238      	l32i.n	a3, a2, 4
400d2a99:	4248      	l32i.n	a4, a2, 16
400d2a9b:	0358      	l32i.n	a5, a3, 0
400d2a9d:	a26c      	movi.n	a2, -22
400d2a9f:	6a25e6        	bgei	a5, 2, 400d2b0d <i2c_esp32_config_pin+0x79>
400d2aa2:	2403b2        	l8ui	a11, a3, 36
400d2aa5:	0f24a2        	l32i	a10, a4, 60
400d2aa8:	1c0c      	movi.n	a12, 1
400d2aaa:	009ae5        	call8	400d3458 <gpio_pin_set>
400d2aad:	f4a8      	l32i.n	a10, a4, 60
400d2aaf:	2403b2        	l8ui	a11, a3, 36
400d2ab2:	f61851        	l32r	a5, 400d0314 <_image_irom_vaddr+0x2f4>
400d2ab5:	20c550        	or	a12, a5, a5
400d2ab8:	009765        	call8	400d3430 <z_impl_gpio_pin_configure>
400d2abb:	0d0c      	movi.n	a13, 0
400d2abd:	73b8      	l32i.n	a11, a3, 28
400d2abf:	0a2d      	mov.n	a2, a10
400d2ac1:	2403a2        	l8ui	a10, a3, 36
400d2ac4:	0dcd      	mov.n	a12, a13
400d2ac6:	f56681        	l32r	a8, 400d0060 <_image_irom_vaddr+0x40>
400d2ac9:	0008e0        	callx8	a8
400d2acc:	83b8      	l32i.n	a11, a3, 32
400d2ace:	2403a2        	l8ui	a10, a3, 36
400d2ad1:	00a0c2        	movi	a12, 0
400d2ad4:	f61181        	l32r	a8, 400d0318 <_image_irom_vaddr+0x2f8>
400d2ad7:	0008e0        	callx8	a8
400d2ada:	1403b2        	l8ui	a11, a3, 20
400d2add:	e4a8      	l32i.n	a10, a4, 56
400d2adf:	1c0c      	movi.n	a12, 1
400d2ae1:	009765        	call8	400d3458 <gpio_pin_set>
400d2ae4:	e4a8      	l32i.n	a10, a4, 56
400d2ae6:	1403b2        	l8ui	a11, a3, 20
400d2ae9:	05cd      	mov.n	a12, a5
400d2aeb:	009465        	call8	400d3430 <z_impl_gpio_pin_configure>
400d2aee:	0d0c      	movi.n	a13, 0
400d2af0:	33b8      	l32i.n	a11, a3, 12
400d2af2:	202a20        	or	a2, a10, a2
400d2af5:	1403a2        	l8ui	a10, a3, 20
400d2af8:	0dcd      	mov.n	a12, a13
400d2afa:	f55981        	l32r	a8, 400d0060 <_image_irom_vaddr+0x40>
400d2afd:	0008e0        	callx8	a8
400d2b00:	43b8      	l32i.n	a11, a3, 16
400d2b02:	1403a2        	l8ui	a10, a3, 20
400d2b05:	0c0c      	movi.n	a12, 0
400d2b07:	f60481        	l32r	a8, 400d0318 <_image_irom_vaddr+0x2f8>
400d2b0a:	0008e0        	callx8	a8
400d2b0d:	f01d      	retw.n
	...

400d2b10 <i2c_esp32_recover>:
400d2b10:	004136        	entry	a1, 32
400d2b13:	042232        	l32i	a3, a2, 16
400d2b16:	18c332        	addi	a3, a3, 24
400d2b19:	f600c1        	l32r	a12, 400d031c <_image_irom_vaddr+0x2fc>
400d2b1c:	f600d1        	l32r	a13, 400d031c <_image_irom_vaddr+0x2fc>
400d2b1f:	03ad      	mov.n	a10, a3
400d2b21:	aee125        	call8	40081934 <z_impl_k_sem_take>
400d2b24:	02ad      	mov.n	a10, a2
400d2b26:	add9e5        	call8	400808c4 <i2c_hw_fsm_reset>
400d2b29:	03ad      	mov.n	a10, a3
400d2b2b:	aedce5        	call8	400818f8 <z_impl_k_sem_give>
400d2b2e:	020c      	movi.n	a2, 0
400d2b30:	f01d      	retw.n
	...

400d2b34 <uart_esp32_config_get>:
400d2b34:	006136        	entry	a1, 48
400d2b37:	4248      	l32i.n	a4, a2, 16
400d2b39:	b1cb      	addi.n	a11, a1, 12
400d2b3b:	0428      	l32i.n	a2, a4, 0
400d2b3d:	448b      	addi.n	a4, a4, 8
400d2b3f:	0329      	s32i.n	a2, a3, 0
400d2b41:	04ad      	mov.n	a10, a4
400d2b43:	0064e5        	call8	400d3190 <uart_hal_get_parity>
400d2b46:	3128      	l32i.n	a2, a1, 12
400d2b48:	0c2226        	beqi	a2, 2, 400d2b58 <uart_esp32_config_get+0x24>
400d2b4b:	073226        	beqi	a2, 3, 400d2b56 <uart_esp32_config_get+0x22>
400d2b4e:	628c      	beqz.n	a2, 400d2b58 <uart_esp32_config_get+0x24>
400d2b50:	7aaf22        	movi	a2, -134
400d2b53:	001686        	j	400d2bb1 <uart_esp32_config_get+0x7d>
400d2b56:	120c      	movi.n	a2, 1
400d2b58:	044322        	s8i	a2, a3, 4
400d2b5b:	08c1b2        	addi	a11, a1, 8
400d2b5e:	20a440        	or	a10, a4, a4
400d2b61:	0059a5        	call8	400d30fc <uart_hal_get_stop_bits>
400d2b64:	022122        	l32i	a2, a1, 8
400d2b67:	052226        	beqi	a2, 2, 400d2b70 <uart_esp32_config_get+0x3c>
400d2b6a:	023226        	beqi	a2, 3, 400d2b70 <uart_esp32_config_get+0x3c>
400d2b6d:	df1266        	bnei	a2, 1, 400d2b50 <uart_esp32_config_get+0x1c>
400d2b70:	054322        	s8i	a2, a3, 5
400d2b73:	04c1b2        	addi	a11, a1, 4
400d2b76:	20a440        	or	a10, a4, a4
400d2b79:	005ca5        	call8	400d3144 <uart_hal_get_data_bit_num>
400d2b7c:	012122        	l32i	a2, a1, 4
400d2b7f:	0a1226        	beqi	a2, 1, 400d2b8d <uart_esp32_config_get+0x59>
400d2b82:	728c      	beqz.n	a2, 400d2b8d <uart_esp32_config_get+0x59>
400d2b84:	052226        	beqi	a2, 2, 400d2b8d <uart_esp32_config_get+0x59>
400d2b87:	023226        	beqi	a2, 3, 400d2b8d <uart_esp32_config_get+0x59>
400d2b8a:	fff086        	j	400d2b50 <uart_esp32_config_get+0x1c>
400d2b8d:	064322        	s8i	a2, a3, 6
400d2b90:	20b110        	or	a11, a1, a1
400d2b93:	20a440        	or	a10, a4, a4
400d2b96:	0061a5        	call8	400d31b0 <uart_hal_get_hw_flow_ctrl>
400d2b99:	002122        	l32i	a2, a1, 0
400d2b9c:	428c      	beqz.n	a2, 400d2ba4 <uart_esp32_config_get+0x70>
400d2b9e:	083226        	beqi	a2, 3, 400d2baa <uart_esp32_config_get+0x76>
400d2ba1:	ffeac6        	j	400d2b50 <uart_esp32_config_get+0x1c>
400d2ba4:	074322        	s8i	a2, a3, 7
400d2ba7:	000186        	j	400d2bb1 <uart_esp32_config_get+0x7d>
400d2baa:	120c      	movi.n	a2, 1
400d2bac:	074322        	s8i	a2, a3, 7
400d2baf:	020c      	movi.n	a2, 0
400d2bb1:	f01d      	retw.n
	...

400d2bb4 <uart_esp32_poll_out>:
400d2bb4:	008136        	entry	a1, 64
400d2bb7:	0422a2        	l32i	a10, a2, 16
400d2bba:	104132        	s8i	a3, a1, 16
400d2bbd:	022a92        	l32i	a9, a10, 8
400d2bc0:	0020c0        	memw
400d2bc3:	072982        	l32i	a8, a9, 28
400d2bc6:	0020c0        	memw
400d2bc9:	006182        	s32i	a8, a1, 0
400d2bcc:	0020c0        	memw
400d2bcf:	020182        	l8ui	a8, a1, 2
400d2bd2:	748080        	extui	a8, a8, 0, 8
400d2bd5:	e7e826        	beqi	a8, 128, 400d2bc0 <uart_esp32_poll_out+0xc>
400d2bd8:	04c1d2        	addi	a13, a1, 4
400d2bdb:	1c0c      	movi.n	a12, 1
400d2bdd:	10c1b2        	addi	a11, a1, 16
400d2be0:	aa8b      	addi.n	a10, a10, 8
400d2be2:	fe4025        	call8	400d0fe4 <uart_hal_write_txfifo>
400d2be5:	f01d      	retw.n
	...

400d2be8 <uart_esp32_poll_in>:
400d2be8:	006136        	entry	a1, 48
400d2beb:	42a8      	l32i.n	a10, a2, 16
400d2bed:	120c      	movi.n	a2, 1
400d2bef:	2a88      	l32i.n	a8, a10, 8
400d2bf1:	2129      	s32i.n	a2, a1, 8
400d2bf3:	0020c0        	memw
400d2bf6:	7828      	l32i.n	a2, a8, 28
400d2bf8:	03bd      	mov.n	a11, a3
400d2bfa:	0020c0        	memw
400d2bfd:	0129      	s32i.n	a2, a1, 0
400d2bff:	0020c0        	memw
400d2c02:	000122        	l8ui	a2, a1, 0
400d2c05:	0020c0        	memw
400d2c08:	182882        	l32i	a8, a8, 96
400d2c0b:	742020        	extui	a2, a2, 0, 8
400d2c0e:	0020c0        	memw
400d2c11:	1189      	s32i.n	a8, a1, 4
400d2c13:	0020c0        	memw
400d2c16:	1188      	l32i.n	a8, a1, 4
400d2c18:	0020c0        	memw
400d2c1b:	1198      	l32i.n	a9, a1, 4
400d2c1d:	a48d80        	extui	a8, a8, 13, 11
400d2c20:	a49290        	extui	a9, a9, 2, 11
400d2c23:	12b987        	bgeu	a9, a8, 400d2c39 <uart_esp32_poll_in+0x51>
400d2c26:	0020c0        	memw
400d2c29:	1188      	l32i.n	a8, a1, 4
400d2c2b:	0020c0        	memw
400d2c2e:	1128      	l32i.n	a2, a1, 4
400d2c30:	a48d80        	extui	a8, a8, 13, 11
400d2c33:	a42220        	extui	a2, a2, 2, 11
400d2c36:	0009c6        	j	400d2c61 <uart_esp32_poll_in+0x79>
400d2c39:	0020c0        	memw
400d2c3c:	1198      	l32i.n	a9, a1, 4
400d2c3e:	0020c0        	memw
400d2c41:	1188      	l32i.n	a8, a1, 4
400d2c43:	a49d90        	extui	a9, a9, 13, 11
400d2c46:	a48280        	extui	a8, a8, 2, 11
400d2c49:	1bb987        	bgeu	a9, a8, 400d2c68 <uart_esp32_poll_in+0x80>
400d2c4c:	0020c0        	memw
400d2c4f:	1188      	l32i.n	a8, a1, 4
400d2c51:	0020c0        	memw
400d2c54:	1128      	l32i.n	a2, a1, 4
400d2c56:	a48d80        	extui	a8, a8, 13, 11
400d2c59:	80a092        	movi	a9, 128
400d2c5c:	a42220        	extui	a2, a2, 2, 11
400d2c5f:	889a      	add.n	a8, a8, a9
400d2c61:	c08820        	sub	a8, a8, a2
400d2c64:	0001c6        	j	400d2c6f <uart_esp32_poll_in+0x87>
400d2c67:	82cc00        	mull	a12, a12, a0
400d2c6a:	f27c      	movi.n	a2, -1
400d2c6c:	000406        	j	400d2c80 <uart_esp32_poll_in+0x98>
400d2c6f:	ffaf22        	movi	a2, -1
400d2c72:	a88c      	beqz.n	a8, 400d2c80 <uart_esp32_poll_in+0x98>
400d2c74:	08c1c2        	addi	a12, a1, 8
400d2c77:	08caa2        	addi	a10, a10, 8
400d2c7a:	fe3c65        	call8	400d1040 <uart_hal_read_rxfifo>
400d2c7d:	00a022        	movi	a2, 0
400d2c80:	f01d      	retw.n
	...

400d2c84 <uart_esp32_configure>:
400d2c84:	004136        	entry	a1, 32
400d2c87:	1248      	l32i.n	a4, a2, 4
400d2c89:	4228      	l32i.n	a2, a2, 16
400d2c8b:	14a8      	l32i.n	a10, a4, 4
400d2c8d:	004a56        	bnez	a10, 400d2c95 <uart_esp32_configure+0x11>
400d2c90:	a26c      	movi.n	a2, -22
400d2c92:	006786        	j	400d2e34 <uart_esp32_configure+0x1b0>
400d2c95:	032452        	l32i	a5, a4, 12
400d2c98:	ff4516        	beqz	a5, 400d2c90 <uart_esp32_configure+0xc>
400d2c9b:	ae9065        	call8	400815a0 <z_impl_device_get_binding>
400d2c9e:	205aa0        	or	a5, a10, a10
400d2ca1:	feba16        	beqz	a10, 400d2c90 <uart_esp32_configure+0xc>
400d2ca4:	080462        	l8ui	a6, a4, 8
400d2ca7:	01a0b2        	movi	a11, 1
400d2caa:	401600        	ssl	a6
400d2cad:	a1bb00        	sll	a11, a11
400d2cb0:	4a68      	l32i.n	a6, a10, 16
400d2cb2:	0668      	l32i.n	a6, a6, 0
400d2cb4:	068b67        	bany	a11, a6, 400d2cbe <uart_esp32_configure+0x3a>
400d2cb7:	2a68      	l32i.n	a6, a10, 8
400d2cb9:	3668      	l32i.n	a6, a6, 12
400d2cbb:	0000c6        	j	400d2cc2 <uart_esp32_configure+0x3e>
400d2cbe:	2a68      	l32i.n	a6, a10, 8
400d2cc0:	4668      	l32i.n	a6, a6, 16
400d2cc2:	05ad      	mov.n	a10, a5
400d2cc4:	0006e0        	callx8	a6
400d2cc7:	0804b2        	l8ui	a11, a4, 8
400d2cca:	f55761        	l32r	a6, 400d0228 <_image_irom_vaddr+0x208>
400d2ccd:	05ad      	mov.n	a10, a5
400d2ccf:	06cd      	mov.n	a12, a6
400d2cd1:	007b25        	call8	400d3484 <z_impl_gpio_pin_configure>
400d2cd4:	280482        	l8ui	a8, a4, 40
400d2cd7:	f59251        	l32r	a5, 400d0320 <_image_irom_vaddr+0x300>
400d2cda:	1178f0        	slli	a7, a8, 1
400d2cdd:	778a      	add.n	a7, a7, a8
400d2cdf:	1177e0        	slli	a7, a7, 2
400d2ce2:	757a      	add.n	a7, a5, a7
400d2ce4:	0d0c      	movi.n	a13, 0
400d2ce6:	0007b2        	l8ui	a11, a7, 0
400d2ce9:	24a8      	l32i.n	a10, a4, 8
400d2ceb:	0dcd      	mov.n	a12, a13
400d2ced:	f4dc81        	l32r	a8, 400d0060 <_image_irom_vaddr+0x40>
400d2cf0:	0008e0        	callx8	a8
400d2cf3:	34a8      	l32i.n	a10, a4, 12
400d2cf5:	ae8aa5        	call8	400815a0 <z_impl_device_get_binding>
400d2cf8:	f94a16        	beqz	a10, 400d2c90 <uart_esp32_configure+0xc>
400d2cfb:	1004b2        	l8ui	a11, a4, 16
400d2cfe:	f58971        	l32r	a7, 400d0324 <_image_irom_vaddr+0x304>
400d2d01:	07cd      	mov.n	a12, a7
400d2d03:	007825        	call8	400d3484 <z_impl_gpio_pin_configure>
400d2d06:	280492        	l8ui	a9, a4, 40
400d2d09:	44a8      	l32i.n	a10, a4, 16
400d2d0b:	1189f0        	slli	a8, a9, 1
400d2d0e:	889a      	add.n	a8, a8, a9
400d2d10:	1188e0        	slli	a8, a8, 2
400d2d13:	858a      	add.n	a8, a5, a8
400d2d15:	0108b2        	l8ui	a11, a8, 1
400d2d18:	0c0c      	movi.n	a12, 0
400d2d1a:	f57f81        	l32r	a8, 400d0318 <_image_irom_vaddr+0x2f8>
400d2d1d:	0008e0        	callx8	a8
400d2d20:	070382        	l8ui	a8, a3, 7
400d2d23:	5f1866        	bnei	a8, 1, 400d2d86 <uart_esp32_configure+0x102>
400d2d26:	052482        	l32i	a8, a4, 20
400d2d29:	f63816        	beqz	a8, 400d2c90 <uart_esp32_configure+0xc>
400d2d2c:	0724a2        	l32i	a10, a4, 28
400d2d2f:	f5da16        	beqz	a10, 400d2c90 <uart_esp32_configure+0xc>
400d2d32:	ae86e5        	call8	400815a0 <z_impl_device_get_binding>
400d2d35:	f57a16        	beqz	a10, 400d2c90 <uart_esp32_configure+0xc>
400d2d38:	2004b2        	l8ui	a11, a4, 32
400d2d3b:	07cd      	mov.n	a12, a7
400d2d3d:	007465        	call8	400d3484 <z_impl_gpio_pin_configure>
400d2d40:	280472        	l8ui	a7, a4, 40
400d2d43:	84a8      	l32i.n	a10, a4, 32
400d2d45:	1187f0        	slli	a8, a7, 1
400d2d48:	887a      	add.n	a8, a8, a7
400d2d4a:	1188e0        	slli	a8, a8, 2
400d2d4d:	858a      	add.n	a8, a5, a8
400d2d4f:	0308b2        	l8ui	a11, a8, 3
400d2d52:	0c0c      	movi.n	a12, 0
400d2d54:	f57181        	l32r	a8, 400d0318 <_image_irom_vaddr+0x2f8>
400d2d57:	0008e0        	callx8	a8
400d2d5a:	54a8      	l32i.n	a10, a4, 20
400d2d5c:	ae8425        	call8	400815a0 <z_impl_device_get_binding>
400d2d5f:	f2da16        	beqz	a10, 400d2c90 <uart_esp32_configure+0xc>
400d2d62:	1804b2        	l8ui	a11, a4, 24
400d2d65:	06cd      	mov.n	a12, a6
400d2d67:	0071e5        	call8	400d3484 <z_impl_gpio_pin_configure>
400d2d6a:	280472        	l8ui	a7, a4, 40
400d2d6d:	0d0c      	movi.n	a13, 0
400d2d6f:	1167f0        	slli	a6, a7, 1
400d2d72:	667a      	add.n	a6, a6, a7
400d2d74:	1166e0        	slli	a6, a6, 2
400d2d77:	556a      	add.n	a5, a5, a6
400d2d79:	0205b2        	l8ui	a11, a5, 2
400d2d7c:	64a8      	l32i.n	a10, a4, 24
400d2d7e:	0dcd      	mov.n	a12, a13
400d2d80:	f4b881        	l32r	a8, 400d0060 <_image_irom_vaddr+0x40>
400d2d83:	0008e0        	callx8	a8
400d2d86:	0458      	l32i.n	a5, a4, 0
400d2d88:	9468      	l32i.n	a6, a4, 36
400d2d8a:	05ad      	mov.n	a10, a5
400d2d8c:	af6ce5        	call8	4008245c <z_device_is_ready>
400d2d8f:	9a8c      	beqz.n	a10, 400d2d9c <uart_esp32_configure+0x118>
400d2d91:	2548      	l32i.n	a4, a5, 8
400d2d93:	06bd      	mov.n	a11, a6
400d2d95:	0448      	l32i.n	a4, a4, 0
400d2d97:	05ad      	mov.n	a10, a5
400d2d99:	0004e0        	callx8	a4
400d2d9c:	428b      	addi.n	a4, a2, 8
400d2d9e:	0b0c      	movi.n	a11, 0
400d2da0:	04ad      	mov.n	a10, a4
400d2da2:	fe08e5        	call8	400d0e30 <uart_hal_set_sclk>
400d2da5:	6b1c      	movi.n	a11, 22
400d2da7:	04ad      	mov.n	a10, a4
400d2da9:	004265        	call8	400d31d0 <uart_hal_set_rxfifo_full_thr>
400d2dac:	1b0c      	movi.n	a11, 1
400d2dae:	04ad      	mov.n	a10, a4
400d2db0:	fe1565        	call8	400d0f08 <uart_hal_set_txfifo_empty_thr>
400d2db3:	04ad      	mov.n	a10, a4
400d2db5:	fe1d65        	call8	400d0f8c <uart_hal_rxfifo_rst>
400d2db8:	040322        	l8ui	a2, a3, 4
400d2dbb:	131226        	beqi	a2, 1, 400d2dd2 <uart_esp32_configure+0x14e>
400d2dbe:	23b200        	sext	a11, a2, 7
400d2dc1:	fb8c      	beqz.n	a11, 400d2dd4 <uart_esp32_configure+0x150>
400d2dc3:	052226        	beqi	a2, 2, 400d2dcc <uart_esp32_configure+0x148>
400d2dc6:	7aaf22        	movi	a2, -134
400d2dc9:	0019c6        	j	400d2e34 <uart_esp32_configure+0x1b0>
400d2dcc:	02bd      	mov.n	a11, a2
400d2dce:	000086        	j	400d2dd4 <uart_esp32_configure+0x150>
400d2dd1:	3b0c00        	ueq.s	b0, f12, f0
400d2dd4:	04ad      	mov.n	a10, a4
400d2dd6:	003825        	call8	400d3158 <uart_hal_set_parity>
400d2dd9:	0503b2        	l8ui	a11, a3, 5
400d2ddc:	052b26        	beqi	a11, 2, 400d2de5 <uart_esp32_configure+0x161>
400d2ddf:	023b26        	beqi	a11, 3, 400d2de5 <uart_esp32_configure+0x161>
400d2de2:	e01b66        	bnei	a11, 1, 400d2dc6 <uart_esp32_configure+0x142>
400d2de5:	04ad      	mov.n	a10, a4
400d2de7:	002be5        	call8	400d30a4 <uart_hal_set_stop_bits>
400d2dea:	0603b2        	l8ui	a11, a3, 6
400d2ded:	111b26        	beqi	a11, 1, 400d2e02 <uart_esp32_configure+0x17e>
400d2df0:	232b00        	sext	a2, a11, 7
400d2df3:	928c      	beqz.n	a2, 400d2e00 <uart_esp32_configure+0x17c>
400d2df5:	092b26        	beqi	a11, 2, 400d2e02 <uart_esp32_configure+0x17e>
400d2df8:	063b26        	beqi	a11, 3, 400d2e02 <uart_esp32_configure+0x17e>
400d2dfb:	fff1c6        	j	400d2dc6 <uart_esp32_configure+0x142>
400d2dfe:	bd0000        	lsi	f0, a0, 0x2f4
400d2e01:	04ad02        	movi	a0, 0xfffffd04
400d2e04:	0031e5        	call8	400d3124 <uart_hal_set_data_bit_num>
400d2e07:	0703b2        	l8ui	a11, a3, 7
400d2e0a:	7b8c      	beqz.n	a11, 400d2e15 <uart_esp32_configure+0x191>
400d2e0c:	0a1b26        	beqi	a11, 1, 400d2e1a <uart_esp32_configure+0x196>
400d2e0f:	ffecc6        	j	400d2dc6 <uart_esp32_configure+0x142>
400d2e12:	000000        	ill
400d2e15:	0bcd      	mov.n	a12, a11
400d2e17:	000106        	j	400d2e1f <uart_esp32_configure+0x19b>
400d2e1a:	0aa0c2        	movi	a12, 10
400d2e1d:	3b0c      	movi.n	a11, 3
400d2e1f:	04ad      	mov.n	a10, a4
400d2e21:	fe0825        	call8	400d0ea4 <uart_hal_set_hw_flow_ctrl>
400d2e24:	03b8      	l32i.n	a11, a3, 0
400d2e26:	04ad      	mov.n	a10, a4
400d2e28:	fe02a5        	call8	400d0e54 <uart_hal_set_baudrate>
400d2e2b:	6b1c      	movi.n	a11, 22
400d2e2d:	04ad      	mov.n	a10, a4
400d2e2f:	fe0fa5        	call8	400d0f28 <uart_hal_set_rx_timeout>
400d2e32:	020c      	movi.n	a2, 0
400d2e34:	f01d      	retw.n
	...

400d2e38 <uart_esp32_init>:
400d2e38:	004136        	entry	a1, 32
400d2e3b:	0422b2        	l32i	a11, a2, 16
400d2e3e:	20a220        	or	a10, a2, a2
400d2e41:	ffe425        	call8	400d2c84 <uart_esp32_configure>
400d2e44:	202aa0        	or	a2, a10, a10
400d2e47:	f01d      	retw.n
400d2e49:	000000        	ill

400d2e4c <_OffsetAbsSyms>:
400d2e4c:	004136        	entry	a1, 32
400d2e4f:	f01d      	retw.n
400d2e51:	000000        	ill

400d2e54 <_ConfigAbsSyms>:
400d2e54:	004136        	entry	a1, 32
400d2e57:	f01d      	retw.n
400d2e59:	000000        	ill

400d2e5c <sys_trace_idle>:
400d2e5c:	004136        	entry	a1, 32
400d2e5f:	f01d      	retw.n
400d2e61:	000000        	ill

400d2e64 <pinmux_initialize>:
400d2e64:	004136        	entry	a1, 32
400d2e67:	020c      	movi.n	a2, 0
400d2e69:	f01d      	retw.n
	...

400d2e6c <i2c_ll_master_get_event>:
400d2e6c:	006136        	entry	a1, 48
400d2e6f:	0020c0        	memw
400d2e72:	b288      	l32i.n	a8, a2, 44
400d2e74:	0020c0        	memw
400d2e77:	0189      	s32i.n	a8, a1, 0
400d2e79:	0020c0        	memw
400d2e7c:	0188      	l32i.n	a8, a1, 0
400d2e7e:	066857        	bbci	a8, 5, 400d2e88 <i2c_ll_master_get_event+0x1c>
400d2e81:	180c      	movi.n	a8, 1
400d2e83:	000d86        	j	400d2ebd <i2c_ll_master_get_event+0x51>
400d2e86:	c00000        	sub	a0, a0, a0
400d2e89:	880020        	lsi	f2, a0, 0x220
400d2e8c:	68a701        	l32r	a0, 400ad128 <_iram_end+0x29eec>
400d2e8f:	280c04        	lsi	f0, a12, 160
400d2e92:	0009c6        	j	400d2ebd <i2c_ll_master_get_event+0x51>
400d2e95:	0020c0        	memw
400d2e98:	0188      	l32i.n	a8, a1, 0
400d2e9a:	066887        	bbci	a8, 8, 400d2ea4 <i2c_ll_master_get_event+0x38>
400d2e9d:	380c      	movi.n	a8, 3
400d2e9f:	000686        	j	400d2ebd <i2c_ll_master_get_event+0x51>
400d2ea2:	c00000        	sub	a0, a0, a0
400d2ea5:	880020        	lsi	f2, a0, 0x220
400d2ea8:	683701        	l32r	a0, 400acf84 <_iram_end+0x29d48>
400d2eab:	480c04        	mula.da.ll.ldinc	m0, a12, m0, a0
400d2eae:	0002c6        	j	400d2ebd <i2c_ll_master_get_event+0x51>
400d2eb1:	0020c0        	memw
400d2eb4:	0188      	l32i.n	a8, a1, 0
400d2eb6:	048780        	extui	a8, a8, 7, 1
400d2eb9:	088c      	beqz.n	a8, 400d2ebd <i2c_ll_master_get_event+0x51>
400d2ebb:	580c      	movi.n	a8, 5
400d2ebd:	0389      	s32i.n	a8, a3, 0
400d2ebf:	f01d      	retw.n
400d2ec1:	000000        	ill

400d2ec4 <i2c_hal_set_data_mode>:
400d2ec4:	004136        	entry	a1, 32
400d2ec7:	0288      	l32i.n	a8, a2, 0
400d2ec9:	043030        	extui	a3, a3, 0, 1
400d2ecc:	1193a0        	slli	a9, a3, 6
400d2ecf:	0020c0        	memw
400d2ed2:	1838      	l32i.n	a3, a8, 4
400d2ed4:	bfafa2        	movi	a10, -65
400d2ed7:	1033a0        	and	a3, a3, a10
400d2eda:	203390        	or	a3, a3, a9
400d2edd:	0020c0        	memw
400d2ee0:	1839      	s32i.n	a3, a8, 4
400d2ee2:	044040        	extui	a4, a4, 0, 1
400d2ee5:	113490        	slli	a3, a4, 7
400d2ee8:	0020c0        	memw
400d2eeb:	1848      	l32i.n	a4, a8, 4
400d2eed:	7faf92        	movi	a9, -129
400d2ef0:	104490        	and	a4, a4, a9
400d2ef3:	204430        	or	a4, a4, a3
400d2ef6:	0020c0        	memw
400d2ef9:	1849      	s32i.n	a4, a8, 4
400d2efb:	f01d      	retw.n
400d2efd:	000000        	ill

400d2f00 <i2c_hal_set_filter>:
400d2f00:	004136        	entry	a1, 32
400d2f03:	743030        	extui	a3, a3, 0, 8
400d2f06:	0288      	l32i.n	a8, a2, 0
400d2f08:	045316        	beqz	a3, 400d2f51 <i2c_hal_set_filter+0x51>
400d2f0b:	0020c0        	memw
400d2f0e:	1428a2        	l32i	a10, a8, 80
400d2f11:	8b7c      	movi.n	a11, -8
400d2f13:	249030        	extui	a9, a3, 0, 3
400d2f16:	10aab0        	and	a10, a10, a11
400d2f19:	20aa90        	or	a10, a10, a9
400d2f1c:	0020c0        	memw
400d2f1f:	1468a2        	s32i	a10, a8, 80
400d2f22:	0020c0        	memw
400d2f25:	152832        	l32i	a3, a8, 84
400d2f28:	8a0c      	movi.n	a10, 8
400d2f2a:	1033b0        	and	a3, a3, a11
400d2f2d:	203390        	or	a3, a3, a9
400d2f30:	0020c0        	memw
400d2f33:	156832        	s32i	a3, a8, 84
400d2f36:	0020c0        	memw
400d2f39:	142892        	l32i	a9, a8, 80
400d2f3c:	2099a0        	or	a9, a9, a10
400d2f3f:	0020c0        	memw
400d2f42:	146892        	s32i	a9, a8, 80
400d2f45:	0020c0        	memw
400d2f48:	152832        	l32i	a3, a8, 84
400d2f4b:	2033a0        	or	a3, a3, a10
400d2f4e:	000646        	j	400d2f6b <i2c_hal_set_filter+0x6b>
400d2f51:	0020c0        	memw
400d2f54:	142892        	l32i	a9, a8, 80
400d2f57:	7a7c      	movi.n	a10, -9
400d2f59:	1099a0        	and	a9, a9, a10
400d2f5c:	0020c0        	memw
400d2f5f:	146892        	s32i	a9, a8, 80
400d2f62:	0020c0        	memw
400d2f65:	152832        	l32i	a3, a8, 84
400d2f68:	1033a0        	and	a3, a3, a10
400d2f6b:	0020c0        	memw
400d2f6e:	156832        	s32i	a3, a8, 84
400d2f71:	f01d      	retw.n
	...

400d2f74 <i2c_hal_get_filter>:
400d2f74:	004136        	entry	a1, 32
400d2f77:	0288      	l32i.n	a8, a2, 0
400d2f79:	0020c0        	memw
400d2f7c:	152882        	l32i	a8, a8, 84
400d2f7f:	248080        	extui	a8, a8, 0, 3
400d2f82:	004382        	s8i	a8, a3, 0
400d2f85:	f01d      	retw.n
	...

400d2f88 <i2c_hal_clr_intsts_mask>:
400d2f88:	004136        	entry	a1, 32
400d2f8b:	0288      	l32i.n	a8, a2, 0
400d2f8d:	0020c0        	memw
400d2f90:	9839      	s32i.n	a3, a8, 36
400d2f92:	f01d      	retw.n

400d2f94 <i2c_hal_disable_intr_mask>:
400d2f94:	004136        	entry	a1, 32
400d2f97:	0298      	l32i.n	a9, a2, 0
400d2f99:	f87c      	movi.n	a8, -1
400d2f9b:	0020c0        	memw
400d2f9e:	a9a8      	l32i.n	a10, a9, 40
400d2fa0:	303830        	xor	a3, a8, a3
400d2fa3:	1033a0        	and	a3, a3, a10
400d2fa6:	0020c0        	memw
400d2fa9:	a939      	s32i.n	a3, a9, 40
400d2fab:	f01d      	retw.n
400d2fad:	000000        	ill

400d2fb0 <i2c_hal_set_start_timing>:
400d2fb0:	004136        	entry	a1, 32
400d2fb3:	02a8      	l32i.n	a10, a2, 0
400d2fb5:	00acb2        	movi	a11, 0xfffffc00
400d2fb8:	0020c0        	memw
400d2fbb:	112a92        	l32i	a9, a10, 68
400d2fbe:	943030        	extui	a3, a3, 0, 10
400d2fc1:	1099b0        	and	a9, a9, a11
400d2fc4:	209930        	or	a9, a9, a3
400d2fc7:	0020c0        	memw
400d2fca:	116a92        	s32i	a9, a10, 68
400d2fcd:	0020c0        	memw
400d2fd0:	102a82        	l32i	a8, a10, 64
400d2fd3:	944040        	extui	a4, a4, 0, 10
400d2fd6:	1088b0        	and	a8, a8, a11
400d2fd9:	208840        	or	a8, a8, a4
400d2fdc:	0020c0        	memw
400d2fdf:	106a82        	s32i	a8, a10, 64
400d2fe2:	f01d      	retw.n

400d2fe4 <i2c_hal_set_sda_timing>:
400d2fe4:	004136        	entry	a1, 32
400d2fe7:	02a8      	l32i.n	a10, a2, 0
400d2fe9:	00acb2        	movi	a11, 0xfffffc00
400d2fec:	0020c0        	memw
400d2fef:	ca98      	l32i.n	a9, a10, 48
400d2ff1:	944040        	extui	a4, a4, 0, 10
400d2ff4:	1099b0        	and	a9, a9, a11
400d2ff7:	209940        	or	a9, a9, a4
400d2ffa:	0020c0        	memw
400d2ffd:	ca99      	s32i.n	a9, a10, 48
400d2fff:	0020c0        	memw
400d3002:	da88      	l32i.n	a8, a10, 52
400d3004:	943030        	extui	a3, a3, 0, 10
400d3007:	1088b0        	and	a8, a8, a11
400d300a:	208830        	or	a8, a8, a3
400d300d:	0020c0        	memw
400d3010:	da89      	s32i.n	a8, a10, 52
400d3012:	f01d      	retw.n

400d3014 <i2c_hal_is_bus_busy>:
400d3014:	004136        	entry	a1, 32
400d3017:	0228      	l32i.n	a2, a2, 0
400d3019:	0020c0        	memw
400d301c:	2228      	l32i.n	a2, a2, 8
400d301e:	042420        	extui	a2, a2, 4, 1
400d3021:	f01d      	retw.n
	...

400d3024 <i2c_hal_get_sda_timing>:
400d3024:	004136        	entry	a1, 32
400d3027:	0298      	l32i.n	a9, a2, 0
400d3029:	0020c0        	memw
400d302c:	c988      	l32i.n	a8, a9, 48
400d302e:	948080        	extui	a8, a8, 0, 10
400d3031:	0489      	s32i.n	a8, a4, 0
400d3033:	0020c0        	memw
400d3036:	d988      	l32i.n	a8, a9, 52
400d3038:	948080        	extui	a8, a8, 0, 10
400d303b:	0389      	s32i.n	a8, a3, 0
400d303d:	f01d      	retw.n
	...

400d3040 <i2c_hal_get_start_timing>:
400d3040:	004136        	entry	a1, 32
400d3043:	0298      	l32i.n	a9, a2, 0
400d3045:	0020c0        	memw
400d3048:	112982        	l32i	a8, a9, 68
400d304b:	948080        	extui	a8, a8, 0, 10
400d304e:	0389      	s32i.n	a8, a3, 0
400d3050:	0020c0        	memw
400d3053:	102982        	l32i	a8, a9, 64
400d3056:	948080        	extui	a8, a8, 0, 10
400d3059:	0489      	s32i.n	a8, a4, 0
400d305b:	f01d      	retw.n
400d305d:	000000        	ill

400d3060 <i2c_hal_get_stop_timing>:
400d3060:	004136        	entry	a1, 32
400d3063:	0298      	l32i.n	a9, a2, 0
400d3065:	0020c0        	memw
400d3068:	132982        	l32i	a8, a9, 76
400d306b:	948080        	extui	a8, a8, 0, 10
400d306e:	0389      	s32i.n	a8, a3, 0
400d3070:	0020c0        	memw
400d3073:	122982        	l32i	a8, a9, 72
400d3076:	d48080        	extui	a8, a8, 0, 14
400d3079:	0489      	s32i.n	a8, a4, 0
400d307b:	f01d      	retw.n
400d307d:	000000        	ill

400d3080 <i2c_hal_get_scl_timing>:
400d3080:	004136        	entry	a1, 32
400d3083:	0298      	l32i.n	a9, a2, 0
400d3085:	0020c0        	memw
400d3088:	e988      	l32i.n	a8, a9, 56
400d308a:	d48080        	extui	a8, a8, 0, 14
400d308d:	0389      	s32i.n	a8, a3, 0
400d308f:	0020c0        	memw
400d3092:	0988      	l32i.n	a8, a9, 0
400d3094:	d48080        	extui	a8, a8, 0, 14
400d3097:	0489      	s32i.n	a8, a4, 0
400d3099:	f01d      	retw.n
	...

400d309c <i2c_hal_update_config>:
400d309c:	004136        	entry	a1, 32
400d309f:	f01d      	retw.n
400d30a1:	000000        	ill

400d30a4 <uart_hal_set_stop_bits>:
400d30a4:	004136        	entry	a1, 32
400d30a7:	0288      	l32i.n	a8, a2, 0
400d30a9:	203366        	bnei	a3, 3, 400d30cd <uart_hal_set_stop_bits+0x29>
400d30ac:	0020c0        	memw
400d30af:	112832        	l32i	a3, a8, 68
400d30b2:	490c      	movi.n	a9, 4
400d30b4:	203390        	or	a3, a3, a9
400d30b7:	0020c0        	memw
400d30ba:	116832        	s32i	a3, a8, 68
400d30bd:	0020c0        	memw
400d30c0:	8838      	l32i.n	a3, a8, 32
400d30c2:	cfaf92        	movi	a9, -49
400d30c5:	103390        	and	a3, a3, a9
400d30c8:	091c      	movi.n	a9, 16
400d30ca:	000846        	j	400d30ef <uart_hal_set_stop_bits+0x4b>
400d30cd:	0020c0        	memw
400d30d0:	112892        	l32i	a9, a8, 68
400d30d3:	ba7c      	movi.n	a10, -5
400d30d5:	1099a0        	and	a9, a9, a10
400d30d8:	0020c0        	memw
400d30db:	116892        	s32i	a9, a8, 68
400d30de:	0020c0        	memw
400d30e1:	8898      	l32i.n	a9, a8, 32
400d30e3:	143030        	extui	a3, a3, 0, 2
400d30e6:	cfafa2        	movi	a10, -49
400d30e9:	1133c0        	slli	a3, a3, 4
400d30ec:	1099a0        	and	a9, a9, a10
400d30ef:	203930        	or	a3, a9, a3
400d30f2:	0020c0        	memw
400d30f5:	8839      	s32i.n	a3, a8, 32
400d30f7:	f01d      	retw.n
400d30f9:	000000        	ill

400d30fc <uart_hal_get_stop_bits>:
400d30fc:	004136        	entry	a1, 32
400d30ff:	0298      	l32i.n	a9, a2, 0
400d3101:	0020c0        	memw
400d3104:	112982        	l32i	a8, a9, 68
400d3107:	0d6827        	bbci	a8, 2, 400d3118 <uart_hal_get_stop_bits+0x1c>
400d310a:	0020c0        	memw
400d310d:	89a8      	l32i.n	a10, a9, 32
400d310f:	03a082        	movi	a8, 3
400d3112:	14a4a0        	extui	a10, a10, 4, 2
400d3115:	071a26        	beqi	a10, 1, 400d3120 <uart_hal_get_stop_bits+0x24>
400d3118:	0020c0        	memw
400d311b:	8988      	l32i.n	a8, a9, 32
400d311d:	148480        	extui	a8, a8, 4, 2
400d3120:	0389      	s32i.n	a8, a3, 0
400d3122:	f01d      	retw.n

400d3124 <uart_hal_set_data_bit_num>:
400d3124:	004136        	entry	a1, 32
400d3127:	0298      	l32i.n	a9, a2, 0
400d3129:	143030        	extui	a3, a3, 0, 2
400d312c:	1183e0        	slli	a8, a3, 2
400d312f:	0020c0        	memw
400d3132:	8938      	l32i.n	a3, a9, 32
400d3134:	3a7c      	movi.n	a10, -13
400d3136:	1033a0        	and	a3, a3, a10
400d3139:	203380        	or	a3, a3, a8
400d313c:	0020c0        	memw
400d313f:	8939      	s32i.n	a3, a9, 32
400d3141:	f01d      	retw.n
	...

400d3144 <uart_hal_get_data_bit_num>:
400d3144:	004136        	entry	a1, 32
400d3147:	0288      	l32i.n	a8, a2, 0
400d3149:	0020c0        	memw
400d314c:	8888      	l32i.n	a8, a8, 32
400d314e:	148280        	extui	a8, a8, 2, 2
400d3151:	0389      	s32i.n	a8, a3, 0
400d3153:	f01d      	retw.n
400d3155:	000000        	ill

400d3158 <uart_hal_set_parity>:
400d3158:	004136        	entry	a1, 32
400d315b:	02a8      	l32i.n	a10, a2, 0
400d315d:	339c      	beqz.n	a3, 400d3174 <uart_hal_set_parity+0x1c>
400d315f:	0020c0        	memw
400d3162:	8a98      	l32i.n	a9, a10, 32
400d3164:	eb7c      	movi.n	a11, -2
400d3166:	048030        	extui	a8, a3, 0, 1
400d3169:	1099b0        	and	a9, a9, a11
400d316c:	208980        	or	a8, a9, a8
400d316f:	0020c0        	memw
400d3172:	8a89      	s32i.n	a8, a10, 32
400d3174:	0020c0        	memw
400d3177:	8a88      	l32i.n	a8, a10, 32
400d3179:	043130        	extui	a3, a3, 1, 1
400d317c:	d97c      	movi.n	a9, -3
400d317e:	1133f0        	slli	a3, a3, 1
400d3181:	108890        	and	a8, a8, a9
400d3184:	203830        	or	a3, a8, a3
400d3187:	0020c0        	memw
400d318a:	8a39      	s32i.n	a3, a10, 32
400d318c:	f01d      	retw.n
	...

400d3190 <uart_hal_get_parity>:
400d3190:	004136        	entry	a1, 32
400d3193:	0298      	l32i.n	a9, a2, 0
400d3195:	080c      	movi.n	a8, 0
400d3197:	0020c0        	memw
400d319a:	89a8      	l32i.n	a10, a9, 32
400d319c:	0c6a17        	bbci	a10, 1, 400d31ac <uart_hal_get_parity+0x1c>
400d319f:	0020c0        	memw
400d31a2:	8988      	l32i.n	a8, a9, 32
400d31a4:	290c      	movi.n	a9, 2
400d31a6:	048080        	extui	a8, a8, 0, 1
400d31a9:	208890        	or	a8, a8, a9
400d31ac:	0389      	s32i.n	a8, a3, 0
400d31ae:	f01d      	retw.n

400d31b0 <uart_hal_get_hw_flow_ctrl>:
400d31b0:	004136        	entry	a1, 32
400d31b3:	0298      	l32i.n	a9, a2, 0
400d31b5:	0020c0        	memw
400d31b8:	9988      	l32i.n	a8, a9, 36
400d31ba:	058780        	extui	a8, a8, 23, 1
400d31bd:	0389      	s32i.n	a8, a3, 0
400d31bf:	0020c0        	memw
400d31c2:	8998      	l32i.n	a9, a9, 32
400d31c4:	0669f7        	bbci	a9, 15, 400d31ce <uart_hal_get_hw_flow_ctrl+0x1e>
400d31c7:	290c      	movi.n	a9, 2
400d31c9:	208890        	or	a8, a8, a9
400d31cc:	0389      	s32i.n	a8, a3, 0
400d31ce:	f01d      	retw.n

400d31d0 <uart_hal_set_rxfifo_full_thr>:
400d31d0:	004136        	entry	a1, 32
400d31d3:	0298      	l32i.n	a9, a2, 0
400d31d5:	80afa2        	movi	a10, -128
400d31d8:	0020c0        	memw
400d31db:	9988      	l32i.n	a8, a9, 36
400d31dd:	643030        	extui	a3, a3, 0, 7
400d31e0:	1088a0        	and	a8, a8, a10
400d31e3:	208830        	or	a8, a8, a3
400d31e6:	0020c0        	memw
400d31e9:	9989      	s32i.n	a8, a9, 36
400d31eb:	f01d      	retw.n
400d31ed:	000000        	ill

400d31f0 <uart_hal_get_symb_len>:
400d31f0:	004136        	entry	a1, 32
400d31f3:	0298      	l32i.n	a9, a2, 0
400d31f5:	0020c0        	memw
400d31f8:	8928      	l32i.n	a2, a9, 32
400d31fa:	0020c0        	memw
400d31fd:	112982        	l32i	a8, a9, 68
400d3200:	142220        	extui	a2, a2, 2, 2
400d3203:	0d6827        	bbci	a8, 2, 400d3214 <uart_hal_get_symb_len+0x24>
400d3206:	0020c0        	memw
400d3209:	8988      	l32i.n	a8, a9, 32
400d320b:	03a0a2        	movi	a10, 3
400d320e:	148480        	extui	a8, a8, 4, 2
400d3211:	081826        	beqi	a8, 1, 400d321d <uart_hal_get_symb_len+0x2d>
400d3214:	0020c0        	memw
400d3217:	0829a2        	l32i	a10, a9, 32
400d321a:	14a4a0        	extui	a10, a10, 4, 2
400d321d:	0020c0        	memw
400d3220:	89b8      	l32i.n	a11, a9, 32
400d3222:	080c      	movi.n	a8, 0
400d3224:	0d6b17        	bbci	a11, 1, 400d3235 <uart_hal_get_symb_len+0x45>
400d3227:	0020c0        	memw
400d322a:	8988      	l32i.n	a8, a9, 32
400d322c:	02a092        	movi	a9, 2
400d322f:	048080        	extui	a8, a8, 0, 1
400d3232:	208890        	or	a8, a8, a9
400d3235:	290c      	movi.n	a9, 2
400d3237:	226b      	addi.n	a2, a2, 6
400d3239:	1b0c      	movi.n	a11, 1
400d323b:	01ba97        	bgeu	a10, a9, 400d3240 <uart_hal_get_symb_len+0x50>
400d323e:	0b9d      	mov.n	a9, a11
400d3240:	0a0c      	movi.n	a10, 0
400d3242:	93ab80        	movnez	a10, a11, a8
400d3245:	22aa      	add.n	a2, a2, a10
400d3247:	229a      	add.n	a2, a2, a9
400d3249:	742020        	extui	a2, a2, 0, 8
400d324c:	f01d      	retw.n
	...

400d3250 <_stdout_hook_default>:
400d3250:	004136        	entry	a1, 32
400d3253:	f27c      	movi.n	a2, -1
400d3255:	f01d      	retw.n
	...

400d3258 <gpio_pin_set$constprop$1>:
400d3258:	004136        	entry	a1, 32
400d325b:	4288      	l32i.n	a8, a2, 16
400d325d:	1b0c      	movi.n	a11, 1
400d325f:	0888      	l32i.n	a8, a8, 0
400d3261:	401300        	ssl	a3
400d3264:	a1bb00        	sll	a11, a11
400d3267:	02ad      	mov.n	a10, a2
400d3269:	088b87        	bany	a11, a8, 400d3275 <gpio_pin_set$constprop$1+0x1d>
400d326c:	2288      	l32i.n	a8, a2, 8
400d326e:	4888      	l32i.n	a8, a8, 16
400d3270:	000146        	j	400d3279 <gpio_pin_set$constprop$1+0x21>
400d3273:	880000        	lsi	f0, a0, 0x220
400d3276:	388822        	lsi	f2, a8, 224
400d3279:	0008e0        	callx8	a8
400d327c:	0a2d      	mov.n	a2, a10
400d327e:	f01d      	retw.n

400d3280 <clock_control_esp32_async_on>:
400d3280:	004136        	entry	a1, 32
400d3283:	7aaf22        	movi	a2, -134
400d3286:	f01d      	retw.n

400d3288 <gpio_esp32_port_get_raw>:
400d3288:	004136        	entry	a1, 32
400d328b:	1298      	l32i.n	a9, a2, 4
400d328d:	2988      	l32i.n	a8, a9, 8
400d328f:	3998      	l32i.n	a9, a9, 12
400d3291:	79cc      	bnez.n	a9, 400d329c <gpio_esp32_port_get_raw+0x14>
400d3293:	0020c0        	memw
400d3296:	f888      	l32i.n	a8, a8, 60
400d3298:	000246        	j	400d32a5 <gpio_esp32_port_get_raw+0x1d>
400d329b:	20c000        	or	a12, a0, a0
400d329e:	088200        	lsx	f8, a2, a0
400d32a1:	808040        	add	a8, a0, a4
400d32a4:	038974        	lsi	f7, a9, 12
400d32a7:	020c      	movi.n	a2, 0
400d32a9:	f01d      	retw.n
	...

400d32ac <gpio_esp32_port_set_masked_raw>:
400d32ac:	004136        	entry	a1, 32
400d32af:	1288      	l32i.n	a8, a2, 4
400d32b1:	0063a0        	rsil	a10, 3
400d32b4:	38b8      	l32i.n	a11, a8, 12
400d32b6:	2898      	l32i.n	a9, a8, 8
400d32b8:	4bdc      	bnez.n	a11, 400d32d0 <gpio_esp32_port_set_masked_raw+0x24>
400d32ba:	0020c0        	memw
400d32bd:	1988      	l32i.n	a8, a9, 4
400d32bf:	304840        	xor	a4, a8, a4
400d32c2:	104430        	and	a4, a4, a3
400d32c5:	304480        	xor	a4, a4, a8
400d32c8:	0020c0        	memw
400d32cb:	1949      	s32i.n	a4, a9, 4
400d32cd:	000686        	j	400d32eb <gpio_esp32_port_set_masked_raw+0x3f>
400d32d0:	0020c0        	memw
400d32d3:	100982        	l8ui	a8, a9, 16
400d32d6:	748080        	extui	a8, a8, 0, 8
400d32d9:	304840        	xor	a4, a8, a4
400d32dc:	104430        	and	a4, a4, a3
400d32df:	304840        	xor	a4, a8, a4
400d32e2:	744040        	extui	a4, a4, 0, 8
400d32e5:	0020c0        	memw
400d32e8:	104942        	s8i	a4, a9, 16
400d32eb:	13e6a0        	wsr.ps	a10
400d32ee:	002010        	rsync
400d32f1:	020c      	movi.n	a2, 0
400d32f3:	f01d      	retw.n
400d32f5:	000000        	ill

400d32f8 <gpio_esp32_port_set_bits_raw>:
400d32f8:	004136        	entry	a1, 32
400d32fb:	1298      	l32i.n	a9, a2, 4
400d32fd:	2988      	l32i.n	a8, a9, 8
400d32ff:	3998      	l32i.n	a9, a9, 12
400d3301:	79cc      	bnez.n	a9, 400d330c <gpio_esp32_port_set_bits_raw+0x14>
400d3303:	0020c0        	memw
400d3306:	2839      	s32i.n	a3, a8, 8
400d3308:	000246        	j	400d3315 <gpio_esp32_port_set_bits_raw+0x1d>
400d330b:	303000        	xor	a3, a0, a0
400d330e:	20c074        	lsi	f7, a0, 128
400d3311:	483200        	ssx	f3, a2, a0
400d3314:	020c14        	lsi	f1, a12, 8
400d3317:	f01d      	retw.n
400d3319:	000000        	ill

400d331c <gpio_esp32_port_clear_bits_raw>:
400d331c:	004136        	entry	a1, 32
400d331f:	1298      	l32i.n	a9, a2, 4
400d3321:	2988      	l32i.n	a8, a9, 8
400d3323:	3998      	l32i.n	a9, a9, 12
400d3325:	79cc      	bnez.n	a9, 400d3330 <gpio_esp32_port_clear_bits_raw+0x14>
400d3327:	0020c0        	memw
400d332a:	3839      	s32i.n	a3, a8, 12
400d332c:	000246        	j	400d3339 <gpio_esp32_port_clear_bits_raw+0x1d>
400d332f:	303000        	xor	a3, a0, a0
400d3332:	20c074        	lsi	f7, a0, 128
400d3335:	483200        	ssx	f3, a2, a0
400d3338:	0c18      	l32i.n	a1, a12, 0
400d333a:	f01d02        	l16ui	a0, a13, 0x1e0
400d333d:	000000        	ill

400d3340 <gpio_esp32_port_toggle_bits>:
400d3340:	004136        	entry	a1, 32
400d3343:	1288      	l32i.n	a8, a2, 4
400d3345:	0063a0        	rsil	a10, 3
400d3348:	3898      	l32i.n	a9, a8, 12
400d334a:	2888      	l32i.n	a8, a8, 8
400d334c:	09dc      	bnez.n	a9, 400d3360 <gpio_esp32_port_toggle_bits+0x20>
400d334e:	0020c0        	memw
400d3351:	1898      	l32i.n	a9, a8, 4
400d3353:	303930        	xor	a3, a9, a3
400d3356:	0020c0        	memw
400d3359:	1839      	s32i.n	a3, a8, 4
400d335b:	0004c6        	j	400d3372 <gpio_esp32_port_toggle_bits+0x32>
400d335e:	c00000        	sub	a0, a0, a0
400d3361:	920020        	lsi	f2, a0, 0x248
400d3364:	1008      	l32i.n	a0, a0, 4
400d3366:	303390        	xor	a3, a3, a9
400d3369:	743030        	extui	a3, a3, 0, 8
400d336c:	0020c0        	memw
400d336f:	104832        	s8i	a3, a8, 16
400d3372:	13e6a0        	wsr.ps	a10
400d3375:	002010        	rsync
400d3378:	020c      	movi.n	a2, 0
400d337a:	f01d      	retw.n

400d337c <gpio_esp32_manage_callback>:
400d337c:	004136        	entry	a1, 32
400d337f:	4288      	l32i.n	a8, a2, 16
400d3381:	744040        	extui	a4, a4, 0, 8
400d3384:	2828      	l32i.n	a2, a8, 8
400d3386:	090c      	movi.n	a9, 0
400d3388:	42cc      	bnez.n	a2, 400d3390 <gpio_esp32_manage_callback+0x14>
400d338a:	000fc6        	j	400d33cd <gpio_esp32_manage_callback+0x51>
400d338d:	0a2d00        	add.s	f2, f13, f0
400d3390:	209327        	bne	a3, a2, 400d33b4 <gpio_esp32_manage_callback+0x38>
400d3393:	0328      	l32i.n	a2, a3, 0
400d3395:	b9cc      	bnez.n	a9, 400d33a4 <gpio_esp32_manage_callback+0x28>
400d3397:	3898      	l32i.n	a9, a8, 12
400d3399:	2829      	s32i.n	a2, a8, 8
400d339b:	0e9397        	bne	a3, a9, 400d33ad <gpio_esp32_manage_callback+0x31>
400d339e:	3829      	s32i.n	a2, a8, 12
400d33a0:	000246        	j	400d33ad <gpio_esp32_manage_callback+0x31>
400d33a3:	092900        	l32e	a0, a9, -56
400d33a6:	3828      	l32i.n	a2, a8, 12
400d33a8:	019327        	bne	a3, a2, 400d33ad <gpio_esp32_manage_callback+0x31>
400d33ab:	3899      	s32i.n	a9, a8, 12
400d33ad:	020c      	movi.n	a2, 0
400d33af:	0329      	s32i.n	a2, a3, 0
400d33b1:	000606        	j	400d33cd <gpio_esp32_manage_callback+0x51>
400d33b4:	02a8      	l32i.n	a10, a2, 0
400d33b6:	029d      	mov.n	a9, a2
400d33b8:	fd2a56        	bnez	a10, 400d338e <gpio_esp32_manage_callback+0x12>
400d33bb:	a26c      	movi.n	a2, -22
400d33bd:	017416        	beqz	a4, 400d33d8 <gpio_esp32_manage_callback+0x5c>
400d33c0:	2828      	l32i.n	a2, a8, 8
400d33c2:	0329      	s32i.n	a2, a3, 0
400d33c4:	3828      	l32i.n	a2, a8, 12
400d33c6:	2839      	s32i.n	a3, a8, 8
400d33c8:	42cc      	bnez.n	a2, 400d33d0 <gpio_esp32_manage_callback+0x54>
400d33ca:	000206        	j	400d33d6 <gpio_esp32_manage_callback+0x5a>
400d33cd:	fef456        	bnez	a4, 400d33c0 <gpio_esp32_manage_callback+0x44>
400d33d0:	020c      	movi.n	a2, 0
400d33d2:	000086        	j	400d33d8 <gpio_esp32_manage_callback+0x5c>
400d33d5:	383900        	lsi	f0, a9, 224
400d33d8:	f01d      	retw.n
	...

400d33dc <gpio_esp32_get_pending_int>:
400d33dc:	006136        	entry	a1, 48
400d33df:	1298      	l32i.n	a9, a2, 4
400d33e1:	03f520        	rsr.misc1	a2
400d33e4:	140282        	l8ui	a8, a2, 20
400d33e7:	1928      	l32i.n	a2, a9, 4
400d33e9:	3998      	l32i.n	a9, a9, 12
400d33eb:	29dc      	bnez.n	a9, 400d3401 <gpio_esp32_get_pending_int+0x25>
400d33ed:	78cc      	bnez.n	a8, 400d33f8 <gpio_esp32_get_pending_int+0x1c>
400d33ef:	0020c0        	memw
400d33f2:	1a2222        	l32i	a2, a2, 104
400d33f5:	000cc6        	j	400d342c <gpio_esp32_get_pending_int+0x50>
400d33f8:	0020c0        	memw
400d33fb:	182222        	l32i	a2, a2, 96
400d33fe:	000a86        	j	400d342c <gpio_esp32_get_pending_int+0x50>
400d3401:	38dc      	bnez.n	a8, 400d3418 <gpio_esp32_get_pending_int+0x3c>
400d3403:	0020c0        	memw
400d3406:	1f2222        	l32i	a2, a2, 124
400d3409:	0020c0        	memw
400d340c:	1129      	s32i.n	a2, a1, 4
400d340e:	0020c0        	memw
400d3411:	040122        	l8ui	a2, a1, 4
400d3414:	000446        	j	400d3429 <gpio_esp32_get_pending_int+0x4d>
400d3417:	20c000        	or	a12, a0, a0
400d341a:	222200        	orb	b2, b2, b0
400d341d:	c01d      	lsi	f1, a0, 0
400d341f:	290020        	lsi	f2, a0, 164
400d3422:	20c001        	l32r	a0, 4009b724 <_iram_end+0x184e8>
400d3425:	012200        	slli	a2, a2, 32
400d3428:	202000        	or	a2, a0, a0
400d342b:	f01d74        	lsi	f7, a13, 0x3c0
	...

400d3430 <z_impl_gpio_pin_configure>:
400d3430:	004136        	entry	a1, 32
400d3433:	42c8      	l32i.n	a12, a2, 16
400d3435:	e87c      	movi.n	a8, -2
400d3437:	401300        	ssl	a3
400d343a:	819880        	src	a9, a8, a8
400d343d:	0c88      	l32i.n	a8, a12, 0
400d343f:	22d8      	l32i.n	a13, a2, 8
400d3441:	108890        	and	a8, a8, a9
400d3444:	0c89      	s32i.n	a8, a12, 0
400d3446:	0d88      	l32i.n	a8, a13, 0
400d3448:	02ad      	mov.n	a10, a2
400d344a:	03bd      	mov.n	a11, a3
400d344c:	04cd      	mov.n	a12, a4
400d344e:	0008e0        	callx8	a8
400d3451:	0a2d      	mov.n	a2, a10
400d3453:	f01d      	retw.n
400d3455:	000000        	ill

400d3458 <gpio_pin_set>:
400d3458:	004136        	entry	a1, 32
400d345b:	4298      	l32i.n	a9, a2, 16
400d345d:	180c      	movi.n	a8, 1
400d345f:	0998      	l32i.n	a9, a9, 0
400d3461:	401300        	ssl	a3
400d3464:	a1b800        	sll	a11, a8
400d3467:	20a220        	or	a10, a2, a2
400d346a:	020b97        	bnone	a11, a9, 400d3470 <gpio_pin_set+0x18>
400d346d:	304480        	xor	a4, a4, a8
400d3470:	548c      	beqz.n	a4, 400d3479 <gpio_pin_set+0x21>
400d3472:	2a48      	l32i.n	a4, a10, 8
400d3474:	3448      	l32i.n	a4, a4, 12
400d3476:	0000c6        	j	400d347d <gpio_pin_set+0x25>
400d3479:	2a48      	l32i.n	a4, a10, 8
400d347b:	4448      	l32i.n	a4, a4, 16
400d347d:	0004e0        	callx8	a4
400d3480:	0a2d      	mov.n	a2, a10
400d3482:	f01d      	retw.n

400d3484 <z_impl_gpio_pin_configure>:
400d3484:	004136        	entry	a1, 32
400d3487:	42c8      	l32i.n	a12, a2, 16
400d3489:	e87c      	movi.n	a8, -2
400d348b:	401300        	ssl	a3
400d348e:	819880        	src	a9, a8, a8
400d3491:	0c88      	l32i.n	a8, a12, 0
400d3493:	22d8      	l32i.n	a13, a2, 8
400d3495:	108890        	and	a8, a8, a9
400d3498:	0c89      	s32i.n	a8, a12, 0
400d349a:	0d88      	l32i.n	a8, a13, 0
400d349c:	02ad      	mov.n	a10, a2
400d349e:	03bd      	mov.n	a11, a3
400d34a0:	04cd      	mov.n	a12, a4
400d34a2:	0008e0        	callx8	a8
400d34a5:	0a2d      	mov.n	a2, a10
400d34a7:	f01d      	retw.n
400d34a9:	000000        	ill

400d34ac <uart_esp32_err_check>:
400d34ac:	004136        	entry	a1, 32
400d34af:	4228      	l32i.n	a2, a2, 16
400d34b1:	c80c      	movi.n	a8, 12
400d34b3:	2228      	l32i.n	a2, a2, 8
400d34b5:	0020c0        	memw
400d34b8:	2228      	l32i.n	a2, a2, 8
400d34ba:	102280        	and	a2, a2, a8
400d34bd:	f01d      	retw.n
	...
